
E:/wch/ina_iic/cmake-build-debug-riscv-none-embed-gcc/ina_iic.elf:     file format elf32-littleriscv
E:/wch/ina_iic/cmake-build-debug-riscv-none-embed-gcc/ina_iic.elf
architecture: riscv:rv32, flags 0x00000112:
EXEC_P, HAS_SYMS, D_PAGED
start address 0x00000000

Program Header:
    LOAD off    0x00001000 vaddr 0x00000000 paddr 0x00000000 align 2**12
         filesz 0x000089f4 memsz 0x000089f4 flags r-x
    LOAD off    0x0000a000 vaddr 0x20000000 paddr 0x000089f4 align 2**12
         filesz 0x00000208 memsz 0x00000228 flags rw-
    LOAD off    0x0000a800 vaddr 0x20004800 paddr 0x20004800 align 2**12
         filesz 0x00000000 memsz 0x00000800 flags rw-

Sections:
Idx Name          Size      VMA       LMA       File off  Algn
  0 .init         00000004  00000000  00000000  00001000  2**1
                  CONTENTS, ALLOC, LOAD, READONLY, CODE
  1 .vector       0000013c  00000004  00000004  00001004  2**1
                  CONTENTS, ALLOC, LOAD, READONLY, CODE
  2 .text         000088b4  00000140  00000140  00001140  2**3
                  CONTENTS, ALLOC, LOAD, READONLY, CODE
  3 .fini         00000000  000089f4  000089f4  0000a208  2**0
                  CONTENTS, ALLOC, LOAD, CODE
  4 .dalign       00000000  20000000  20000000  0000a208  2**0
                  CONTENTS
  5 .dlalign      00000000  000089f4  000089f4  0000a208  2**0
                  CONTENTS
  6 .data         00000208  20000000  000089f4  0000a000  2**2
                  CONTENTS, ALLOC, LOAD, DATA
  7 .bss          00000020  20000208  00008bfc  0000a208  2**2
                  ALLOC
  8 .stack        00000800  20004800  20004800  0000a800  2**0
                  ALLOC
  9 .debug_info   0000a5b7  00000000  00000000  0000a208  2**0
                  CONTENTS, READONLY, DEBUGGING
 10 .debug_abbrev 00001d86  00000000  00000000  000147bf  2**0
                  CONTENTS, READONLY, DEBUGGING
 11 .debug_loc    0000223b  00000000  00000000  00016545  2**0
                  CONTENTS, READONLY, DEBUGGING
 12 .debug_aranges 00000588  00000000  00000000  00018780  2**3
                  CONTENTS, READONLY, DEBUGGING
 13 .debug_ranges 000004e0  00000000  00000000  00018d08  2**3
                  CONTENTS, READONLY, DEBUGGING
 14 .debug_line   00006989  00000000  00000000  000191e8  2**0
                  CONTENTS, READONLY, DEBUGGING
 15 .debug_str    00001a1f  00000000  00000000  0001fb71  2**0
                  CONTENTS, READONLY, DEBUGGING
 16 .comment      00000033  00000000  00000000  00021590  2**0
                  CONTENTS, READONLY
 17 .debug_frame  00002230  00000000  00000000  000215c4  2**2
                  CONTENTS, READONLY, DEBUGGING
 18 .stab         00000084  00000000  00000000  000237f4  2**2
                  CONTENTS, READONLY, DEBUGGING
 19 .stabstr      00000117  00000000  00000000  00023878  2**0
                  CONTENTS, READONLY, DEBUGGING
SYMBOL TABLE:
00000000 l    d  .init	00000000 .init
00000004 l    d  .vector	00000000 .vector
00000140 l    d  .text	00000000 .text
000089f4 l    d  .fini	00000000 .fini
20000000 l    d  .dalign	00000000 .dalign
000089f4 l    d  .dlalign	00000000 .dlalign
20000000 l    d  .data	00000000 .data
20000208 l    d  .bss	00000000 .bss
20004800 l    d  .stack	00000000 .stack
00000000 l    d  .debug_info	00000000 .debug_info
00000000 l    d  .debug_abbrev	00000000 .debug_abbrev
00000000 l    d  .debug_loc	00000000 .debug_loc
00000000 l    d  .debug_aranges	00000000 .debug_aranges
00000000 l    d  .debug_ranges	00000000 .debug_ranges
00000000 l    d  .debug_line	00000000 .debug_line
00000000 l    d  .debug_str	00000000 .debug_str
00000000 l    d  .comment	00000000 .comment
00000000 l    d  .debug_frame	00000000 .debug_frame
00000000 l    d  .stab	00000000 .stab
00000000 l    d  .stabstr	00000000 .stabstr
00000000 l    df *ABS*	00000000 CMakeFiles/ina_iic.elf.dir/Startup/startup_ch32l103.S.obj
00000004 l       .vector	00000000 _vector_base
00000000 l    df *ABS*	00000000 debug.c
20000208 l     O .bss	00000002 p_ms
2000020a l     O .bss	00000002 p_us
200001f0 l     O .data	00000004 curbrk.5375
00000000 l    df *ABS*	00000000 ch32l103_dbgmcu.c
00000000 l    df *ABS*	00000000 ch32l103_gpio.c
00000000 l    df *ABS*	00000000 ch32l103_i2c.c
00000000 l    df *ABS*	00000000 ch32l103_rcc.c
20000000 l     O .data	00000010 PBHBPrescTable
200001f4 l     O .data	00000004 ADCPrescTable
00000000 l    df *ABS*	00000000 ch32l103_usart.c
00000000 l    df *ABS*	00000000 ch32l103_it.c
00000000 l    df *ABS*	00000000 ina226.c
00000000 l    df *ABS*	00000000 main.c
00000000 l    df *ABS*	00000000 system_ch32l103.c
00001080 l     F .text	0000007c SetSysClockTo96_HSI
000010fc l     F .text	0000000e SetSysClock
00000000 l    df *ABS*	00000000 muldf3.c
00000000 l    df *ABS*	00000000 floatsidf.c
00000000 l    df *ABS*	00000000 libgcc2.c
00000000 l    df *ABS*	00000000 nano-vfprintf_float.c
00000000 l    df *ABS*	00000000 nano-vfprintf_i.c
00000000 l    df *ABS*	00000000 nano-vfscanf_float.c
00000000 l    df *ABS*	00000000 printf.c
00000000 l    df *ABS*	00000000 puts.c
00000000 l    df *ABS*	00000000 sf_nan.c
00000000 l    df *ABS*	00000000 sprintf.c
00000000 l    df *ABS*	00000000 strlen.c
00000000 l    df *ABS*	00000000 strtod.c
000027e0 l     F .text	0000004e sulp
00008698 l     O .text	00000014 fpi.3395
000086ac l     O .text	00000014 fpinan.3431
000086c0 l     O .text	00000028 tinytens
00000000 l    df *ABS*	00000000 strtol.c
000034c0 l     F .text	00000144 _strtol_l.isra.0
00000000 l    df *ABS*	00000000 wbuf.c
00000000 l    df *ABS*	00000000 wsetup.c
00000000 l    df *ABS*	00000000 dtoa.c
000037f0 l     F .text	0000013a quorem
00000000 l    df *ABS*	00000000 fflush.c
00000000 l    df *ABS*	00000000 findfp.c
000046ee l     F .text	0000006a std
00000000 l    df *ABS*	00000000 fwalk.c
00000000 l    df *ABS*	00000000 gdtoa-gethex.c
0000491a l     F .text	00000076 rshift
00000000 l    df *ABS*	00000000 gdtoa-hexnan.c
00004e92 l     F .text	0000002c L_shift
00000000 l    df *ABS*	00000000 locale.c
00000000 l    df *ABS*	00000000 localeconv.c
00000000 l    df *ABS*	00000000 makebuf.c
00000000 l    df *ABS*	00000000 malloc.c
00000000 l    df *ABS*	00000000 mbtowc_r.c
00000000 l    df *ABS*	00000000 memchr.c
00000000 l    df *ABS*	00000000 memcpy.c
00000000 l    df *ABS*	00000000 mprec.c
00008890 l     O .text	0000000c p05.3319
00000000 l    df *ABS*	00000000 nano-mallocr.c
00000000 l    df *ABS*	00000000 nano-mallocr.c
00000000 l    df *ABS*	00000000 nano-mallocr.c
00000000 l    df *ABS*	00000000 nano-vfprintf.c
00000000 l    df *ABS*	00000000 nano-vfprintf.c
0000611e l     F .text	0000002a __sfputc_r
00000000 l    df *ABS*	00000000 sbrkr.c
00000000 l    df *ABS*	00000000 stdio.c
00000000 l    df *ABS*	00000000 strncmp.c
00000000 l    df *ABS*	00000000 wctomb_r.c
00000000 l    df *ABS*	00000000 writer.c
00000000 l    df *ABS*	00000000 closer.c
00000000 l    df *ABS*	00000000 fstatr.c
00000000 l    df *ABS*	00000000 isattyr.c
00000000 l    df *ABS*	00000000 lseekr.c
00000000 l    df *ABS*	00000000 memmove.c
00000000 l    df *ABS*	00000000 mlock.c
00000000 l    df *ABS*	00000000 nano-mallocr.c
00000000 l    df *ABS*	00000000 readr.c
00000000 l    df *ABS*	00000000 nano-mallocr.c
00000000 l    df *ABS*	00000000 adddf3.c
00000000 l    df *ABS*	00000000 divdf3.c
00000000 l    df *ABS*	00000000 eqdf2.c
00000000 l    df *ABS*	00000000 gedf2.c
00000000 l    df *ABS*	00000000 ledf2.c
00000000 l    df *ABS*	00000000 subdf3.c
00000000 l    df *ABS*	00000000 unorddf2.c
00000000 l    df *ABS*	00000000 fixdfsi.c
00000000 l    df *ABS*	00000000 fixunsdfsi.c
00000000 l    df *ABS*	00000000 floatunsidf.c
00000000 l    df *ABS*	00000000 extenddftf2.c
00000000 l    df *ABS*	00000000 truncdfsf2.c
00000000 l    df *ABS*	00000000 trunctfdf2.c
00000000 l    df *ABS*	00000000 close.c
00000000 l    df *ABS*	00000000 fstat.c
00000000 l    df *ABS*	00000000 isatty.c
00000000 l    df *ABS*	00000000 lseek.c
00000000 l    df *ABS*	00000000 read.c
00000000 l    df *ABS*	00000000 libgcc2.c
00000000 l    df *ABS*	00000000 ctype_.c
00000000 l    df *ABS*	00000000 impure.c
20000020 l     O .data	00000060 impure_data
00000000 l    df *ABS*	00000000 reent.c
0000670c g     F .text	00000014 _malloc_usable_size_r
000017e6 g     F .text	000000ee __cvt
00000c00  w      .text	00000000 EXTI2_IRQHandler
00000c8c g     F .text	00000126 INA226_Read2Byte
00005bca g     F .text	00000046 __any_on
000065e0 g     F .text	0000002a _isatty_r
0000268e g     F .text	000000e4 _puts_r
0000660a g     F .text	0000002e _lseek_r
00007404 g     F .text	0000006a .hidden __eqdf2
0000264c g     F .text	00000042 printf
200009f0 g       .data	00000000 __global_pointer$
00000148 g     F .text	00000028 .hidden __riscv_save_8
00000c00  w      .text	00000000 TIM1_CC_IRQHandler
0000090c g     F .text	00000008 I2C_ReceiveData
000064d4 g     F .text	00000036 __sseek
000047aa g     F .text	00000066 __sinit
00003618 g     F .text	000000c6 __swbuf_r
00000c8a g     F .text	00000002 HardFault_Handler
00004762 g     F .text	00000048 __sfmoreglue
00006684 g     F .text	00000002 __malloc_unlock
00000c00  w      .text	00000000 USBPD_IRQHandler
00000194 g     F .text	0000000c .hidden __riscv_restore_3
000034aa g     F .text	00000016 _strtod_r
00000c00  w      .text	00000000 SysTick_Handler
00004990 g     F .text	00000040 __hexdig_fun
00000c00  w      .text	00000000 PVD_IRQHandler
00006638 g     F .text	0000004a memmove
00000180 g     F .text	00000020 .hidden __riscv_restore_10
00000c88 g     F .text	00000002 NMI_Handler
00005284 g     F .text	0000008c _Balloc
00000c00  w      .text	00000000 EXTI3_IRQHandler
00000148 g     F .text	00000028 .hidden __riscv_save_11
00000376 g     F .text	00000006 DBGMCU_GetCHIPID
0000746e g     F .text	000000ae .hidden __gtdf2
00005054 g     F .text	00000006 __localeconv_l
00000bf2 g     F .text	0000000e USART_GetFlagStatus
000065b4 g     F .text	0000002c _fstat_r
20000224 g     O .bss	00000004 errno
20000208 g       .bss	00000000 _sbss
00000800 g       *ABS*	00000000 __stack_size
000002a2 g     F .text	0000005e USART_Printf_Init
00000c00  w      .text	00000000 USBFS_IRQHandler
00000194 g     F .text	0000000c .hidden __riscv_restore_2
000051ce g     F .text	000000b6 memcpy
00004eee g     F .text	00000160 __hexnan
00004758 g     F .text	0000000a _cleanup_r
0000044c g     F .text	0000014e GPIO_PinRemapConfig
00005ea0 g     F .text	0000027e _svfprintf_r
00001700 g     F .text	00000070 .hidden __floatsidf
0000751c g     F .text	000000b6 .hidden __ltdf2
00000c00  w      .text	00000000 EXTI0_IRQHandler
00000c00  w      .text	00000000 I2C2_EV_IRQHandler
00000c00  w      .text	00000000 LPTIM_IRQHandler
00002772 g     F .text	0000000a puts
200001f8 g     O .data	00000004 SystemCoreClock
00005b20 g     F .text	00000074 __ratio
0000516e g     F .text	0000000c malloc
000083b0 g     F .text	0000000c _fstat
000087c8 g     O .text	000000c8 __mprec_tens
00000004 g       .init	00000000 _einit
00007db4 g     F .text	0000005c .hidden __fixunsdfsi
00000140 g     F .text	00000030 .hidden __riscv_save_12
0000037c g     F .text	000000d0 GPIO_Init
00000c00  w      .text	00000000 Break_Point_Handler
0000505a g     F .text	00000018 _localeconv_r
00005542 g     F .text	0000001c __i2b
00000180 g     F .text	00000020 .hidden __riscv_restore_11
00000c00  w      .text	00000000 SPI1_IRQHandler
00000bd2 g     F .text	00000018 USART_Cmd
0000642c g     F .text	0000002a _sbrk_r
20000210 g     O .bss	00000004 CHIPID
00000c00  w      .text	00000000 TAMPER_IRQHandler
00000170 g     F .text	0000000c .hidden __riscv_save_1
00000194 g     F .text	0000000c .hidden __riscv_restore_0
000066de g     F .text	0000002e _read_r
00000156 g     F .text	0000001a .hidden __riscv_save_7
00006720 g     F .text	00000730 .hidden __adddf3
00000c00  w      .text	00000000 Ecall_M_Mode_Handler
20004800 g       .stack	00000000 _heap_end
00005998 g     F .text	000000b4 __b2d
000083bc g     F .text	0000000c _isatty
00000f3a g     F .text	00000046 INA226_Init
20000200 g     O .data	00000004 _global_impure_ptr
0000018a g     F .text	00000016 .hidden __riscv_restore_5
00006686 g     F .text	00000058 _realloc_r
2000020c g     O .bss	00000002 ADC_Trim
00000c00  w      .text	00000000 DMA1_Channel4_IRQHandler
000087a0 g     O .text	00000028 __mprec_bigtens
000053ec g     F .text	000000a6 __s2b
00000908 g     F .text	00000004 I2C_SendData
00007e10 g     F .text	00000068 .hidden __floatunsidf
00000344 g     F .text	00000032 _sbrk
0000582e g     F .text	00000032 __mcmp
0000078a g     F .text	00000108 I2C_Init
0000018a g     F .text	00000016 .hidden __riscv_restore_6
00000c00  w      .text	00000000 USART3_IRQHandler
00000c00  w      .text	00000000 RTC_IRQHandler
0000282e g     F .text	00000c7c _strtod_l
00004ebe g     F .text	00000030 __match
20000228 g       .bss	00000000 _ebss
00000c00  w      .text	00000000 DMA1_Channel7_IRQHandler
00005492 g     F .text	00000046 __hi0bits
00000c00  w      .text	00000000 CAN1_RX1_IRQHandler
00007d4c g     F .text	00000068 .hidden __fixdfsi
00000248 g     F .text	0000001c Delay_Init
00000ab0 g     F .text	0000001e RCC_PB2PeriphClockCmd
0000059a g     F .text	000001f0 GPIO_IPD_Unused
00000c00  w      .text	00000000 USBPDWakeUp_IRQHandler
00000c00  w      .text	00000000 TIM4_IRQHandler
0000751c g     F .text	000000b6 .hidden __ledf2
00000148 g     F .text	00000028 .hidden __riscv_save_9
000056a2 g     F .text	000000be __pow5mult
000008ae g     F .text	0000001e I2C_GenerateSTART
00008730 g     O .text	00000020 __sf_fake_stderr
00000156 g     F .text	0000001a .hidden __riscv_save_4
00000c00  w      .text	00000000 I2C1_EV_IRQHandler
00000c00  w      .text	00000000 USART4_IRQHandler
00005db2 g     F .text	000000ee __ssputs_r
00000982 g     F .text	0000012e RCC_GetClocksFreq
00000c00  w      .text	00000000 DMA1_Channel6_IRQHandler
00001770 g     F .text	00000076 .hidden __clzsi2
00006148 g     F .text	00000044 __sfputs_r
20000218 g     O .bss	00000004 TS_Val
000051b4 g     F .text	0000001a memchr
00001960  w    F .text	000004c0 _printf_float
00000aec g     F .text	000000e6 USART_Init
00005c36 g     F .text	000000a8 _free_r
00000c00  w      .text	00000000 TIM3_IRQHandler
00000c00  w      .text	00000000 RCC_IRQHandler
00000170 g     F .text	0000000c .hidden __riscv_save_3
00000c00  w      .text	00000000 TIM1_TRG_COM_IRQHandler
00000c00  w      .text	00000000 DMA1_Channel1_IRQHandler
00000000 g       .init	00000000 _start
00000946 g     F .text	0000003c I2C_GetFlagStatus
000083c8 g     F .text	0000000c _lseek
00000db2 g     F .text	000000f2 INA226_Write2Byte
00005760 g     F .text	000000ce __lshift
00000ace g     F .text	0000001e RCC_PB1PeriphClockCmd
00000c00  w      .text	00000000 EXTI15_10_IRQHandler
00006510 g     F .text	0000002c strncmp
00000c00  w      .text	00000000 ADC_IRQHandler
0000555e g     F .text	00000144 __multiply
20000214 g     O .bss	00000004 OPA_Trim
00005a4c g     F .text	000000d4 __d2b
00000c00  w      .text	00000000 DMA1_Channel8_IRQHandler
00000892 g     F .text	0000001c I2C_Cmd
00007e78 g     F .text	000001a4 .hidden __extenddftf2
0000658a g     F .text	0000002a _close_r
20000000 g       .dalign	00000000 _data_vma
000036de g     F .text	00000112 __swsetup_r
00000c00  w      .text	00000000 EXTI9_5_IRQHandler
00006e50 g     F .text	000005b4 .hidden __divdf3
00004810 g     F .text	0000009e __sfp
00005b94 g     F .text	00000036 __copybits
00001250 g     F .text	000004b0 .hidden __muldf3
00000148 g     F .text	00000028 .hidden __riscv_save_10
00006456 g     F .text	00000030 __sread
00000914 g     F .text	00000014 I2C_Send7bitAddress
00006682 g     F .text	00000002 __malloc_lock
0000018a g     F .text	00000016 .hidden __riscv_restore_4
00000180 g     F .text	00000020 .hidden __riscv_restore_8
00004688 g     F .text	00000066 _fflush_r
00000156 g     F .text	0000001a .hidden __riscv_save_6
00005c10 g     F .text	00000026 _calloc_r
00000c00  w      .text	00000000 SPI2_IRQHandler
00008750 g     O .text	00000020 __sf_fake_stdin
000001a0 g     F .text	000000a8 memset
00000180 g     F .text	00000020 .hidden __riscv_restore_9
0000018a g     F .text	00000016 .hidden __riscv_restore_7
00000f80 g     F .text	00000100 main
0000650a g     F .text	00000006 __sclose
00000ea4 g     F .text	00000096 IIC_Init
00003604 g     F .text	00000014 _strtol_r
0000801c g     F .text	0000016a .hidden __truncdfsf2
0000392a g     F .text	00000c20 _dtoa_r
00005cde g     F .text	000000d4 _malloc_r
0000653c g     F .text	00000020 __ascii_wctomb
00000c00  w      .text	00000000 DMA1_Channel5_IRQHandler
00000c00  w      .text	00000000 EXTI4_IRQHandler
00000264 g     F .text	0000003e Delay_Ms
00000c00  w      .text	00000000 USB_LP_CAN1_RX0_IRQHandler
0000110a g     F .text	0000004a SystemInit
00007404 g     F .text	0000006a .hidden __nedf2
0000264c g     F .text	00000042 iprintf
00000c00  w      .text	00000000 USB_HP_CAN1_TX_IRQHandler
00002788 g     F .text	00000046 sprintf
000084e8 g     O .text	00000100 .hidden __clz_tab
000018d4 g     F .text	0000008c __exponent
00000000 g       .init	00000000 _sinit
00000c00  w      .text	00000000 CMPWakeUp_IRQHandler
0000655c g     F .text	0000002e _write_r
00000c00  w      .text	00000000 DMA1_Channel3_IRQHandler
0000277c g     F .text	0000000c nanf
00001e20 g     F .text	0000010c _printf_common
200001fc g     O .data	00000004 _impure_ptr
00000c00  w      .text	00000000 TIM1_UP_IRQHandler
0000454a g     F .text	0000013e __sflush_r
00000c00  w      .text	00000000 LPTIMWakeUp_IRQHandler
00005ea0 g     F .text	0000027e _svfiprintf_r
00000c00  w      .text	00000000 WWDG_IRQHandler
0000517a g     F .text	0000003a __ascii_mbtowc
00000c00  w      .text	00000000 Ecall_U_Mode_Handler
00005952 g     F .text	00000046 __ulp
00000c00  w      .text	00000000 TIM2_IRQHandler
20005000 g       .stack	00000000 _eusrstack
00000170 g     F .text	0000000c .hidden __riscv_save_2
00000c00  w      .text	00000000 SW_Handler
00000c00  w      .text	00000000 TIM1_BRK_IRQHandler
00005072 g     F .text	0000005a __swhatbuf_r
00000bea g     F .text	00000008 USART_SendData
00000c00  w      .text	00000000 OPA_IRQHandler
00000c00  w      .text	00000000 EXTI1_IRQHandler
00000156 g     F .text	0000001a .hidden __riscv_save_5
00000300 g     F .text	00000044 _write
20000208 g       .data	00000000 _edata
20000228 g       .bss	00000000 _end
00000c00  w      .text	00000000 RTCAlarm_IRQHandler
000089f4 g       .dlalign	00000000 _data_lma
00000c00  w      .text	00000000 USART2_IRQHandler
00006486 g     F .text	0000004e __swrite
0000618c g     F .text	000002a0 _vfiprintf_r
000048ae g     F .text	0000006c _fwalk_reent
00001154 g     F .text	000000fc SystemCoreClockUpdate
00005860 g     F .text	000000f2 __mdiff
00000c00  w      .text	00000000 I2C2_ER_IRQHandler
00000c00  w      .text	00000000 DMA1_Channel2_IRQHandler
00008770 g     O .text	00000020 __sf_fake_stdout
00002788 g     F .text	00000046 siprintf
20000010 g     O .data	00000010 HBPrescTable
0000017c g     F .text	00000024 .hidden __riscv_restore_12
000088b0 g     O .text	00000101 _ctype_
000083d4 g     F .text	0000000c _read
00007d10 g     F .text	0000003c .hidden __unorddf2
00000c02  w      .text	00000000 handle_reset
00000c00  w      .text	00000000 CAN1_SCE_IRQHandler
00000c00  w      .text	00000000 FLASH_IRQHandler
00000170 g     F .text	0000000c .hidden __riscv_save_0
00000c00  w      .text	00000000 USBFSWakeUp_IRQHandler
00000c00  w      .text	00000000 USART1_IRQHandler
000050cc g     F .text	000000a2 __smakebuf_r
000008ea g     F .text	0000001e I2C_AcknowledgeConfig
000027ce g     F .text	00000012 strlen
00001f2c g     F .text	000002aa _printf_i
0000504e g     F .text	00000006 __locale_ctype_ptr_l
0000746e g     F .text	000000ae .hidden __gedf2
000049d0 g     F .text	000004c2 __gethex
20000220 g     O .bss	00000004 __malloc_sbrk_start
00000928 g     F .text	0000001e I2C_CheckEvent
000008cc g     F .text	0000001e I2C_GenerateSTOP
00000c00  w      .text	00000000 I2C1_ER_IRQHandler
2000021c g     O .bss	00000004 __malloc_free_list
00000194 g     F .text	0000000c .hidden __riscv_restore_1
000075d2 g     F .text	0000073e .hidden __subdf3
0000618c g     F .text	000002a0 _vfprintf_r
000054d8 g     F .text	0000006a __lo0bits
20000080 g     O .data	0000016c __global_locale
00008186 g     F .text	0000021e .hidden __trunctfdf2
000083a4 g     F .text	0000000c _close
000021d6  w    F .text	00000476 _scanf_float
00005354 g     F .text	00000098 __multadd
00005310 g     F .text	00000044 _Bfree



Disassembly of section .init:

00000000 <_sinit>:
   0:	4030006f          	j	c02 <handle_reset>

Disassembly of section .vector:

00000004 <_vector_base>:
	...
   c:	0c88                	addi	a0,sp,592
   e:	0000                	unimp
  10:	0c8a                	slli	s9,s9,0x2
  12:	0000                	unimp
  14:	0000                	unimp
  16:	0000                	unimp
  18:	0c00                	addi	s0,sp,528
	...
  22:	0000                	unimp
  24:	0c00                	addi	s0,sp,528
  26:	0000                	unimp
  28:	0c00                	addi	s0,sp,528
	...
  32:	0000                	unimp
  34:	0c00                	addi	s0,sp,528
  36:	0000                	unimp
  38:	0000                	unimp
  3a:	0000                	unimp
  3c:	0c00                	addi	s0,sp,528
  3e:	0000                	unimp
  40:	0000                	unimp
  42:	0000                	unimp
  44:	0c00                	addi	s0,sp,528
  46:	0000                	unimp
  48:	0c00                	addi	s0,sp,528
  4a:	0000                	unimp
  4c:	0c00                	addi	s0,sp,528
  4e:	0000                	unimp
  50:	0c00                	addi	s0,sp,528
  52:	0000                	unimp
  54:	0c00                	addi	s0,sp,528
  56:	0000                	unimp
  58:	0c00                	addi	s0,sp,528
  5a:	0000                	unimp
  5c:	0c00                	addi	s0,sp,528
  5e:	0000                	unimp
  60:	0c00                	addi	s0,sp,528
  62:	0000                	unimp
  64:	0c00                	addi	s0,sp,528
  66:	0000                	unimp
  68:	0c00                	addi	s0,sp,528
  6a:	0000                	unimp
  6c:	0c00                	addi	s0,sp,528
  6e:	0000                	unimp
  70:	0c00                	addi	s0,sp,528
  72:	0000                	unimp
  74:	0c00                	addi	s0,sp,528
  76:	0000                	unimp
  78:	0c00                	addi	s0,sp,528
  7a:	0000                	unimp
  7c:	0c00                	addi	s0,sp,528
  7e:	0000                	unimp
  80:	0c00                	addi	s0,sp,528
  82:	0000                	unimp
  84:	0c00                	addi	s0,sp,528
  86:	0000                	unimp
  88:	0c00                	addi	s0,sp,528
  8a:	0000                	unimp
  8c:	0c00                	addi	s0,sp,528
  8e:	0000                	unimp
  90:	0c00                	addi	s0,sp,528
  92:	0000                	unimp
  94:	0c00                	addi	s0,sp,528
  96:	0000                	unimp
  98:	0c00                	addi	s0,sp,528
  9a:	0000                	unimp
  9c:	0c00                	addi	s0,sp,528
  9e:	0000                	unimp
  a0:	0c00                	addi	s0,sp,528
  a2:	0000                	unimp
  a4:	0c00                	addi	s0,sp,528
  a6:	0000                	unimp
  a8:	0c00                	addi	s0,sp,528
  aa:	0000                	unimp
  ac:	0c00                	addi	s0,sp,528
  ae:	0000                	unimp
  b0:	0c00                	addi	s0,sp,528
  b2:	0000                	unimp
  b4:	0c00                	addi	s0,sp,528
  b6:	0000                	unimp
  b8:	0c00                	addi	s0,sp,528
  ba:	0000                	unimp
  bc:	0c00                	addi	s0,sp,528
  be:	0000                	unimp
  c0:	0c00                	addi	s0,sp,528
  c2:	0000                	unimp
  c4:	0c00                	addi	s0,sp,528
  c6:	0000                	unimp
  c8:	0c00                	addi	s0,sp,528
  ca:	0000                	unimp
  cc:	0c00                	addi	s0,sp,528
  ce:	0000                	unimp
  d0:	0c00                	addi	s0,sp,528
  d2:	0000                	unimp
  d4:	0c00                	addi	s0,sp,528
  d6:	0000                	unimp
  d8:	0c00                	addi	s0,sp,528
  da:	0000                	unimp
  dc:	0c00                	addi	s0,sp,528
  de:	0000                	unimp
  e0:	0c00                	addi	s0,sp,528
  e2:	0000                	unimp
  e4:	0c00                	addi	s0,sp,528
  e6:	0000                	unimp
  e8:	0c00                	addi	s0,sp,528
  ea:	0000                	unimp
  ec:	0c00                	addi	s0,sp,528
  ee:	0000                	unimp
  f0:	0c00                	addi	s0,sp,528
  f2:	0000                	unimp
  f4:	0c00                	addi	s0,sp,528
  f6:	0000                	unimp
  f8:	0c00                	addi	s0,sp,528
  fa:	0000                	unimp
  fc:	0c00                	addi	s0,sp,528
  fe:	0000                	unimp
 100:	0c00                	addi	s0,sp,528
 102:	0000                	unimp
 104:	0c00                	addi	s0,sp,528
 106:	0000                	unimp
 108:	0c00                	addi	s0,sp,528
 10a:	0000                	unimp
 10c:	0000                	unimp
 10e:	0000                	unimp
 110:	0c00                	addi	s0,sp,528
 112:	0000                	unimp
 114:	0c00                	addi	s0,sp,528
	...

Disassembly of section .text:

00000140 <__riscv_save_12>:
     140:	7139                	addi	sp,sp,-64
     142:	4301                	li	t1,0
     144:	c66e                	sw	s11,12(sp)
     146:	a019                	j	14c <__riscv_save_10+0x4>

00000148 <__riscv_save_10>:
     148:	7139                	addi	sp,sp,-64
     14a:	5341                	li	t1,-16
     14c:	c86a                	sw	s10,16(sp)
     14e:	ca66                	sw	s9,20(sp)
     150:	cc62                	sw	s8,24(sp)
     152:	ce5e                	sw	s7,28(sp)
     154:	a019                	j	15a <__riscv_save_4+0x4>

00000156 <__riscv_save_4>:
     156:	7139                	addi	sp,sp,-64
     158:	5301                	li	t1,-32
     15a:	d05a                	sw	s6,32(sp)
     15c:	d256                	sw	s5,36(sp)
     15e:	d452                	sw	s4,40(sp)
     160:	d64e                	sw	s3,44(sp)
     162:	d84a                	sw	s2,48(sp)
     164:	da26                	sw	s1,52(sp)
     166:	dc22                	sw	s0,56(sp)
     168:	de06                	sw	ra,60(sp)
     16a:	40610133          	sub	sp,sp,t1
     16e:	8282                	jr	t0

00000170 <__riscv_save_0>:
     170:	1141                	addi	sp,sp,-16
     172:	c04a                	sw	s2,0(sp)
     174:	c226                	sw	s1,4(sp)
     176:	c422                	sw	s0,8(sp)
     178:	c606                	sw	ra,12(sp)
     17a:	8282                	jr	t0

0000017c <__riscv_restore_12>:
     17c:	4db2                	lw	s11,12(sp)
     17e:	0141                	addi	sp,sp,16

00000180 <__riscv_restore_10>:
     180:	4d02                	lw	s10,0(sp)
     182:	4c92                	lw	s9,4(sp)
     184:	4c22                	lw	s8,8(sp)
     186:	4bb2                	lw	s7,12(sp)
     188:	0141                	addi	sp,sp,16

0000018a <__riscv_restore_4>:
     18a:	4b02                	lw	s6,0(sp)
     18c:	4a92                	lw	s5,4(sp)
     18e:	4a22                	lw	s4,8(sp)
     190:	49b2                	lw	s3,12(sp)
     192:	0141                	addi	sp,sp,16

00000194 <__riscv_restore_0>:
     194:	4902                	lw	s2,0(sp)
     196:	4492                	lw	s1,4(sp)
     198:	4422                	lw	s0,8(sp)
     19a:	40b2                	lw	ra,12(sp)
     19c:	0141                	addi	sp,sp,16
     19e:	8082                	ret

000001a0 <memset>:
     1a0:	433d                	li	t1,15
     1a2:	872a                	mv	a4,a0
     1a4:	02c37363          	bgeu	t1,a2,1ca <memset+0x2a>
     1a8:	00f77793          	andi	a5,a4,15
     1ac:	efbd                	bnez	a5,22a <memset+0x8a>
     1ae:	e5ad                	bnez	a1,218 <memset+0x78>
     1b0:	ff067693          	andi	a3,a2,-16
     1b4:	8a3d                	andi	a2,a2,15
     1b6:	96ba                	add	a3,a3,a4
     1b8:	c30c                	sw	a1,0(a4)
     1ba:	c34c                	sw	a1,4(a4)
     1bc:	c70c                	sw	a1,8(a4)
     1be:	c74c                	sw	a1,12(a4)
     1c0:	0741                	addi	a4,a4,16
     1c2:	fed76be3          	bltu	a4,a3,1b8 <memset+0x18>
     1c6:	e211                	bnez	a2,1ca <memset+0x2a>
     1c8:	8082                	ret
     1ca:	40c306b3          	sub	a3,t1,a2
     1ce:	068a                	slli	a3,a3,0x2
     1d0:	00000297          	auipc	t0,0x0
     1d4:	9696                	add	a3,a3,t0
     1d6:	00a68067          	jr	10(a3)
     1da:	00b70723          	sb	a1,14(a4)
     1de:	00b706a3          	sb	a1,13(a4)
     1e2:	00b70623          	sb	a1,12(a4)
     1e6:	00b705a3          	sb	a1,11(a4)
     1ea:	00b70523          	sb	a1,10(a4)
     1ee:	00b704a3          	sb	a1,9(a4)
     1f2:	00b70423          	sb	a1,8(a4)
     1f6:	00b703a3          	sb	a1,7(a4)
     1fa:	00b70323          	sb	a1,6(a4)
     1fe:	00b702a3          	sb	a1,5(a4)
     202:	00b70223          	sb	a1,4(a4)
     206:	00b701a3          	sb	a1,3(a4)
     20a:	00b70123          	sb	a1,2(a4)
     20e:	00b700a3          	sb	a1,1(a4)
     212:	00b70023          	sb	a1,0(a4)
     216:	8082                	ret
     218:	0ff5f593          	andi	a1,a1,255
     21c:	00859693          	slli	a3,a1,0x8
     220:	8dd5                	or	a1,a1,a3
     222:	01059693          	slli	a3,a1,0x10
     226:	8dd5                	or	a1,a1,a3
     228:	b761                	j	1b0 <memset+0x10>
     22a:	00279693          	slli	a3,a5,0x2
     22e:	00000297          	auipc	t0,0x0
     232:	9696                	add	a3,a3,t0
     234:	8286                	mv	t0,ra
     236:	fa8680e7          	jalr	-88(a3)
     23a:	8096                	mv	ra,t0
     23c:	17c1                	addi	a5,a5,-16
     23e:	8f1d                	sub	a4,a4,a5
     240:	963e                	add	a2,a2,a5
     242:	f8c374e3          	bgeu	t1,a2,1ca <memset+0x2a>
     246:	b7a5                	j	1ae <memset+0xe>

00000248 <Delay_Init>:
     248:	8081a783          	lw	a5,-2040(gp) # 200001f8 <SystemCoreClock>
     24c:	6709                	lui	a4,0x2
     24e:	f4070713          	addi	a4,a4,-192 # 1f40 <_printf_i+0x14>
     252:	02e7d7b3          	divu	a5,a5,a4
     256:	07c2                	slli	a5,a5,0x10
     258:	83c1                	srli	a5,a5,0x10
     25a:	80f19d23          	sh	a5,-2022(gp) # 2000020a <p_us>
     25e:	80f19c23          	sh	a5,-2024(gp) # 20000208 <_edata>
     262:	8082                	ret

00000264 <Delay_Ms>:
     264:	e000f7b7          	lui	a5,0xe000f
     268:	43d8                	lw	a4,4(a5)
     26a:	9b79                	andi	a4,a4,-2
     26c:	c3d8                	sw	a4,4(a5)
     26e:	8181d703          	lhu	a4,-2024(gp) # 20000208 <_edata>
     272:	02a70633          	mul	a2,a4,a0
     276:	4681                	li	a3,0
     278:	cb90                	sw	a2,16(a5)
     27a:	cbd4                	sw	a3,20(a5)
     27c:	4398                	lw	a4,0(a5)
     27e:	01076713          	ori	a4,a4,16
     282:	c398                	sw	a4,0(a5)
     284:	4398                	lw	a4,0(a5)
     286:	02176713          	ori	a4,a4,33
     28a:	c398                	sw	a4,0(a5)
     28c:	e000f7b7          	lui	a5,0xe000f
     290:	43dc                	lw	a5,4(a5)
     292:	8b85                	andi	a5,a5,1
     294:	dfe5                	beqz	a5,28c <Delay_Ms+0x28>
     296:	e000f737          	lui	a4,0xe000f
     29a:	431c                	lw	a5,0(a4)
     29c:	9bf9                	andi	a5,a5,-2
     29e:	c31c                	sw	a5,0(a4)
     2a0:	8082                	ret

000002a2 <USART_Printf_Init>:
     2a2:	ecfff2ef          	jal	t0,170 <__riscv_save_0>
     2a6:	1101                	addi	sp,sp,-32
     2a8:	842a                	mv	s0,a0
     2aa:	4585                	li	a1,1
     2ac:	6511                	lui	a0,0x4
     2ae:	0511                	addi	a0,a0,4
     2b0:	001000ef          	jal	ra,ab0 <RCC_PB2PeriphClockCmd>
     2b4:	20000793          	li	a5,512
     2b8:	82fc                	0x82fc
     2ba:	478d                	li	a5,3
     2bc:	cc3e                	sw	a5,24(sp)
     2be:	47e1                	li	a5,24
     2c0:	ce3e                	sw	a5,28(sp)
     2c2:	084c                	addi	a1,sp,20
     2c4:	40011537          	lui	a0,0x40011
     2c8:	80050513          	addi	a0,a0,-2048 # 40010800 <_eusrstack+0x2000b800>
     2cc:	2845                	jal	37c <GPIO_Init>
     2ce:	c222                	sw	s0,4(sp)
     2d0:	00011423          	sh	zero,8(sp)
     2d4:	00011523          	sh	zero,10(sp)
     2d8:	00011623          	sh	zero,12(sp)
     2dc:	00011823          	sh	zero,16(sp)
     2e0:	47a1                	li	a5,8
     2e2:	877c                	0x877c
     2e4:	004c                	addi	a1,sp,4
     2e6:	40014437          	lui	s0,0x40014
     2ea:	80040513          	addi	a0,s0,-2048 # 40013800 <_eusrstack+0x2000e800>
     2ee:	7fe000ef          	jal	ra,aec <USART_Init>
     2f2:	4585                	li	a1,1
     2f4:	80040513          	addi	a0,s0,-2048
     2f8:	0db000ef          	jal	ra,bd2 <USART_Cmd>
     2fc:	6105                	addi	sp,sp,32
     2fe:	bd59                	j	194 <__riscv_restore_0>

00000300 <_write>:
     300:	e57ff2ef          	jal	t0,156 <__riscv_save_4>
     304:	84ae                	mv	s1,a1
     306:	89b2                	mv	s3,a2
     308:	4401                	li	s0,0
     30a:	a839                	j	328 <_write+0x28>
     30c:	00148913          	addi	s2,s1,1
     310:	00048583          	lb	a1,0(s1)
     314:	05c2                	slli	a1,a1,0x10
     316:	81c1                	srli	a1,a1,0x10
     318:	40014537          	lui	a0,0x40014
     31c:	80050513          	addi	a0,a0,-2048 # 40013800 <_eusrstack+0x2000e800>
     320:	0cb000ef          	jal	ra,bea <USART_SendData>
     324:	0405                	addi	s0,s0,1
     326:	84ca                	mv	s1,s2
     328:	01345c63          	bge	s0,s3,340 <_write+0x40>
     32c:	04000593          	li	a1,64
     330:	40014537          	lui	a0,0x40014
     334:	80050513          	addi	a0,a0,-2048 # 40013800 <_eusrstack+0x2000e800>
     338:	0bb000ef          	jal	ra,bf2 <USART_GetFlagStatus>
     33c:	d965                	beqz	a0,32c <_write+0x2c>
     33e:	b7f9                	j	30c <_write+0xc>
     340:	854e                	mv	a0,s3
     342:	b5a1                	j	18a <__riscv_restore_4>

00000344 <_sbrk>:
     344:	200007b7          	lui	a5,0x20000
     348:	1f07a703          	lw	a4,496(a5) # 200001f0 <curbrk.5375>
     34c:	953a                	add	a0,a0,a4
     34e:	83818793          	addi	a5,gp,-1992 # 20000228 <_ebss>
     352:	00f56e63          	bltu	a0,a5,36e <_sbrk+0x2a>
     356:	200057b7          	lui	a5,0x20005
     35a:	80078793          	addi	a5,a5,-2048 # 20004800 <_heap_end>
     35e:	00a7ea63          	bltu	a5,a0,372 <_sbrk+0x2e>
     362:	200007b7          	lui	a5,0x20000
     366:	1ea7a823          	sw	a0,496(a5) # 200001f0 <curbrk.5375>
     36a:	853a                	mv	a0,a4
     36c:	8082                	ret
     36e:	577d                	li	a4,-1
     370:	bfed                	j	36a <_sbrk+0x26>
     372:	577d                	li	a4,-1
     374:	bfdd                	j	36a <_sbrk+0x26>

00000376 <DBGMCU_GetCHIPID>:
     376:	8201a503          	lw	a0,-2016(gp) # 20000210 <CHIPID>
     37a:	8082                	ret

0000037c <GPIO_Init>:
     37c:	459c                	lw	a5,8(a1)
     37e:	00f7f893          	andi	a7,a5,15
     382:	8bc1                	andi	a5,a5,16
     384:	c781                	beqz	a5,38c <GPIO_Init+0x10>
     386:	41dc                	lw	a5,4(a1)
     388:	00f8e8b3          	or	a7,a7,a5
     38c:	219c                	fld	fa5,0(a1)
     38e:	cbb9                	beqz	a5,3e4 <GPIO_Init+0x68>
     390:	00052803          	lw	a6,0(a0)
     394:	4701                	li	a4,0
     396:	a019                	j	39c <GPIO_Init+0x20>
     398:	c95c                	sw	a5,20(a0)
     39a:	0705                	addi	a4,a4,1
     39c:	479d                	li	a5,7
     39e:	04e7e163          	bltu	a5,a4,3e0 <GPIO_Init+0x64>
     3a2:	4785                	li	a5,1
     3a4:	00e797b3          	sll	a5,a5,a4
     3a8:	2196                	fld	ft3,320(sp)
     3aa:	8efd                	and	a3,a3,a5
     3ac:	fed797e3          	bne	a5,a3,39a <GPIO_Init+0x1e>
     3b0:	00271613          	slli	a2,a4,0x2
     3b4:	46bd                	li	a3,15
     3b6:	00c696b3          	sll	a3,a3,a2
     3ba:	fff6c693          	not	a3,a3
     3be:	0106f833          	and	a6,a3,a6
     3c2:	00c89633          	sll	a2,a7,a2
     3c6:	01066833          	or	a6,a2,a6
     3ca:	4594                	lw	a3,8(a1)
     3cc:	02800613          	li	a2,40
     3d0:	fcc684e3          	beq	a3,a2,398 <GPIO_Init+0x1c>
     3d4:	04800613          	li	a2,72
     3d8:	fcc691e3          	bne	a3,a2,39a <GPIO_Init+0x1e>
     3dc:	c91c                	sw	a5,16(a0)
     3de:	bf75                	j	39a <GPIO_Init+0x1e>
     3e0:	01052023          	sw	a6,0(a0)
     3e4:	219a                	fld	ft3,384(sp)
     3e6:	0ff00793          	li	a5,255
     3ea:	06e7f063          	bgeu	a5,a4,44a <GPIO_Init+0xce>
     3ee:	00452803          	lw	a6,4(a0)
     3f2:	4701                	li	a4,0
     3f4:	a021                	j	3fc <GPIO_Init+0x80>
     3f6:	c95c                	sw	a5,20(a0)
     3f8:	a081                	j	438 <GPIO_Init+0xbc>
     3fa:	0705                	addi	a4,a4,1
     3fc:	479d                	li	a5,7
     3fe:	04e7e463          	bltu	a5,a4,446 <GPIO_Init+0xca>
     402:	00870613          	addi	a2,a4,8 # e000f008 <_eusrstack+0xc000a008>
     406:	4785                	li	a5,1
     408:	00c797b3          	sll	a5,a5,a2
     40c:	2196                	fld	ft3,320(sp)
     40e:	8efd                	and	a3,a3,a5
     410:	fed795e3          	bne	a5,a3,3fa <GPIO_Init+0x7e>
     414:	00271613          	slli	a2,a4,0x2
     418:	46bd                	li	a3,15
     41a:	00c696b3          	sll	a3,a3,a2
     41e:	fff6c693          	not	a3,a3
     422:	0106f833          	and	a6,a3,a6
     426:	00c89633          	sll	a2,a7,a2
     42a:	01066833          	or	a6,a2,a6
     42e:	4590                	lw	a2,8(a1)
     430:	02800693          	li	a3,40
     434:	fcd601e3          	beq	a2,a3,3f6 <GPIO_Init+0x7a>
     438:	4590                	lw	a2,8(a1)
     43a:	04800693          	li	a3,72
     43e:	fad61ee3          	bne	a2,a3,3fa <GPIO_Init+0x7e>
     442:	c91c                	sw	a5,16(a0)
     444:	bf5d                	j	3fa <GPIO_Init+0x7e>
     446:	01052223          	sw	a6,4(a0)
     44a:	8082                	ret

0000044c <GPIO_PinRemapConfig>:
     44c:	c0000737          	lui	a4,0xc0000
     450:	00e577b3          	and	a5,a0,a4
     454:	04e78563          	beq	a5,a4,49e <GPIO_PinRemapConfig+0x52>
     458:	40000737          	lui	a4,0x40000
     45c:	0ce78e63          	beq	a5,a4,538 <GPIO_PinRemapConfig+0xec>
     460:	12079063          	bnez	a5,580 <GPIO_PinRemapConfig+0x134>
     464:	400107b7          	lui	a5,0x40010
     468:	43dc                	lw	a5,4(a5)
     46a:	01055713          	srli	a4,a0,0x10
     46e:	8b3d                	andi	a4,a4,15
     470:	01051613          	slli	a2,a0,0x10
     474:	8241                	srli	a2,a2,0x10
     476:	003006b7          	lui	a3,0x300
     47a:	00d57833          	and	a6,a0,a3
     47e:	0cd80b63          	beq	a6,a3,554 <GPIO_PinRemapConfig+0x108>
     482:	00b51693          	slli	a3,a0,0xb
     486:	0e06de63          	bgez	a3,582 <GPIO_PinRemapConfig+0x136>
     48a:	468d                	li	a3,3
     48c:	00e69733          	sll	a4,a3,a4
     490:	fff74713          	not	a4,a4
     494:	8f7d                	and	a4,a4,a5
     496:	070007b7          	lui	a5,0x7000
     49a:	8fd9                	or	a5,a5,a4
     49c:	a0f9                	j	56a <GPIO_PinRemapConfig+0x11e>
     49e:	40010737          	lui	a4,0x40010
     4a2:	435c                	lw	a5,4(a4)
     4a4:	4f54                	lw	a3,28(a4)
     4a6:	01b55713          	srli	a4,a0,0x1b
     4aa:	8b1d                	andi	a4,a4,7
     4ac:	e71d                	bnez	a4,4da <GPIO_PinRemapConfig+0x8e>
     4ae:	9bf9                	andi	a5,a5,-2
     4b0:	ff000737          	lui	a4,0xff000
     4b4:	177d                	addi	a4,a4,-1
     4b6:	8ef9                	and	a3,a3,a4
     4b8:	c989                	beqz	a1,4ca <GPIO_PinRemapConfig+0x7e>
     4ba:	01051713          	slli	a4,a0,0x10
     4be:	8341                	srli	a4,a4,0x10
     4c0:	8fd9                	or	a5,a5,a4
     4c2:	01ff0737          	lui	a4,0x1ff0
     4c6:	8d79                	and	a0,a0,a4
     4c8:	8ec9                	or	a3,a3,a0
     4ca:	07000737          	lui	a4,0x7000
     4ce:	8fd9                	or	a5,a5,a4
     4d0:	40010737          	lui	a4,0x40010
     4d4:	c35c                	sw	a5,4(a4)
     4d6:	cf54                	sw	a3,28(a4)
     4d8:	8082                	ret
     4da:	4605                	li	a2,1
     4dc:	02c70563          	beq	a4,a2,506 <GPIO_PinRemapConfig+0xba>
     4e0:	4609                	li	a2,2
     4e2:	02c70863          	beq	a4,a2,512 <GPIO_PinRemapConfig+0xc6>
     4e6:	460d                	li	a2,3
     4e8:	02c70b63          	beq	a4,a2,51e <GPIO_PinRemapConfig+0xd2>
     4ec:	4611                	li	a2,4
     4ee:	02c70e63          	beq	a4,a2,52a <GPIO_PinRemapConfig+0xde>
     4f2:	4615                	li	a2,5
     4f4:	fcc712e3          	bne	a4,a2,4b8 <GPIO_PinRemapConfig+0x6c>
     4f8:	cff7f793          	andi	a5,a5,-769
     4fc:	ffe00737          	lui	a4,0xffe00
     500:	177d                	addi	a4,a4,-1
     502:	8ef9                	and	a3,a3,a4
     504:	bf55                	j	4b8 <GPIO_PinRemapConfig+0x6c>
     506:	9bf5                	andi	a5,a5,-3
     508:	ff800737          	lui	a4,0xff800
     50c:	177d                	addi	a4,a4,-1
     50e:	8ef9                	and	a3,a3,a4
     510:	b765                	j	4b8 <GPIO_PinRemapConfig+0x6c>
     512:	9bed                	andi	a5,a5,-5
     514:	ffe80737          	lui	a4,0xffe80
     518:	177d                	addi	a4,a4,-1
     51a:	8ef9                	and	a3,a3,a4
     51c:	bf71                	j	4b8 <GPIO_PinRemapConfig+0x6c>
     51e:	9bdd                	andi	a5,a5,-9
     520:	fffc0737          	lui	a4,0xfffc0
     524:	177d                	addi	a4,a4,-1
     526:	8ef9                	and	a3,a3,a4
     528:	bf41                	j	4b8 <GPIO_PinRemapConfig+0x6c>
     52a:	f3f7f793          	andi	a5,a5,-193
     52e:	ffc00737          	lui	a4,0xffc00
     532:	177d                	addi	a4,a4,-1
     534:	8ef9                	and	a3,a3,a4
     536:	b749                	j	4b8 <GPIO_PinRemapConfig+0x6c>
     538:	400107b7          	lui	a5,0x40010
     53c:	4fd8                	lw	a4,28(a5)
     53e:	0542                	slli	a0,a0,0x10
     540:	fff54793          	not	a5,a0
     544:	8ff9                	and	a5,a5,a4
     546:	c199                	beqz	a1,54c <GPIO_PinRemapConfig+0x100>
     548:	00a767b3          	or	a5,a4,a0
     54c:	40010737          	lui	a4,0x40010
     550:	cf5c                	sw	a5,28(a4)
     552:	8082                	ret
     554:	f9000737          	lui	a4,0xf9000
     558:	177d                	addi	a4,a4,-1
     55a:	8ff9                	and	a5,a5,a4
     55c:	40010837          	lui	a6,0x40010
     560:	00482683          	lw	a3,4(a6) # 40010004 <_eusrstack+0x2000b004>
     564:	8f75                	and	a4,a4,a3
     566:	00e82223          	sw	a4,4(a6)
     56a:	c981                	beqz	a1,57a <GPIO_PinRemapConfig+0x12e>
     56c:	8155                	srli	a0,a0,0x15
     56e:	3ff57513          	andi	a0,a0,1023
     572:	0512                	slli	a0,a0,0x4
     574:	00a61533          	sll	a0,a2,a0
     578:	8fc9                	or	a5,a5,a0
     57a:	40010737          	lui	a4,0x40010
     57e:	c35c                	sw	a5,4(a4)
     580:	8082                	ret
     582:	01555713          	srli	a4,a0,0x15
     586:	0712                	slli	a4,a4,0x4
     588:	00e61733          	sll	a4,a2,a4
     58c:	fff74713          	not	a4,a4
     590:	8f7d                	and	a4,a4,a5
     592:	070007b7          	lui	a5,0x7000
     596:	8fd9                	or	a5,a5,a4
     598:	bfc9                	j	56a <GPIO_PinRemapConfig+0x11e>

0000059a <GPIO_IPD_Unused>:
     59a:	bd7ff2ef          	jal	t0,170 <__riscv_save_0>
     59e:	1141                	addi	sp,sp,-16
     5a0:	c202                	sw	zero,4(sp)
     5a2:	c402                	sw	zero,8(sp)
     5a4:	c602                	sw	zero,12(sp)
     5a6:	1ffff437          	lui	s0,0x1ffff
     5aa:	72442783          	lw	a5,1828(s0) # 1ffff724 <_data_lma+0x1fff6d30>
     5ae:	01979713          	slli	a4,a5,0x19
     5b2:	3e0006b7          	lui	a3,0x3e000
     5b6:	8f75                	and	a4,a4,a3
     5b8:	fff7c693          	not	a3,a5
     5bc:	00969613          	slli	a2,a3,0x9
     5c0:	010005b7          	lui	a1,0x1000
     5c4:	8e6d                	and	a2,a2,a1
     5c6:	8f51                	or	a4,a4,a2
     5c8:	0786                	slli	a5,a5,0x1
     5ca:	003e0637          	lui	a2,0x3e0
     5ce:	8ff1                	and	a5,a5,a2
     5d0:	82bd                	srli	a3,a3,0xf
     5d2:	6641                	lui	a2,0x10
     5d4:	8ef1                	and	a3,a3,a2
     5d6:	8fd5                	or	a5,a5,a3
     5d8:	8fd9                	or	a5,a5,a4
     5da:	82f1a223          	sw	a5,-2012(gp) # 20000214 <OPA_Trim>
     5de:	72845703          	lhu	a4,1832(s0)
     5e2:	80e19e23          	sh	a4,-2020(gp) # 2000020c <ADC_Trim>
     5e6:	72042703          	lw	a4,1824(s0)
     5ea:	82e1a423          	sw	a4,-2008(gp) # 20000218 <TS_Val>
     5ee:	70442703          	lw	a4,1796(s0)
     5f2:	82e1a023          	sw	a4,-2016(gp) # 20000210 <CHIPID>
     5f6:	4585                	li	a1,1
     5f8:	03d00513          	li	a0,61
     5fc:	2955                	jal	ab0 <RCC_PB2PeriphClockCmd>
     5fe:	70442783          	lw	a5,1796(s0)
     602:	f0f7f793          	andi	a5,a5,-241
     606:	103a0737          	lui	a4,0x103a0
     60a:	70070713          	addi	a4,a4,1792 # 103a0700 <_data_lma+0x10397d0c>
     60e:	12e78363          	beq	a5,a4,734 <GPIO_IPD_Unused+0x19a>
     612:	103a0737          	lui	a4,0x103a0
     616:	70070713          	addi	a4,a4,1792 # 103a0700 <_data_lma+0x10397d0c>
     61a:	06f77d63          	bgeu	a4,a5,694 <GPIO_IPD_Unused+0xfa>
     61e:	103b0737          	lui	a4,0x103b0
     622:	70070713          	addi	a4,a4,1792 # 103b0700 <_data_lma+0x103a7d0c>
     626:	0ae78c63          	beq	a5,a4,6de <GPIO_IPD_Unused+0x144>
     62a:	103d0737          	lui	a4,0x103d0
     62e:	70070713          	addi	a4,a4,1792 # 103d0700 <_data_lma+0x103c7d0c>
     632:	0ae79463          	bne	a5,a4,6da <GPIO_IPD_Unused+0x140>
     636:	4585                	li	a1,1
     638:	6521                	lui	a0,0x8
     63a:	3d09                	jal	44c <GPIO_PinRemapConfig>
     63c:	77e1                	lui	a5,0xffff8
     63e:	827c                	0x827c
     640:	04800493          	li	s1,72
     644:	c626                	sw	s1,12(sp)
     646:	004c                	addi	a1,sp,4
     648:	40011437          	lui	s0,0x40011
     64c:	80040513          	addi	a0,s0,-2048 # 40010800 <_eusrstack+0x2000b800>
     650:	3335                	jal	37c <GPIO_Init>
     652:	6785                	lui	a5,0x1
     654:	33878793          	addi	a5,a5,824 # 1338 <__muldf3+0xe8>
     658:	827c                	0x827c
     65a:	c626                	sw	s1,12(sp)
     65c:	004c                	addi	a1,sp,4
     65e:	c0040513          	addi	a0,s0,-1024
     662:	3b29                	jal	37c <GPIO_Init>
     664:	4791                	li	a5,4
     666:	827c                	0x827c
     668:	02800793          	li	a5,40
     66c:	c63e                	sw	a5,12(sp)
     66e:	004c                	addi	a1,sp,4
     670:	c0040513          	addi	a0,s0,-1024
     674:	3321                	jal	37c <GPIO_Init>
     676:	77f9                	lui	a5,0xffffe
     678:	827c                	0x827c
     67a:	c626                	sw	s1,12(sp)
     67c:	004c                	addi	a1,sp,4
     67e:	40011537          	lui	a0,0x40011
     682:	39ed                	jal	37c <GPIO_Init>
     684:	478d                	li	a5,3
     686:	827c                	0x827c
     688:	c626                	sw	s1,12(sp)
     68a:	004c                	addi	a1,sp,4
     68c:	40040513          	addi	a0,s0,1024
     690:	31f5                	jal	37c <GPIO_Init>
     692:	a0a1                	j	6da <GPIO_IPD_Unused+0x140>
     694:	10320737          	lui	a4,0x10320
     698:	70070713          	addi	a4,a4,1792 # 10320700 <_data_lma+0x10317d0c>
     69c:	02e79f63          	bne	a5,a4,6da <GPIO_IPD_Unused+0x140>
     6a0:	4585                	li	a1,1
     6a2:	6521                	lui	a0,0x8
     6a4:	3365                	jal	44c <GPIO_PinRemapConfig>
     6a6:	e0000793          	li	a5,-512
     6aa:	827c                	0x827c
     6ac:	04800413          	li	s0,72
     6b0:	c622                	sw	s0,12(sp)
     6b2:	004c                	addi	a1,sp,4
     6b4:	400114b7          	lui	s1,0x40011
     6b8:	c0048513          	addi	a0,s1,-1024 # 40010c00 <_eusrstack+0x2000bc00>
     6bc:	31c1                	jal	37c <GPIO_Init>
     6be:	6789                	lui	a5,0x2
     6c0:	827c                	0x827c
     6c2:	c622                	sw	s0,12(sp)
     6c4:	004c                	addi	a1,sp,4
     6c6:	40011537          	lui	a0,0x40011
     6ca:	394d                	jal	37c <GPIO_Init>
     6cc:	478d                	li	a5,3
     6ce:	827c                	0x827c
     6d0:	c622                	sw	s0,12(sp)
     6d2:	004c                	addi	a1,sp,4
     6d4:	40048513          	addi	a0,s1,1024
     6d8:	3155                	jal	37c <GPIO_Init>
     6da:	0141                	addi	sp,sp,16
     6dc:	bc65                	j	194 <__riscv_restore_0>
     6de:	77e1                	lui	a5,0xffff8
     6e0:	827c                	0x827c
     6e2:	04800493          	li	s1,72
     6e6:	c626                	sw	s1,12(sp)
     6e8:	004c                	addi	a1,sp,4
     6ea:	40011437          	lui	s0,0x40011
     6ee:	80040513          	addi	a0,s0,-2048 # 40010800 <_eusrstack+0x2000b800>
     6f2:	3169                	jal	37c <GPIO_Init>
     6f4:	20000793          	li	a5,512
     6f8:	827c                	0x827c
     6fa:	c626                	sw	s1,12(sp)
     6fc:	004c                	addi	a1,sp,4
     6fe:	c0040513          	addi	a0,s0,-1024
     702:	39ad                	jal	37c <GPIO_Init>
     704:	4791                	li	a5,4
     706:	827c                	0x827c
     708:	02800793          	li	a5,40
     70c:	c63e                	sw	a5,12(sp)
     70e:	004c                	addi	a1,sp,4
     710:	c0040513          	addi	a0,s0,-1024
     714:	31a5                	jal	37c <GPIO_Init>
     716:	77f9                	lui	a5,0xffffe
     718:	827c                	0x827c
     71a:	c626                	sw	s1,12(sp)
     71c:	004c                	addi	a1,sp,4
     71e:	40011537          	lui	a0,0x40011
     722:	39a9                	jal	37c <GPIO_Init>
     724:	478d                	li	a5,3
     726:	827c                	0x827c
     728:	c626                	sw	s1,12(sp)
     72a:	004c                	addi	a1,sp,4
     72c:	40040513          	addi	a0,s0,1024
     730:	31b1                	jal	37c <GPIO_Init>
     732:	b765                	j	6da <GPIO_IPD_Unused+0x140>
     734:	77e1                	lui	a5,0xffff8
     736:	827c                	0x827c
     738:	04800493          	li	s1,72
     73c:	c626                	sw	s1,12(sp)
     73e:	004c                	addi	a1,sp,4
     740:	40011437          	lui	s0,0x40011
     744:	80040513          	addi	a0,s0,-2048 # 40010800 <_eusrstack+0x2000b800>
     748:	3915                	jal	37c <GPIO_Init>
     74a:	6789                	lui	a5,0x2
     74c:	17e5                	addi	a5,a5,-7
     74e:	827c                	0x827c
     750:	c626                	sw	s1,12(sp)
     752:	004c                	addi	a1,sp,4
     754:	c0040513          	addi	a0,s0,-1024
     758:	3115                	jal	37c <GPIO_Init>
     75a:	4791                	li	a5,4
     75c:	827c                	0x827c
     75e:	02800793          	li	a5,40
     762:	c63e                	sw	a5,12(sp)
     764:	004c                	addi	a1,sp,4
     766:	c0040513          	addi	a0,s0,-1024
     76a:	3909                	jal	37c <GPIO_Init>
     76c:	77f9                	lui	a5,0xffffe
     76e:	827c                	0x827c
     770:	c626                	sw	s1,12(sp)
     772:	004c                	addi	a1,sp,4
     774:	40011537          	lui	a0,0x40011
     778:	3111                	jal	37c <GPIO_Init>
     77a:	478d                	li	a5,3
     77c:	827c                	0x827c
     77e:	c626                	sw	s1,12(sp)
     780:	004c                	addi	a1,sp,4
     782:	40040513          	addi	a0,s0,1024
     786:	3edd                	jal	37c <GPIO_Init>
     788:	bf89                	j	6da <GPIO_IPD_Unused+0x140>

0000078a <I2C_Init>:
     78a:	9e7ff2ef          	jal	t0,170 <__riscv_save_0>
     78e:	1101                	addi	sp,sp,-32
     790:	842a                	mv	s0,a0
     792:	892e                	mv	s2,a1
     794:	2146                	fld	ft2,80(sp)
     796:	04c2                	slli	s1,s1,0x10
     798:	80c1                	srli	s1,s1,0x10
     79a:	fc04f493          	andi	s1,s1,-64
     79e:	04c2                	slli	s1,s1,0x10
     7a0:	80c1                	srli	s1,s1,0x10
     7a2:	0068                	addi	a0,sp,12
     7a4:	2af9                	jal	982 <RCC_GetClocksFreq>
     7a6:	4752                	lw	a4,20(sp)
     7a8:	000f47b7          	lui	a5,0xf4
     7ac:	24078793          	addi	a5,a5,576 # f4240 <_data_lma+0xeb84c>
     7b0:	02f757b3          	divu	a5,a4,a5
     7b4:	07c2                	slli	a5,a5,0x10
     7b6:	83c1                	srli	a5,a5,0x10
     7b8:	03c00693          	li	a3,60
     7bc:	00f6f463          	bgeu	a3,a5,7c4 <I2C_Init+0x3a>
     7c0:	03c00793          	li	a5,60
     7c4:	8cdd                	or	s1,s1,a5
     7c6:	a046                	fsd	fa7,0(sp)
     7c8:	2016                	fld	ft0,320(sp)
     7ca:	06c2                	slli	a3,a3,0x10
     7cc:	82c1                	srli	a3,a3,0x10
     7ce:	9af9                	andi	a3,a3,-2
     7d0:	06c2                	slli	a3,a3,0x10
     7d2:	82c1                	srli	a3,a3,0x10
     7d4:	a016                	fsd	ft5,0(sp)
     7d6:	00092683          	lw	a3,0(s2)
     7da:	6661                	lui	a2,0x18
     7dc:	6a060613          	addi	a2,a2,1696 # 186a0 <_data_lma+0xfcac>
     7e0:	04d66863          	bltu	a2,a3,830 <__stack_size+0x30>
     7e4:	0686                	slli	a3,a3,0x1
     7e6:	02d75733          	divu	a4,a4,a3
     7ea:	0742                	slli	a4,a4,0x10
     7ec:	8341                	srli	a4,a4,0x10
     7ee:	468d                	li	a3,3
     7f0:	00e6e363          	bltu	a3,a4,7f6 <I2C_Init+0x6c>
     7f4:	4711                	li	a4,4
     7f6:	0785                	addi	a5,a5,1
     7f8:	07c2                	slli	a5,a5,0x10
     7fa:	83c1                	srli	a5,a5,0x10
     7fc:	b01e                	fsd	ft7,32(sp)
     7fe:	ac5a                	fsd	fs6,24(sp)
     800:	201e                	fld	ft0,448(sp)
     802:	0017e793          	ori	a5,a5,1
     806:	a01e                	fsd	ft7,0(sp)
     808:	201e                	fld	ft0,448(sp)
     80a:	07c2                	slli	a5,a5,0x10
     80c:	83c1                	srli	a5,a5,0x10
     80e:	bf57f793          	andi	a5,a5,-1035
     812:	00495703          	lhu	a4,4(s2)
     816:	00a95683          	lhu	a3,10(s2)
     81a:	8f55                	or	a4,a4,a3
     81c:	8fd9                	or	a5,a5,a4
     81e:	a01e                	fsd	ft7,0(sp)
     820:	00c95783          	lhu	a5,12(s2)
     824:	00895703          	lhu	a4,8(s2)
     828:	8fd9                	or	a5,a5,a4
     82a:	a41e                	fsd	ft7,8(sp)
     82c:	6105                	addi	sp,sp,32
     82e:	b29d                	j	194 <__riscv_restore_0>
     830:	00695583          	lhu	a1,6(s2)
     834:	6631                	lui	a2,0xc
     836:	167d                	addi	a2,a2,-1
     838:	04c58563          	beq	a1,a2,882 <__stack_size+0x82>
     83c:	00169593          	slli	a1,a3,0x1
     840:	95b6                	add	a1,a1,a3
     842:	00359613          	slli	a2,a1,0x3
     846:	96b2                	add	a3,a3,a2
     848:	02d75733          	divu	a4,a4,a3
     84c:	0742                	slli	a4,a4,0x10
     84e:	8341                	srli	a4,a4,0x10
     850:	6691                	lui	a3,0x4
     852:	8f55                	or	a4,a4,a3
     854:	6685                	lui	a3,0x1
     856:	16fd                	addi	a3,a3,-1
     858:	8ef9                	and	a3,a3,a4
     85a:	e299                	bnez	a3,860 <__stack_size+0x60>
     85c:	00176713          	ori	a4,a4,1
     860:	76e1                	lui	a3,0xffff8
     862:	8f55                	or	a4,a4,a3
     864:	0742                	slli	a4,a4,0x10
     866:	8341                	srli	a4,a4,0x10
     868:	12c00693          	li	a3,300
     86c:	02d787b3          	mul	a5,a5,a3
     870:	3e800693          	li	a3,1000
     874:	02d7c7b3          	div	a5,a5,a3
     878:	0785                	addi	a5,a5,1
     87a:	07c2                	slli	a5,a5,0x10
     87c:	83c1                	srli	a5,a5,0x10
     87e:	b01e                	fsd	ft7,32(sp)
     880:	bfbd                	j	7fe <I2C_Init+0x74>
     882:	00169613          	slli	a2,a3,0x1
     886:	96b2                	add	a3,a3,a2
     888:	02d75733          	divu	a4,a4,a3
     88c:	0742                	slli	a4,a4,0x10
     88e:	8341                	srli	a4,a4,0x10
     890:	b7d1                	j	854 <__stack_size+0x54>

00000892 <I2C_Cmd>:
     892:	c591                	beqz	a1,89e <I2C_Cmd+0xc>
     894:	211e                	fld	ft2,448(sp)
     896:	0017e793          	ori	a5,a5,1
     89a:	a11e                	fsd	ft7,128(sp)
     89c:	8082                	ret
     89e:	211e                	fld	ft2,448(sp)
     8a0:	07c2                	slli	a5,a5,0x10
     8a2:	83c1                	srli	a5,a5,0x10
     8a4:	9bf9                	andi	a5,a5,-2
     8a6:	07c2                	slli	a5,a5,0x10
     8a8:	83c1                	srli	a5,a5,0x10
     8aa:	a11e                	fsd	ft7,128(sp)
     8ac:	8082                	ret

000008ae <I2C_GenerateSTART>:
     8ae:	c591                	beqz	a1,8ba <I2C_GenerateSTART+0xc>
     8b0:	211e                	fld	ft2,448(sp)
     8b2:	1007e793          	ori	a5,a5,256
     8b6:	a11e                	fsd	ft7,128(sp)
     8b8:	8082                	ret
     8ba:	211e                	fld	ft2,448(sp)
     8bc:	07c2                	slli	a5,a5,0x10
     8be:	83c1                	srli	a5,a5,0x10
     8c0:	eff7f793          	andi	a5,a5,-257
     8c4:	07c2                	slli	a5,a5,0x10
     8c6:	83c1                	srli	a5,a5,0x10
     8c8:	a11e                	fsd	ft7,128(sp)
     8ca:	8082                	ret

000008cc <I2C_GenerateSTOP>:
     8cc:	c591                	beqz	a1,8d8 <I2C_GenerateSTOP+0xc>
     8ce:	211e                	fld	ft2,448(sp)
     8d0:	2007e793          	ori	a5,a5,512
     8d4:	a11e                	fsd	ft7,128(sp)
     8d6:	8082                	ret
     8d8:	211e                	fld	ft2,448(sp)
     8da:	07c2                	slli	a5,a5,0x10
     8dc:	83c1                	srli	a5,a5,0x10
     8de:	dff7f793          	andi	a5,a5,-513
     8e2:	07c2                	slli	a5,a5,0x10
     8e4:	83c1                	srli	a5,a5,0x10
     8e6:	a11e                	fsd	ft7,128(sp)
     8e8:	8082                	ret

000008ea <I2C_AcknowledgeConfig>:
     8ea:	c591                	beqz	a1,8f6 <I2C_AcknowledgeConfig+0xc>
     8ec:	211e                	fld	ft2,448(sp)
     8ee:	4007e793          	ori	a5,a5,1024
     8f2:	a11e                	fsd	ft7,128(sp)
     8f4:	8082                	ret
     8f6:	211e                	fld	ft2,448(sp)
     8f8:	07c2                	slli	a5,a5,0x10
     8fa:	83c1                	srli	a5,a5,0x10
     8fc:	bff7f793          	andi	a5,a5,-1025
     900:	07c2                	slli	a5,a5,0x10
     902:	83c1                	srli	a5,a5,0x10
     904:	a11e                	fsd	ft7,128(sp)
     906:	8082                	ret

00000908 <I2C_SendData>:
     908:	a90e                	fsd	ft3,144(sp)
     90a:	8082                	ret

0000090c <I2C_ReceiveData>:
     90c:	290a                	fld	fs2,128(sp)
     90e:	0ff57513          	andi	a0,a0,255
     912:	8082                	ret

00000914 <I2C_Send7bitAddress>:
     914:	c619                	beqz	a2,922 <I2C_Send7bitAddress+0xe>
     916:	0015e593          	ori	a1,a1,1
     91a:	05c2                	slli	a1,a1,0x10
     91c:	81c1                	srli	a1,a1,0x10
     91e:	a90e                	fsd	ft3,144(sp)
     920:	8082                	ret
     922:	0fe5f593          	andi	a1,a1,254
     926:	bfd5                	j	91a <I2C_Send7bitAddress+0x6>

00000928 <I2C_CheckEvent>:
     928:	295a                	fld	fs2,400(sp)
     92a:	2d1e                	fld	fs10,448(sp)
     92c:	07c2                	slli	a5,a5,0x10
     92e:	8fd9                	or	a5,a5,a4
     930:	01000737          	lui	a4,0x1000
     934:	177d                	addi	a4,a4,-1
     936:	8ff9                	and	a5,a5,a4
     938:	8fed                	and	a5,a5,a1
     93a:	00b78463          	beq	a5,a1,942 <I2C_CheckEvent+0x1a>
     93e:	4501                	li	a0,0
     940:	8082                	ret
     942:	4505                	li	a0,1
     944:	8082                	ret

00000946 <I2C_GetFlagStatus>:
     946:	1141                	addi	sp,sp,-16
     948:	c602                	sw	zero,12(sp)
     94a:	c402                	sw	zero,8(sp)
     94c:	c42a                	sw	a0,8(sp)
     94e:	01c5d793          	srli	a5,a1,0x1c
     952:	c63e                	sw	a5,12(sp)
     954:	010007b7          	lui	a5,0x1000
     958:	17fd                	addi	a5,a5,-1
     95a:	8dfd                	and	a1,a1,a5
     95c:	47b2                	lw	a5,12(sp)
     95e:	cb99                	beqz	a5,974 <I2C_GetFlagStatus+0x2e>
     960:	47a2                	lw	a5,8(sp)
     962:	07d1                	addi	a5,a5,20
     964:	c43e                	sw	a5,8(sp)
     966:	47a2                	lw	a5,8(sp)
     968:	439c                	lw	a5,0(a5)
     96a:	8dfd                	and	a1,a1,a5
     96c:	c989                	beqz	a1,97e <I2C_GetFlagStatus+0x38>
     96e:	4505                	li	a0,1
     970:	0141                	addi	sp,sp,16
     972:	8082                	ret
     974:	81c1                	srli	a1,a1,0x10
     976:	47a2                	lw	a5,8(sp)
     978:	07e1                	addi	a5,a5,24
     97a:	c43e                	sw	a5,8(sp)
     97c:	b7ed                	j	966 <I2C_GetFlagStatus+0x20>
     97e:	4501                	li	a0,0
     980:	bfc5                	j	970 <I2C_GetFlagStatus+0x2a>

00000982 <RCC_GetClocksFreq>:
     982:	400217b7          	lui	a5,0x40021
     986:	43dc                	lw	a5,4(a5)
     988:	8bb1                	andi	a5,a5,12
     98a:	4711                	li	a4,4
     98c:	02e78d63          	beq	a5,a4,9c6 <RCC_GetClocksFreq+0x44>
     990:	4721                	li	a4,8
     992:	0ae78163          	beq	a5,a4,a34 <RCC_GetClocksFreq+0xb2>
     996:	c799                	beqz	a5,9a4 <RCC_GetClocksFreq+0x22>
     998:	007a17b7          	lui	a5,0x7a1
     99c:	20078793          	addi	a5,a5,512 # 7a1200 <_data_lma+0x79880c>
     9a0:	c11c                	sw	a5,0(a0)
     9a2:	a03d                	j	9d0 <RCC_GetClocksFreq+0x4e>
     9a4:	400217b7          	lui	a5,0x40021
     9a8:	439c                	lw	a5,0(a5)
     9aa:	8b91                	andi	a5,a5,4
     9ac:	c799                	beqz	a5,9ba <RCC_GetClocksFreq+0x38>
     9ae:	000f47b7          	lui	a5,0xf4
     9b2:	24078793          	addi	a5,a5,576 # f4240 <_data_lma+0xeb84c>
     9b6:	c11c                	sw	a5,0(a0)
     9b8:	a821                	j	9d0 <RCC_GetClocksFreq+0x4e>
     9ba:	007a17b7          	lui	a5,0x7a1
     9be:	20078793          	addi	a5,a5,512 # 7a1200 <_data_lma+0x79880c>
     9c2:	c11c                	sw	a5,0(a0)
     9c4:	a031                	j	9d0 <RCC_GetClocksFreq+0x4e>
     9c6:	007a17b7          	lui	a5,0x7a1
     9ca:	20078793          	addi	a5,a5,512 # 7a1200 <_data_lma+0x79880c>
     9ce:	c11c                	sw	a5,0(a0)
     9d0:	40021637          	lui	a2,0x40021
     9d4:	4258                	lw	a4,4(a2)
     9d6:	8311                	srli	a4,a4,0x4
     9d8:	8b3d                	andi	a4,a4,15
     9da:	200007b7          	lui	a5,0x20000
     9de:	00078793          	mv	a5,a5
     9e2:	973e                	add	a4,a4,a5
     9e4:	2318                	fld	fa4,0(a4)
     9e6:	4114                	lw	a3,0(a0)
     9e8:	00e6d6b3          	srl	a3,a3,a4
     9ec:	c154                	sw	a3,4(a0)
     9ee:	4258                	lw	a4,4(a2)
     9f0:	8321                	srli	a4,a4,0x8
     9f2:	8b1d                	andi	a4,a4,7
     9f4:	973e                	add	a4,a4,a5
     9f6:	2318                	fld	fa4,0(a4)
     9f8:	00e6d733          	srl	a4,a3,a4
     9fc:	c518                	sw	a4,8(a0)
     9fe:	4258                	lw	a4,4(a2)
     a00:	832d                	srli	a4,a4,0xb
     a02:	8b1d                	andi	a4,a4,7
     a04:	97ba                	add	a5,a5,a4
     a06:	239c                	fld	fa5,0(a5)
     a08:	00f6d7b3          	srl	a5,a3,a5
     a0c:	c55c                	sw	a5,12(a0)
     a0e:	4258                	lw	a4,4(a2)
     a10:	08074e63          	bltz	a4,aac <RCC_GetClocksFreq+0x12a>
     a14:	40021737          	lui	a4,0x40021
     a18:	4358                	lw	a4,4(a4)
     a1a:	8339                	srli	a4,a4,0xe
     a1c:	00377693          	andi	a3,a4,3
     a20:	80418713          	addi	a4,gp,-2044 # 200001f4 <ADCPrescTable>
     a24:	9736                	add	a4,a4,a3
     a26:	2318                	fld	fa4,0(a4)
     a28:	0ff77713          	andi	a4,a4,255
     a2c:	02e7d7b3          	divu	a5,a5,a4
     a30:	c91c                	sw	a5,16(a0)
     a32:	8082                	ret
     a34:	40021737          	lui	a4,0x40021
     a38:	435c                	lw	a5,4(a4)
     a3a:	4358                	lw	a4,4(a4)
     a3c:	66c1                	lui	a3,0x10
     a3e:	8f75                	and	a4,a4,a3
     a40:	83c9                	srli	a5,a5,0x12
     a42:	8bbd                	andi	a5,a5,15
     a44:	0789                	addi	a5,a5,2
     a46:	46c5                	li	a3,17
     a48:	02d78163          	beq	a5,a3,a6a <RCC_GetClocksFreq+0xe8>
     a4c:	eb0d                	bnez	a4,a7e <RCC_GetClocksFreq+0xfc>
     a4e:	40024737          	lui	a4,0x40024
     a52:	80072703          	lw	a4,-2048(a4) # 40023800 <_eusrstack+0x2001e800>
     a56:	8b41                	andi	a4,a4,16
     a58:	cb19                	beqz	a4,a6e <RCC_GetClocksFreq+0xec>
     a5a:	007a1737          	lui	a4,0x7a1
     a5e:	20070713          	addi	a4,a4,512 # 7a1200 <_data_lma+0x79880c>
     a62:	02e787b3          	mul	a5,a5,a4
     a66:	c11c                	sw	a5,0(a0)
     a68:	b7a5                	j	9d0 <RCC_GetClocksFreq+0x4e>
     a6a:	47c9                	li	a5,18
     a6c:	b7c5                	j	a4c <RCC_GetClocksFreq+0xca>
     a6e:	003d1737          	lui	a4,0x3d1
     a72:	90070713          	addi	a4,a4,-1792 # 3d0900 <_data_lma+0x3c7f0c>
     a76:	02e787b3          	mul	a5,a5,a4
     a7a:	c11c                	sw	a5,0(a0)
     a7c:	bf91                	j	9d0 <RCC_GetClocksFreq+0x4e>
     a7e:	40021737          	lui	a4,0x40021
     a82:	4358                	lw	a4,4(a4)
     a84:	00e71693          	slli	a3,a4,0xe
     a88:	0006da63          	bgez	a3,a9c <RCC_GetClocksFreq+0x11a>
     a8c:	003d1737          	lui	a4,0x3d1
     a90:	90070713          	addi	a4,a4,-1792 # 3d0900 <_data_lma+0x3c7f0c>
     a94:	02e787b3          	mul	a5,a5,a4
     a98:	c11c                	sw	a5,0(a0)
     a9a:	bf1d                	j	9d0 <RCC_GetClocksFreq+0x4e>
     a9c:	007a1737          	lui	a4,0x7a1
     aa0:	20070713          	addi	a4,a4,512 # 7a1200 <_data_lma+0x79880c>
     aa4:	02e787b3          	mul	a5,a5,a4
     aa8:	c11c                	sw	a5,0(a0)
     aaa:	b71d                	j	9d0 <RCC_GetClocksFreq+0x4e>
     aac:	c914                	sw	a3,16(a0)
     aae:	8082                	ret

00000ab0 <RCC_PB2PeriphClockCmd>:
     ab0:	c599                	beqz	a1,abe <RCC_PB2PeriphClockCmd+0xe>
     ab2:	40021737          	lui	a4,0x40021
     ab6:	4f1c                	lw	a5,24(a4)
     ab8:	8d5d                	or	a0,a0,a5
     aba:	cf08                	sw	a0,24(a4)
     abc:	8082                	ret
     abe:	40021737          	lui	a4,0x40021
     ac2:	4f1c                	lw	a5,24(a4)
     ac4:	fff54513          	not	a0,a0
     ac8:	8d7d                	and	a0,a0,a5
     aca:	cf08                	sw	a0,24(a4)
     acc:	8082                	ret

00000ace <RCC_PB1PeriphClockCmd>:
     ace:	c599                	beqz	a1,adc <RCC_PB1PeriphClockCmd+0xe>
     ad0:	40021737          	lui	a4,0x40021
     ad4:	4f5c                	lw	a5,28(a4)
     ad6:	8d5d                	or	a0,a0,a5
     ad8:	cf48                	sw	a0,28(a4)
     ada:	8082                	ret
     adc:	40021737          	lui	a4,0x40021
     ae0:	4f5c                	lw	a5,28(a4)
     ae2:	fff54513          	not	a0,a0
     ae6:	8d7d                	and	a0,a0,a5
     ae8:	cf48                	sw	a0,28(a4)
     aea:	8082                	ret

00000aec <USART_Init>:
     aec:	e84ff2ef          	jal	t0,170 <__riscv_save_0>
     af0:	1101                	addi	sp,sp,-32
     af2:	842a                	mv	s0,a0
     af4:	84ae                	mv	s1,a1
     af6:	2916                	fld	fs2,320(sp)
     af8:	21fa                	fld	ft3,408(sp)
     afa:	77f5                	lui	a5,0xffffd
     afc:	17fd                	addi	a5,a5,-1
     afe:	8ff5                	and	a5,a5,a3
     b00:	8fd9                	or	a5,a5,a4
     b02:	a91e                	fsd	ft7,144(sp)
     b04:	2552                	fld	fa0,272(sp)
     b06:	21d6                	fld	ft3,336(sp)
     b08:	259a                	fld	fa1,384(sp)
     b0a:	25be                	fld	fa1,456(sp)
     b0c:	8ed9                	or	a3,a3,a4
     b0e:	8fd5                	or	a5,a5,a3
     b10:	777d                	lui	a4,0xfffff
     b12:	9f370713          	addi	a4,a4,-1549 # ffffe9f3 <_eusrstack+0xdfff99f3>
     b16:	8f71                	and	a4,a4,a2
     b18:	8fd9                	or	a5,a5,a4
     b1a:	a55e                	fsd	fs7,136(sp)
     b1c:	295e                	fld	fs2,464(sp)
     b1e:	07c2                	slli	a5,a5,0x10
     b20:	83c1                	srli	a5,a5,0x10
     b22:	25da                	fld	fa1,400(sp)
     b24:	cff7f793          	andi	a5,a5,-769
     b28:	8fd9                	or	a5,a5,a4
     b2a:	a95e                	fsd	fs7,144(sp)
     b2c:	0068                	addi	a0,sp,12
     b2e:	3d91                	jal	982 <RCC_GetClocksFreq>
     b30:	400147b7          	lui	a5,0x40014
     b34:	80078793          	addi	a5,a5,-2048 # 40013800 <_eusrstack+0x2000e800>
     b38:	06f40363          	beq	s0,a5,b9e <USART_Init+0xb2>
     b3c:	46d2                	lw	a3,20(sp)
     b3e:	245e                	fld	fs0,464(sp)
     b40:	07c2                	slli	a5,a5,0x10
     b42:	87c1                	srai	a5,a5,0x10
     b44:	0407cf63          	bltz	a5,ba2 <USART_Init+0xb6>
     b48:	00169713          	slli	a4,a3,0x1
     b4c:	9736                	add	a4,a4,a3
     b4e:	00371793          	slli	a5,a4,0x3
     b52:	97b6                	add	a5,a5,a3
     b54:	4098                	lw	a4,0(s1)
     b56:	070a                	slli	a4,a4,0x2
     b58:	02e7d7b3          	divu	a5,a5,a4
     b5c:	06400593          	li	a1,100
     b60:	02b7d6b3          	divu	a3,a5,a1
     b64:	00469613          	slli	a2,a3,0x4
     b68:	10000737          	lui	a4,0x10000
     b6c:	177d                	addi	a4,a4,-1
     b6e:	8ef9                	and	a3,a3,a4
     b70:	02b686b3          	mul	a3,a3,a1
     b74:	8f95                	sub	a5,a5,a3
     b76:	245a                	fld	fs0,400(sp)
     b78:	0742                	slli	a4,a4,0x10
     b7a:	8741                	srai	a4,a4,0x10
     b7c:	02074f63          	bltz	a4,bba <USART_Init+0xce>
     b80:	0792                	slli	a5,a5,0x4
     b82:	03278793          	addi	a5,a5,50
     b86:	06400713          	li	a4,100
     b8a:	02e7d7b3          	divu	a5,a5,a4
     b8e:	8bbd                	andi	a5,a5,15
     b90:	8fd1                	or	a5,a5,a2
     b92:	07c2                	slli	a5,a5,0x10
     b94:	83c1                	srli	a5,a5,0x10
     b96:	a41e                	fsd	ft7,8(sp)
     b98:	6105                	addi	sp,sp,32
     b9a:	dfaff06f          	j	194 <__riscv_restore_0>
     b9e:	46e2                	lw	a3,24(sp)
     ba0:	bf79                	j	b3e <USART_Init+0x52>
     ba2:	00169793          	slli	a5,a3,0x1
     ba6:	97b6                	add	a5,a5,a3
     ba8:	00379713          	slli	a4,a5,0x3
     bac:	00d707b3          	add	a5,a4,a3
     bb0:	4098                	lw	a4,0(s1)
     bb2:	0706                	slli	a4,a4,0x1
     bb4:	02e7d7b3          	divu	a5,a5,a4
     bb8:	b755                	j	b5c <USART_Init+0x70>
     bba:	00379713          	slli	a4,a5,0x3
     bbe:	03270713          	addi	a4,a4,50 # 10000032 <_data_lma+0xfff763e>
     bc2:	06400793          	li	a5,100
     bc6:	02f75733          	divu	a4,a4,a5
     bca:	8b1d                	andi	a4,a4,7
     bcc:	00c767b3          	or	a5,a4,a2
     bd0:	b7c9                	j	b92 <USART_Init+0xa6>

00000bd2 <USART_Cmd>:
     bd2:	c591                	beqz	a1,bde <USART_Cmd+0xc>
     bd4:	255e                	fld	fa0,464(sp)
     bd6:	6709                	lui	a4,0x2
     bd8:	8fd9                	or	a5,a5,a4
     bda:	a55e                	fsd	fs7,136(sp)
     bdc:	8082                	ret
     bde:	255a                	fld	fa0,400(sp)
     be0:	77f9                	lui	a5,0xffffe
     be2:	17fd                	addi	a5,a5,-1
     be4:	8ff9                	and	a5,a5,a4
     be6:	a55e                	fsd	fs7,136(sp)
     be8:	8082                	ret

00000bea <USART_SendData>:
     bea:	1ff5f593          	andi	a1,a1,511
     bee:	a14e                	fsd	fs3,128(sp)
     bf0:	8082                	ret

00000bf2 <USART_GetFlagStatus>:
     bf2:	211e                	fld	ft2,448(sp)
     bf4:	8dfd                	and	a1,a1,a5
     bf6:	c199                	beqz	a1,bfc <USART_GetFlagStatus+0xa>
     bf8:	4505                	li	a0,1
     bfa:	8082                	ret
     bfc:	4501                	li	a0,0
     bfe:	8082                	ret

00000c00 <ADC_IRQHandler>:
     c00:	a001                	j	c00 <ADC_IRQHandler>

00000c02 <handle_reset>:
     c02:	20000197          	auipc	gp,0x20000
     c06:	dee18193          	addi	gp,gp,-530 # 200009f0 <__global_pointer$>
     c0a:	20004117          	auipc	sp,0x20004
     c0e:	3f610113          	addi	sp,sp,1014 # 20005000 <_eusrstack>
     c12:	00008517          	auipc	a0,0x8
     c16:	de250513          	addi	a0,a0,-542 # 89f4 <_data_lma>
     c1a:	1ffff597          	auipc	a1,0x1ffff
     c1e:	3e658593          	addi	a1,a1,998 # 20000000 <_data_vma>
     c22:	81818613          	addi	a2,gp,-2024 # 20000208 <_edata>
     c26:	00c5fa63          	bgeu	a1,a2,c3a <handle_reset+0x38>
     c2a:	00052283          	lw	t0,0(a0)
     c2e:	0055a023          	sw	t0,0(a1)
     c32:	0511                	addi	a0,a0,4
     c34:	0591                	addi	a1,a1,4
     c36:	fec5eae3          	bltu	a1,a2,c2a <handle_reset+0x28>
     c3a:	81818513          	addi	a0,gp,-2024 # 20000208 <_edata>
     c3e:	83818593          	addi	a1,gp,-1992 # 20000228 <_ebss>
     c42:	00b57763          	bgeu	a0,a1,c50 <handle_reset+0x4e>
     c46:	00052023          	sw	zero,0(a0)
     c4a:	0511                	addi	a0,a0,4
     c4c:	feb56de3          	bltu	a0,a1,c46 <handle_reset+0x44>
     c50:	42fd                	li	t0,31
     c52:	bc029073          	csrw	0xbc0,t0
     c56:	428d                	li	t0,3
     c58:	80429073          	csrw	0x804,t0
     c5c:	08800293          	li	t0,136
     c60:	30029073          	csrw	mstatus,t0
     c64:	fffff297          	auipc	t0,0xfffff
     c68:	3a028293          	addi	t0,t0,928 # 4 <_einit>
     c6c:	0032e293          	ori	t0,t0,3
     c70:	30529073          	csrw	mtvec,t0
     c74:	496000ef          	jal	ra,110a <SystemInit>
     c78:	00000297          	auipc	t0,0x0
     c7c:	30828293          	addi	t0,t0,776 # f80 <main>
     c80:	34129073          	csrw	mepc,t0
     c84:	30200073          	mret

00000c88 <NMI_Handler>:
     c88:	a001                	j	c88 <NMI_Handler>

00000c8a <HardFault_Handler>:
     c8a:	a001                	j	c8a <HardFault_Handler>

00000c8c <INA226_Read2Byte>:
     c8c:	ce4ff2ef          	jal	t0,170 <__riscv_save_0>
     c90:	842a                	mv	s0,a0
     c92:	000205b7          	lui	a1,0x20
     c96:	40006537          	lui	a0,0x40006
     c9a:	80050513          	addi	a0,a0,-2048 # 40005800 <_eusrstack+0x20000800>
     c9e:	3165                	jal	946 <I2C_GetFlagStatus>
     ca0:	f96d                	bnez	a0,c92 <INA226_Read2Byte+0x6>
     ca2:	4585                	li	a1,1
     ca4:	40006537          	lui	a0,0x40006
     ca8:	80050513          	addi	a0,a0,-2048 # 40005800 <_eusrstack+0x20000800>
     cac:	3109                	jal	8ae <I2C_GenerateSTART>
     cae:	000305b7          	lui	a1,0x30
     cb2:	0585                	addi	a1,a1,1
     cb4:	40006537          	lui	a0,0x40006
     cb8:	80050513          	addi	a0,a0,-2048 # 40005800 <_eusrstack+0x20000800>
     cbc:	31b5                	jal	928 <I2C_CheckEvent>
     cbe:	d965                	beqz	a0,cae <INA226_Read2Byte+0x22>
     cc0:	4601                	li	a2,0
     cc2:	08200593          	li	a1,130
     cc6:	40006537          	lui	a0,0x40006
     cca:	80050513          	addi	a0,a0,-2048 # 40005800 <_eusrstack+0x20000800>
     cce:	3199                	jal	914 <I2C_Send7bitAddress>
     cd0:	4529                	li	a0,10
     cd2:	d92ff0ef          	jal	ra,264 <Delay_Ms>
     cd6:	000705b7          	lui	a1,0x70
     cda:	08258593          	addi	a1,a1,130 # 70082 <_data_lma+0x6768e>
     cde:	40006537          	lui	a0,0x40006
     ce2:	80050513          	addi	a0,a0,-2048 # 40005800 <_eusrstack+0x20000800>
     ce6:	3189                	jal	928 <I2C_CheckEvent>
     ce8:	d57d                	beqz	a0,cd6 <INA226_Read2Byte+0x4a>
     cea:	85a2                	mv	a1,s0
     cec:	40006537          	lui	a0,0x40006
     cf0:	80050513          	addi	a0,a0,-2048 # 40005800 <_eusrstack+0x20000800>
     cf4:	3911                	jal	908 <I2C_SendData>
     cf6:	4529                	li	a0,10
     cf8:	d6cff0ef          	jal	ra,264 <Delay_Ms>
     cfc:	000705b7          	lui	a1,0x70
     d00:	08458593          	addi	a1,a1,132 # 70084 <_data_lma+0x67690>
     d04:	40006537          	lui	a0,0x40006
     d08:	80050513          	addi	a0,a0,-2048 # 40005800 <_eusrstack+0x20000800>
     d0c:	3931                	jal	928 <I2C_CheckEvent>
     d0e:	d57d                	beqz	a0,cfc <INA226_Read2Byte+0x70>
     d10:	4585                	li	a1,1
     d12:	40006537          	lui	a0,0x40006
     d16:	80050513          	addi	a0,a0,-2048 # 40005800 <_eusrstack+0x20000800>
     d1a:	3e51                	jal	8ae <I2C_GenerateSTART>
     d1c:	000305b7          	lui	a1,0x30
     d20:	0585                	addi	a1,a1,1
     d22:	40006537          	lui	a0,0x40006
     d26:	80050513          	addi	a0,a0,-2048 # 40005800 <_eusrstack+0x20000800>
     d2a:	3efd                	jal	928 <I2C_CheckEvent>
     d2c:	d965                	beqz	a0,d1c <INA226_Read2Byte+0x90>
     d2e:	4605                	li	a2,1
     d30:	08200593          	li	a1,130
     d34:	40006537          	lui	a0,0x40006
     d38:	80050513          	addi	a0,a0,-2048 # 40005800 <_eusrstack+0x20000800>
     d3c:	3ee1                	jal	914 <I2C_Send7bitAddress>
     d3e:	000305b7          	lui	a1,0x30
     d42:	0589                	addi	a1,a1,2
     d44:	40006537          	lui	a0,0x40006
     d48:	80050513          	addi	a0,a0,-2048 # 40005800 <_eusrstack+0x20000800>
     d4c:	3ef1                	jal	928 <I2C_CheckEvent>
     d4e:	d965                	beqz	a0,d3e <INA226_Read2Byte+0xb2>
     d50:	100005b7          	lui	a1,0x10000
     d54:	04058593          	addi	a1,a1,64 # 10000040 <_data_lma+0xfff764c>
     d58:	40006537          	lui	a0,0x40006
     d5c:	80050513          	addi	a0,a0,-2048 # 40005800 <_eusrstack+0x20000800>
     d60:	36dd                	jal	946 <I2C_GetFlagStatus>
     d62:	d57d                	beqz	a0,d50 <INA226_Read2Byte+0xc4>
     d64:	40006537          	lui	a0,0x40006
     d68:	80050513          	addi	a0,a0,-2048 # 40005800 <_eusrstack+0x20000800>
     d6c:	3645                	jal	90c <I2C_ReceiveData>
     d6e:	84aa                	mv	s1,a0
     d70:	000305b7          	lui	a1,0x30
     d74:	04058593          	addi	a1,a1,64 # 30040 <_data_lma+0x2764c>
     d78:	40006537          	lui	a0,0x40006
     d7c:	80050513          	addi	a0,a0,-2048 # 40005800 <_eusrstack+0x20000800>
     d80:	3665                	jal	928 <I2C_CheckEvent>
     d82:	d57d                	beqz	a0,d70 <INA226_Read2Byte+0xe4>
     d84:	40006937          	lui	s2,0x40006
     d88:	80090513          	addi	a0,s2,-2048 # 40005800 <_eusrstack+0x20000800>
     d8c:	3641                	jal	90c <I2C_ReceiveData>
     d8e:	842a                	mv	s0,a0
     d90:	4585                	li	a1,1
     d92:	80090513          	addi	a0,s2,-2048
     d96:	3e91                	jal	8ea <I2C_AcknowledgeConfig>
     d98:	4585                	li	a1,1
     d9a:	80090513          	addi	a0,s2,-2048
     d9e:	363d                	jal	8cc <I2C_GenerateSTOP>
     da0:	00849513          	slli	a0,s1,0x8
     da4:	0442                	slli	s0,s0,0x10
     da6:	8441                	srai	s0,s0,0x10
     da8:	8d41                	or	a0,a0,s0
     daa:	0542                	slli	a0,a0,0x10
     dac:	8141                	srli	a0,a0,0x10
     dae:	be6ff06f          	j	194 <__riscv_restore_0>

00000db2 <INA226_Write2Byte>:
     db2:	bbeff2ef          	jal	t0,170 <__riscv_save_0>
     db6:	892a                	mv	s2,a0
     db8:	0085d493          	srli	s1,a1,0x8
     dbc:	0ff5f413          	andi	s0,a1,255
     dc0:	4529                	li	a0,10
     dc2:	ca2ff0ef          	jal	ra,264 <Delay_Ms>
     dc6:	000205b7          	lui	a1,0x20
     dca:	40006537          	lui	a0,0x40006
     dce:	80050513          	addi	a0,a0,-2048 # 40005800 <_eusrstack+0x20000800>
     dd2:	3e95                	jal	946 <I2C_GetFlagStatus>
     dd4:	f96d                	bnez	a0,dc6 <INA226_Write2Byte+0x14>
     dd6:	4585                	li	a1,1
     dd8:	40006537          	lui	a0,0x40006
     ddc:	80050513          	addi	a0,a0,-2048 # 40005800 <_eusrstack+0x20000800>
     de0:	34f9                	jal	8ae <I2C_GenerateSTART>
     de2:	000305b7          	lui	a1,0x30
     de6:	0585                	addi	a1,a1,1
     de8:	40006537          	lui	a0,0x40006
     dec:	80050513          	addi	a0,a0,-2048 # 40005800 <_eusrstack+0x20000800>
     df0:	3e25                	jal	928 <I2C_CheckEvent>
     df2:	d965                	beqz	a0,de2 <INA226_Write2Byte+0x30>
     df4:	4601                	li	a2,0
     df6:	08200593          	li	a1,130
     dfa:	40006537          	lui	a0,0x40006
     dfe:	80050513          	addi	a0,a0,-2048 # 40005800 <_eusrstack+0x20000800>
     e02:	3e09                	jal	914 <I2C_Send7bitAddress>
     e04:	4551                	li	a0,20
     e06:	c5eff0ef          	jal	ra,264 <Delay_Ms>
     e0a:	000705b7          	lui	a1,0x70
     e0e:	08258593          	addi	a1,a1,130 # 70082 <_data_lma+0x6768e>
     e12:	40006537          	lui	a0,0x40006
     e16:	80050513          	addi	a0,a0,-2048 # 40005800 <_eusrstack+0x20000800>
     e1a:	3639                	jal	928 <I2C_CheckEvent>
     e1c:	d57d                	beqz	a0,e0a <INA226_Write2Byte+0x58>
     e1e:	85ca                	mv	a1,s2
     e20:	40006537          	lui	a0,0x40006
     e24:	80050513          	addi	a0,a0,-2048 # 40005800 <_eusrstack+0x20000800>
     e28:	34c5                	jal	908 <I2C_SendData>
     e2a:	000705b7          	lui	a1,0x70
     e2e:	08458593          	addi	a1,a1,132 # 70084 <_data_lma+0x67690>
     e32:	40006537          	lui	a0,0x40006
     e36:	80050513          	addi	a0,a0,-2048 # 40005800 <_eusrstack+0x20000800>
     e3a:	34fd                	jal	928 <I2C_CheckEvent>
     e3c:	d57d                	beqz	a0,e2a <INA226_Write2Byte+0x78>
     e3e:	100005b7          	lui	a1,0x10000
     e42:	08058593          	addi	a1,a1,128 # 10000080 <_data_lma+0xfff768c>
     e46:	40006537          	lui	a0,0x40006
     e4a:	80050513          	addi	a0,a0,-2048 # 40005800 <_eusrstack+0x20000800>
     e4e:	3ce5                	jal	946 <I2C_GetFlagStatus>
     e50:	e11d                	bnez	a0,e76 <INA226_Write2Byte+0xc4>
     e52:	000705b7          	lui	a1,0x70
     e56:	08458593          	addi	a1,a1,132 # 70084 <_data_lma+0x67690>
     e5a:	40006537          	lui	a0,0x40006
     e5e:	80050513          	addi	a0,a0,-2048 # 40005800 <_eusrstack+0x20000800>
     e62:	34d9                	jal	928 <I2C_CheckEvent>
     e64:	d57d                	beqz	a0,e52 <INA226_Write2Byte+0xa0>
     e66:	4585                	li	a1,1
     e68:	40006537          	lui	a0,0x40006
     e6c:	80050513          	addi	a0,a0,-2048 # 40005800 <_eusrstack+0x20000800>
     e70:	3cb1                	jal	8cc <I2C_GenerateSTOP>
     e72:	b22ff06f          	j	194 <__riscv_restore_0>
     e76:	85a6                	mv	a1,s1
     e78:	40006537          	lui	a0,0x40006
     e7c:	80050513          	addi	a0,a0,-2048 # 40005800 <_eusrstack+0x20000800>
     e80:	3461                	jal	908 <I2C_SendData>
     e82:	000705b7          	lui	a1,0x70
     e86:	08458593          	addi	a1,a1,132 # 70084 <_data_lma+0x67690>
     e8a:	40006537          	lui	a0,0x40006
     e8e:	80050513          	addi	a0,a0,-2048 # 40005800 <_eusrstack+0x20000800>
     e92:	3c59                	jal	928 <I2C_CheckEvent>
     e94:	d57d                	beqz	a0,e82 <INA226_Write2Byte+0xd0>
     e96:	85a2                	mv	a1,s0
     e98:	40006537          	lui	a0,0x40006
     e9c:	80050513          	addi	a0,a0,-2048 # 40005800 <_eusrstack+0x20000800>
     ea0:	34a5                	jal	908 <I2C_SendData>
     ea2:	bf45                	j	e52 <INA226_Write2Byte+0xa0>

00000ea4 <IIC_Init>:
     ea4:	ab2ff2ef          	jal	t0,156 <__riscv_save_4>
     ea8:	1101                	addi	sp,sp,-32
     eaa:	8aaa                	mv	s5,a0
     eac:	8a2e                	mv	s4,a1
     eae:	ca02                	sw	zero,20(sp)
     eb0:	cc02                	sw	zero,24(sp)
     eb2:	ce02                	sw	zero,28(sp)
     eb4:	c202                	sw	zero,4(sp)
     eb6:	c402                	sw	zero,8(sp)
     eb8:	c602                	sw	zero,12(sp)
     eba:	c802                	sw	zero,16(sp)
     ebc:	4585                	li	a1,1
     ebe:	4521                	li	a0,8
     ec0:	3ec5                	jal	ab0 <RCC_PB2PeriphClockCmd>
     ec2:	4585                	li	a1,1
     ec4:	00400537          	lui	a0,0x400
     ec8:	3119                	jal	ace <RCC_PB1PeriphClockCmd>
     eca:	40000413          	li	s0,1024
     ece:	82e0                	0x82e0
     ed0:	49f1                	li	s3,28
     ed2:	ce4e                	sw	s3,28(sp)
     ed4:	490d                	li	s2,3
     ed6:	cc4a                	sw	s2,24(sp)
     ed8:	084c                	addi	a1,sp,20
     eda:	400114b7          	lui	s1,0x40011
     ede:	c0048513          	addi	a0,s1,-1024 # 40010c00 <_eusrstack+0x2000bc00>
     ee2:	c9aff0ef          	jal	ra,37c <GPIO_Init>
     ee6:	6785                	lui	a5,0x1
     ee8:	80078793          	addi	a5,a5,-2048 # 800 <__stack_size>
     eec:	82fc                	0x82fc
     eee:	ce4e                	sw	s3,28(sp)
     ef0:	cc4a                	sw	s2,24(sp)
     ef2:	084c                	addi	a1,sp,20
     ef4:	c0048513          	addi	a0,s1,-1024
     ef8:	c84ff0ef          	jal	ra,37c <GPIO_Init>
     efc:	c256                	sw	s5,4(sp)
     efe:	00011423          	sh	zero,8(sp)
     f02:	77f1                	lui	a5,0xffffc
     f04:	17fd                	addi	a5,a5,-1
     f06:	857c                	0x857c
     f08:	01411623          	sh	s4,12(sp)
     f0c:	8760                	0x8760
     f0e:	6791                	lui	a5,0x4
     f10:	80fc                	0x80fc
     f12:	004c                	addi	a1,sp,4
     f14:	40006437          	lui	s0,0x40006
     f18:	80040513          	addi	a0,s0,-2048 # 40005800 <_eusrstack+0x20000800>
     f1c:	86fff0ef          	jal	ra,78a <I2C_Init>
     f20:	4585                	li	a1,1
     f22:	80040513          	addi	a0,s0,-2048
     f26:	96dff0ef          	jal	ra,892 <I2C_Cmd>
     f2a:	4585                	li	a1,1
     f2c:	80040513          	addi	a0,s0,-2048
     f30:	9bbff0ef          	jal	ra,8ea <I2C_AcknowledgeConfig>
     f34:	6105                	addi	sp,sp,32
     f36:	a54ff06f          	j	18a <__riscv_restore_4>

00000f3a <INA226_Init>:
     f3a:	a36ff2ef          	jal	t0,170 <__riscv_save_0>
     f3e:	08200593          	li	a1,130
     f42:	6561                	lui	a0,0x18
     f44:	6a050513          	addi	a0,a0,1696 # 186a0 <_data_lma+0xfcac>
     f48:	3fb1                	jal	ea4 <IIC_Init>
     f4a:	00008537          	lui	a0,0x8
     f4e:	3e050513          	addi	a0,a0,992 # 83e0 <_read+0xc>
     f52:	021010ef          	jal	ra,2772 <puts>
     f56:	6591                	lui	a1,0x4
     f58:	12758593          	addi	a1,a1,295 # 4127 <_dtoa_r+0x7fd>
     f5c:	4501                	li	a0,0
     f5e:	3d91                	jal	db2 <INA226_Write2Byte>
     f60:	6599                	lui	a1,0x6
     f62:	40058593          	addi	a1,a1,1024 # 6400 <_vfiprintf_r+0x274>
     f66:	4515                	li	a0,5
     f68:	35a9                	jal	db2 <INA226_Write2Byte>
     f6a:	4529                	li	a0,10
     f6c:	af8ff0ef          	jal	ra,264 <Delay_Ms>
     f70:	00008537          	lui	a0,0x8
     f74:	3f450513          	addi	a0,a0,1012 # 83f4 <_read+0x20>
     f78:	7fa010ef          	jal	ra,2772 <puts>
     f7c:	a18ff06f          	j	194 <__riscv_restore_0>

00000f80 <main>:
     f80:	9d6ff2ef          	jal	t0,156 <__riscv_save_4>
     f84:	2ac1                	jal	1154 <SystemCoreClockUpdate>
     f86:	ac2ff0ef          	jal	ra,248 <Delay_Init>
     f8a:	6571                	lui	a0,0x1c
     f8c:	20050513          	addi	a0,a0,512 # 1c200 <_data_lma+0x1380c>
     f90:	b12ff0ef          	jal	ra,2a2 <USART_Printf_Init>
     f94:	8081a583          	lw	a1,-2040(gp) # 200001f8 <SystemCoreClock>
     f98:	00008537          	lui	a0,0x8
     f9c:	42850513          	addi	a0,a0,1064 # 8428 <_read+0x54>
     fa0:	6ac010ef          	jal	ra,264c <iprintf>
     fa4:	bd2ff0ef          	jal	ra,376 <DBGMCU_GetCHIPID>
     fa8:	85aa                	mv	a1,a0
     faa:	00008537          	lui	a0,0x8
     fae:	43850513          	addi	a0,a0,1080 # 8438 <_read+0x64>
     fb2:	69a010ef          	jal	ra,264c <iprintf>
     fb6:	3751                	jal	f3a <INA226_Init>
     fb8:	65a1                	lui	a1,0x8
     fba:	4519                	li	a0,6
     fbc:	3bdd                	jal	db2 <INA226_Write2Byte>
     fbe:	6585                	lui	a1,0x1
     fc0:	96058593          	addi	a1,a1,-1696 # 960 <I2C_GetFlagStatus+0x1a>
     fc4:	451d                	li	a0,7
     fc6:	33f5                	jal	db2 <INA226_Write2Byte>
     fc8:	4509                	li	a0,2
     fca:	31c9                	jal	c8c <INA226_Read2Byte>
     fcc:	8a2a                	mv	s4,a0
     fce:	4505                	li	a0,1
     fd0:	3975                	jal	c8c <INA226_Read2Byte>
     fd2:	89aa                	mv	s3,a0
     fd4:	4511                	li	a0,4
     fd6:	395d                	jal	c8c <INA226_Read2Byte>
     fd8:	892a                	mv	s2,a0
     fda:	450d                	li	a0,3
     fdc:	3945                	jal	c8c <INA226_Read2Byte>
     fde:	84aa                	mv	s1,a0
     fe0:	4519                	li	a0,6
     fe2:	316d                	jal	c8c <INA226_Read2Byte>
     fe4:	842a                	mv	s0,a0
     fe6:	8552                	mv	a0,s4
     fe8:	718000ef          	jal	ra,1700 <__floatsidf>
     fec:	000087b7          	lui	a5,0x8
     ff0:	4087a603          	lw	a2,1032(a5) # 8408 <_read+0x34>
     ff4:	40c7a683          	lw	a3,1036(a5)
     ff8:	2ca1                	jal	1250 <__muldf3>
     ffa:	862a                	mv	a2,a0
     ffc:	86ae                	mv	a3,a1
     ffe:	00008537          	lui	a0,0x8
    1002:	44850513          	addi	a0,a0,1096 # 8448 <_read+0x74>
    1006:	646010ef          	jal	ra,264c <iprintf>
    100a:	854e                	mv	a0,s3
    100c:	2dd5                	jal	1700 <__floatsidf>
    100e:	000087b7          	lui	a5,0x8
    1012:	4107a603          	lw	a2,1040(a5) # 8410 <_read+0x3c>
    1016:	4147a683          	lw	a3,1044(a5)
    101a:	2c1d                	jal	1250 <__muldf3>
    101c:	862a                	mv	a2,a0
    101e:	86ae                	mv	a3,a1
    1020:	00008537          	lui	a0,0x8
    1024:	45c50513          	addi	a0,a0,1116 # 845c <_read+0x88>
    1028:	624010ef          	jal	ra,264c <iprintf>
    102c:	854a                	mv	a0,s2
    102e:	2dc9                	jal	1700 <__floatsidf>
    1030:	000087b7          	lui	a5,0x8
    1034:	4187a603          	lw	a2,1048(a5) # 8418 <_read+0x44>
    1038:	41c7a683          	lw	a3,1052(a5)
    103c:	2c11                	jal	1250 <__muldf3>
    103e:	862a                	mv	a2,a0
    1040:	86ae                	mv	a3,a1
    1042:	00008537          	lui	a0,0x8
    1046:	47050513          	addi	a0,a0,1136 # 8470 <_read+0x9c>
    104a:	602010ef          	jal	ra,264c <iprintf>
    104e:	8526                	mv	a0,s1
    1050:	2d45                	jal	1700 <__floatsidf>
    1052:	000087b7          	lui	a5,0x8
    1056:	4207a603          	lw	a2,1056(a5) # 8420 <_read+0x4c>
    105a:	4247a683          	lw	a3,1060(a5)
    105e:	2acd                	jal	1250 <__muldf3>
    1060:	862a                	mv	a2,a0
    1062:	86ae                	mv	a3,a1
    1064:	00008537          	lui	a0,0x8
    1068:	48450513          	addi	a0,a0,1156 # 8484 <_read+0xb0>
    106c:	5e0010ef          	jal	ra,264c <iprintf>
    1070:	85a2                	mv	a1,s0
    1072:	00008537          	lui	a0,0x8
    1076:	49850513          	addi	a0,a0,1176 # 8498 <_read+0xc4>
    107a:	5d2010ef          	jal	ra,264c <iprintf>
    107e:	b7a9                	j	fc8 <main+0x48>

00001080 <SetSysClockTo96_HSI>:
    1080:	400227b7          	lui	a5,0x40022
    1084:	4709                	li	a4,2
    1086:	c398                	sw	a4,0(a5)
    1088:	40024737          	lui	a4,0x40024
    108c:	80072783          	lw	a5,-2048(a4) # 40023800 <_eusrstack+0x2001e800>
    1090:	0107e793          	ori	a5,a5,16
    1094:	80f72023          	sw	a5,-2048(a4)
    1098:	400217b7          	lui	a5,0x40021
    109c:	43d8                	lw	a4,4(a5)
    109e:	c3d8                	sw	a4,4(a5)
    10a0:	43d8                	lw	a4,4(a5)
    10a2:	c3d8                	sw	a4,4(a5)
    10a4:	43d8                	lw	a4,4(a5)
    10a6:	40076713          	ori	a4,a4,1024
    10aa:	c3d8                	sw	a4,4(a5)
    10ac:	43d8                	lw	a4,4(a5)
    10ae:	ffc106b7          	lui	a3,0xffc10
    10b2:	16fd                	addi	a3,a3,-1
    10b4:	8f75                	and	a4,a4,a3
    10b6:	c3d8                	sw	a4,4(a5)
    10b8:	43d8                	lw	a4,4(a5)
    10ba:	002806b7          	lui	a3,0x280
    10be:	8f55                	or	a4,a4,a3
    10c0:	c3d8                	sw	a4,4(a5)
    10c2:	4398                	lw	a4,0(a5)
    10c4:	010006b7          	lui	a3,0x1000
    10c8:	8f55                	or	a4,a4,a3
    10ca:	c398                	sw	a4,0(a5)
    10cc:	400217b7          	lui	a5,0x40021
    10d0:	439c                	lw	a5,0(a5)
    10d2:	00679713          	slli	a4,a5,0x6
    10d6:	fe075be3          	bgez	a4,10cc <SetSysClockTo96_HSI+0x4c>
    10da:	400217b7          	lui	a5,0x40021
    10de:	43d8                	lw	a4,4(a5)
    10e0:	9b71                	andi	a4,a4,-4
    10e2:	c3d8                	sw	a4,4(a5)
    10e4:	43d8                	lw	a4,4(a5)
    10e6:	00276713          	ori	a4,a4,2
    10ea:	c3d8                	sw	a4,4(a5)
    10ec:	400217b7          	lui	a5,0x40021
    10f0:	43dc                	lw	a5,4(a5)
    10f2:	8bb1                	andi	a5,a5,12
    10f4:	4721                	li	a4,8
    10f6:	fee79be3          	bne	a5,a4,10ec <SetSysClockTo96_HSI+0x6c>
    10fa:	8082                	ret

000010fc <SetSysClock>:
    10fc:	874ff2ef          	jal	t0,170 <__riscv_save_0>
    1100:	c9aff0ef          	jal	ra,59a <GPIO_IPD_Unused>
    1104:	3fb5                	jal	1080 <SetSysClockTo96_HSI>
    1106:	88eff06f          	j	194 <__riscv_restore_0>

0000110a <SystemInit>:
    110a:	866ff2ef          	jal	t0,170 <__riscv_save_0>
    110e:	400217b7          	lui	a5,0x40021
    1112:	4398                	lw	a4,0(a5)
    1114:	00176713          	ori	a4,a4,1
    1118:	c398                	sw	a4,0(a5)
    111a:	43d8                	lw	a4,4(a5)
    111c:	08ff06b7          	lui	a3,0x8ff0
    1120:	8f75                	and	a4,a4,a3
    1122:	c3d8                	sw	a4,4(a5)
    1124:	4398                	lw	a4,0(a5)
    1126:	fef706b7          	lui	a3,0xfef70
    112a:	16ed                	addi	a3,a3,-5
    112c:	8f75                	and	a4,a4,a3
    112e:	c398                	sw	a4,0(a5)
    1130:	4398                	lw	a4,0(a5)
    1132:	fffc06b7          	lui	a3,0xfffc0
    1136:	16fd                	addi	a3,a3,-1
    1138:	8f75                	and	a4,a4,a3
    113a:	c398                	sw	a4,0(a5)
    113c:	43d8                	lw	a4,4(a5)
    113e:	ff0106b7          	lui	a3,0xff010
    1142:	16fd                	addi	a3,a3,-1
    1144:	8f75                	and	a4,a4,a3
    1146:	c3d8                	sw	a4,4(a5)
    1148:	009f0737          	lui	a4,0x9f0
    114c:	c798                	sw	a4,8(a5)
    114e:	377d                	jal	10fc <SetSysClock>
    1150:	844ff06f          	j	194 <__riscv_restore_0>

00001154 <SystemCoreClockUpdate>:
    1154:	400217b7          	lui	a5,0x40021
    1158:	43dc                	lw	a5,4(a5)
    115a:	8bb1                	andi	a5,a5,12
    115c:	4711                	li	a4,4
    115e:	04e78063          	beq	a5,a4,119e <SystemCoreClockUpdate+0x4a>
    1162:	4721                	li	a4,8
    1164:	06e78663          	beq	a5,a4,11d0 <SystemCoreClockUpdate+0x7c>
    1168:	cb81                	beqz	a5,1178 <SystemCoreClockUpdate+0x24>
    116a:	007a17b7          	lui	a5,0x7a1
    116e:	20078793          	addi	a5,a5,512 # 7a1200 <_data_lma+0x79880c>
    1172:	80f1a423          	sw	a5,-2040(gp) # 200001f8 <SystemCoreClock>
    1176:	a815                	j	11aa <SystemCoreClockUpdate+0x56>
    1178:	400217b7          	lui	a5,0x40021
    117c:	439c                	lw	a5,0(a5)
    117e:	8b91                	andi	a5,a5,4
    1180:	cb81                	beqz	a5,1190 <SystemCoreClockUpdate+0x3c>
    1182:	000f47b7          	lui	a5,0xf4
    1186:	24078793          	addi	a5,a5,576 # f4240 <_data_lma+0xeb84c>
    118a:	80f1a423          	sw	a5,-2040(gp) # 200001f8 <SystemCoreClock>
    118e:	a831                	j	11aa <SystemCoreClockUpdate+0x56>
    1190:	007a17b7          	lui	a5,0x7a1
    1194:	20078793          	addi	a5,a5,512 # 7a1200 <_data_lma+0x79880c>
    1198:	80f1a423          	sw	a5,-2040(gp) # 200001f8 <SystemCoreClock>
    119c:	a039                	j	11aa <SystemCoreClockUpdate+0x56>
    119e:	007a17b7          	lui	a5,0x7a1
    11a2:	20078793          	addi	a5,a5,512 # 7a1200 <_data_lma+0x79880c>
    11a6:	80f1a423          	sw	a5,-2040(gp) # 200001f8 <SystemCoreClock>
    11aa:	400217b7          	lui	a5,0x40021
    11ae:	43dc                	lw	a5,4(a5)
    11b0:	8391                	srli	a5,a5,0x4
    11b2:	00f7f713          	andi	a4,a5,15
    11b6:	200007b7          	lui	a5,0x20000
    11ba:	01078793          	addi	a5,a5,16 # 20000010 <HBPrescTable>
    11be:	97ba                	add	a5,a5,a4
    11c0:	2394                	fld	fa3,0(a5)
    11c2:	80818793          	addi	a5,gp,-2040 # 200001f8 <SystemCoreClock>
    11c6:	4398                	lw	a4,0(a5)
    11c8:	00d75733          	srl	a4,a4,a3
    11cc:	c398                	sw	a4,0(a5)
    11ce:	8082                	ret
    11d0:	40021737          	lui	a4,0x40021
    11d4:	435c                	lw	a5,4(a4)
    11d6:	4358                	lw	a4,4(a4)
    11d8:	66c1                	lui	a3,0x10
    11da:	8f75                	and	a4,a4,a3
    11dc:	83c9                	srli	a5,a5,0x12
    11de:	8bbd                	andi	a5,a5,15
    11e0:	0789                	addi	a5,a5,2
    11e2:	46c5                	li	a3,17
    11e4:	02d78263          	beq	a5,a3,1208 <SystemCoreClockUpdate+0xb4>
    11e8:	eb1d                	bnez	a4,121e <SystemCoreClockUpdate+0xca>
    11ea:	40024737          	lui	a4,0x40024
    11ee:	80072703          	lw	a4,-2048(a4) # 40023800 <_eusrstack+0x2001e800>
    11f2:	8b41                	andi	a4,a4,16
    11f4:	cf01                	beqz	a4,120c <SystemCoreClockUpdate+0xb8>
    11f6:	007a1737          	lui	a4,0x7a1
    11fa:	20070713          	addi	a4,a4,512 # 7a1200 <_data_lma+0x79880c>
    11fe:	02e787b3          	mul	a5,a5,a4
    1202:	80f1a423          	sw	a5,-2040(gp) # 200001f8 <SystemCoreClock>
    1206:	b755                	j	11aa <SystemCoreClockUpdate+0x56>
    1208:	47c9                	li	a5,18
    120a:	bff9                	j	11e8 <SystemCoreClockUpdate+0x94>
    120c:	003d1737          	lui	a4,0x3d1
    1210:	90070713          	addi	a4,a4,-1792 # 3d0900 <_data_lma+0x3c7f0c>
    1214:	02e787b3          	mul	a5,a5,a4
    1218:	80f1a423          	sw	a5,-2040(gp) # 200001f8 <SystemCoreClock>
    121c:	b779                	j	11aa <SystemCoreClockUpdate+0x56>
    121e:	40021737          	lui	a4,0x40021
    1222:	4358                	lw	a4,4(a4)
    1224:	00e71693          	slli	a3,a4,0xe
    1228:	0006db63          	bgez	a3,123e <SystemCoreClockUpdate+0xea>
    122c:	003d1737          	lui	a4,0x3d1
    1230:	90070713          	addi	a4,a4,-1792 # 3d0900 <_data_lma+0x3c7f0c>
    1234:	02e787b3          	mul	a5,a5,a4
    1238:	80f1a423          	sw	a5,-2040(gp) # 200001f8 <SystemCoreClock>
    123c:	b7bd                	j	11aa <SystemCoreClockUpdate+0x56>
    123e:	007a1737          	lui	a4,0x7a1
    1242:	20070713          	addi	a4,a4,512 # 7a1200 <_data_lma+0x79880c>
    1246:	02e787b3          	mul	a5,a5,a4
    124a:	80f1a423          	sw	a5,-2040(gp) # 200001f8 <SystemCoreClock>
    124e:	bfb1                	j	11aa <SystemCoreClockUpdate+0x56>

00001250 <__muldf3>:
    1250:	7139                	addi	sp,sp,-64
    1252:	d84a                	sw	s2,48(sp)
    1254:	0145d913          	srli	s2,a1,0x14
    1258:	d64e                	sw	s3,44(sp)
    125a:	d452                	sw	s4,40(sp)
    125c:	d256                	sw	s5,36(sp)
    125e:	00c59993          	slli	s3,a1,0xc
    1262:	de06                	sw	ra,60(sp)
    1264:	dc22                	sw	s0,56(sp)
    1266:	da26                	sw	s1,52(sp)
    1268:	d05a                	sw	s6,32(sp)
    126a:	ce5e                	sw	s7,28(sp)
    126c:	7ff97913          	andi	s2,s2,2047
    1270:	8a2a                	mv	s4,a0
    1272:	00c9d993          	srli	s3,s3,0xc
    1276:	01f5da93          	srli	s5,a1,0x1f
    127a:	0e090d63          	beqz	s2,1374 <__muldf3+0x124>
    127e:	7ff00793          	li	a5,2047
    1282:	18f90463          	beq	s2,a5,140a <__muldf3+0x1ba>
    1286:	01d55413          	srli	s0,a0,0x1d
    128a:	098e                	slli	s3,s3,0x3
    128c:	013469b3          	or	s3,s0,s3
    1290:	00800437          	lui	s0,0x800
    1294:	0089e433          	or	s0,s3,s0
    1298:	00351493          	slli	s1,a0,0x3
    129c:	c0190913          	addi	s2,s2,-1023
    12a0:	4981                	li	s3,0
    12a2:	4b81                	li	s7,0
    12a4:	0146d713          	srli	a4,a3,0x14
    12a8:	00c69a13          	slli	s4,a3,0xc
    12ac:	7ff77713          	andi	a4,a4,2047
    12b0:	85b2                	mv	a1,a2
    12b2:	00ca5a13          	srli	s4,s4,0xc
    12b6:	01f6db13          	srli	s6,a3,0x1f
    12ba:	10070a63          	beqz	a4,13ce <__muldf3+0x17e>
    12be:	7ff00793          	li	a5,2047
    12c2:	04f70363          	beq	a4,a5,1308 <__muldf3+0xb8>
    12c6:	01d65793          	srli	a5,a2,0x1d
    12ca:	0a0e                	slli	s4,s4,0x3
    12cc:	0147ea33          	or	s4,a5,s4
    12d0:	c0170713          	addi	a4,a4,-1023
    12d4:	008007b7          	lui	a5,0x800
    12d8:	00fa67b3          	or	a5,s4,a5
    12dc:	00361593          	slli	a1,a2,0x3
    12e0:	993a                	add	s2,s2,a4
    12e2:	4881                	li	a7,0
    12e4:	016ac733          	xor	a4,s5,s6
    12e8:	46bd                	li	a3,15
    12ea:	853a                	mv	a0,a4
    12ec:	00190813          	addi	a6,s2,1
    12f0:	1736e663          	bltu	a3,s3,145c <__muldf3+0x20c>
    12f4:	00007617          	auipc	a2,0x7
    12f8:	1b460613          	addi	a2,a2,436 # 84a8 <_read+0xd4>
    12fc:	098a                	slli	s3,s3,0x2
    12fe:	99b2                	add	s3,s3,a2
    1300:	0009a683          	lw	a3,0(s3)
    1304:	96b2                	add	a3,a3,a2
    1306:	8682                	jr	a3
    1308:	00ca67b3          	or	a5,s4,a2
    130c:	7ff90913          	addi	s2,s2,2047
    1310:	12079763          	bnez	a5,143e <__muldf3+0x1ee>
    1314:	0029e993          	ori	s3,s3,2
    1318:	4581                	li	a1,0
    131a:	4889                	li	a7,2
    131c:	b7e1                	j	12e4 <__muldf3+0x94>
    131e:	4701                	li	a4,0
    1320:	7ff00793          	li	a5,2047
    1324:	00080437          	lui	s0,0x80
    1328:	4481                	li	s1,0
    132a:	0432                	slli	s0,s0,0xc
    132c:	07d2                	slli	a5,a5,0x14
    132e:	8031                	srli	s0,s0,0xc
    1330:	077e                	slli	a4,a4,0x1f
    1332:	8c5d                	or	s0,s0,a5
    1334:	8c59                	or	s0,s0,a4
    1336:	85a2                	mv	a1,s0
    1338:	50f2                	lw	ra,60(sp)
    133a:	5462                	lw	s0,56(sp)
    133c:	8526                	mv	a0,s1
    133e:	5942                	lw	s2,48(sp)
    1340:	54d2                	lw	s1,52(sp)
    1342:	59b2                	lw	s3,44(sp)
    1344:	5a22                	lw	s4,40(sp)
    1346:	5a92                	lw	s5,36(sp)
    1348:	5b02                	lw	s6,32(sp)
    134a:	4bf2                	lw	s7,28(sp)
    134c:	6121                	addi	sp,sp,64
    134e:	8082                	ret
    1350:	855a                	mv	a0,s6
    1352:	843e                	mv	s0,a5
    1354:	84ae                	mv	s1,a1
    1356:	8bc6                	mv	s7,a7
    1358:	4789                	li	a5,2
    135a:	0efb8b63          	beq	s7,a5,1450 <__muldf3+0x200>
    135e:	478d                	li	a5,3
    1360:	fafb8fe3          	beq	s7,a5,131e <__muldf3+0xce>
    1364:	4785                	li	a5,1
    1366:	872a                	mv	a4,a0
    1368:	38fb9a63          	bne	s7,a5,16fc <__muldf3+0x4ac>
    136c:	4781                	li	a5,0
    136e:	4401                	li	s0,0
    1370:	4481                	li	s1,0
    1372:	bf65                	j	132a <__muldf3+0xda>
    1374:	00a9e433          	or	s0,s3,a0
    1378:	cc55                	beqz	s0,1434 <__muldf3+0x1e4>
    137a:	c636                	sw	a3,12(sp)
    137c:	c432                	sw	a2,8(sp)
    137e:	2a098963          	beqz	s3,1630 <__muldf3+0x3e0>
    1382:	854e                	mv	a0,s3
    1384:	26f5                	jal	1770 <__clzsi2>
    1386:	4622                	lw	a2,8(sp)
    1388:	46b2                	lw	a3,12(sp)
    138a:	87aa                	mv	a5,a0
    138c:	ff550713          	addi	a4,a0,-11
    1390:	4475                	li	s0,29
    1392:	ff878493          	addi	s1,a5,-8 # 7ffff8 <_data_lma+0x7f7604>
    1396:	8c19                	sub	s0,s0,a4
    1398:	009999b3          	sll	s3,s3,s1
    139c:	008a5433          	srl	s0,s4,s0
    13a0:	01346433          	or	s0,s0,s3
    13a4:	009a14b3          	sll	s1,s4,s1
    13a8:	0146d713          	srli	a4,a3,0x14
    13ac:	c0d00913          	li	s2,-1011
    13b0:	00c69a13          	slli	s4,a3,0xc
    13b4:	7ff77713          	andi	a4,a4,2047
    13b8:	40f90933          	sub	s2,s2,a5
    13bc:	4981                	li	s3,0
    13be:	4b81                	li	s7,0
    13c0:	85b2                	mv	a1,a2
    13c2:	00ca5a13          	srli	s4,s4,0xc
    13c6:	01f6db13          	srli	s6,a3,0x1f
    13ca:	ee071ae3          	bnez	a4,12be <__muldf3+0x6e>
    13ce:	00ca67b3          	or	a5,s4,a2
    13d2:	c7a9                	beqz	a5,141c <__muldf3+0x1cc>
    13d4:	220a0e63          	beqz	s4,1610 <__muldf3+0x3c0>
    13d8:	8552                	mv	a0,s4
    13da:	c432                	sw	a2,8(sp)
    13dc:	2e51                	jal	1770 <__clzsi2>
    13de:	4622                	lw	a2,8(sp)
    13e0:	872a                	mv	a4,a0
    13e2:	ff550693          	addi	a3,a0,-11
    13e6:	47f5                	li	a5,29
    13e8:	ff870593          	addi	a1,a4,-8
    13ec:	8f95                	sub	a5,a5,a3
    13ee:	00ba1a33          	sll	s4,s4,a1
    13f2:	00f657b3          	srl	a5,a2,a5
    13f6:	0147e7b3          	or	a5,a5,s4
    13fa:	00b615b3          	sll	a1,a2,a1
    13fe:	40e90933          	sub	s2,s2,a4
    1402:	c0d90913          	addi	s2,s2,-1011
    1406:	4881                	li	a7,0
    1408:	bdf1                	j	12e4 <__muldf3+0x94>
    140a:	00a9e433          	or	s0,s3,a0
    140e:	ec01                	bnez	s0,1426 <__muldf3+0x1d6>
    1410:	49a1                	li	s3,8
    1412:	4481                	li	s1,0
    1414:	7ff00913          	li	s2,2047
    1418:	4b89                	li	s7,2
    141a:	b569                	j	12a4 <__muldf3+0x54>
    141c:	0019e993          	ori	s3,s3,1
    1420:	4581                	li	a1,0
    1422:	4885                	li	a7,1
    1424:	b5c1                	j	12e4 <__muldf3+0x94>
    1426:	844e                	mv	s0,s3
    1428:	84aa                	mv	s1,a0
    142a:	49b1                	li	s3,12
    142c:	7ff00913          	li	s2,2047
    1430:	4b8d                	li	s7,3
    1432:	bd8d                	j	12a4 <__muldf3+0x54>
    1434:	4991                	li	s3,4
    1436:	4481                	li	s1,0
    1438:	4901                	li	s2,0
    143a:	4b85                	li	s7,1
    143c:	b5a5                	j	12a4 <__muldf3+0x54>
    143e:	0039e993          	ori	s3,s3,3
    1442:	87d2                	mv	a5,s4
    1444:	488d                	li	a7,3
    1446:	bd79                	j	12e4 <__muldf3+0x94>
    1448:	4789                	li	a5,2
    144a:	8556                	mv	a0,s5
    144c:	f0fb99e3          	bne	s7,a5,135e <__muldf3+0x10e>
    1450:	872a                	mv	a4,a0
    1452:	7ff00793          	li	a5,2047
    1456:	4401                	li	s0,0
    1458:	4481                	li	s1,0
    145a:	bdc1                	j	132a <__muldf3+0xda>
    145c:	6ec1                	lui	t4,0x10
    145e:	fffe8613          	addi	a2,t4,-1 # ffff <_data_lma+0x760b>
    1462:	0104d693          	srli	a3,s1,0x10
    1466:	0105de13          	srli	t3,a1,0x10
    146a:	8cf1                	and	s1,s1,a2
    146c:	8df1                	and	a1,a1,a2
    146e:	02958633          	mul	a2,a1,s1
    1472:	02b68333          	mul	t1,a3,a1
    1476:	01065893          	srli	a7,a2,0x10
    147a:	029e0533          	mul	a0,t3,s1
    147e:	951a                	add	a0,a0,t1
    1480:	98aa                	add	a7,a7,a0
    1482:	03c682b3          	mul	t0,a3,t3
    1486:	0068f363          	bgeu	a7,t1,148c <__muldf3+0x23c>
    148a:	92f6                	add	t0,t0,t4
    148c:	6fc1                	lui	t6,0x10
    148e:	ffff8313          	addi	t1,t6,-1 # ffff <_data_lma+0x760b>
    1492:	0067f533          	and	a0,a5,t1
    1496:	0107d393          	srli	t2,a5,0x10
    149a:	0068f7b3          	and	a5,a7,t1
    149e:	07c2                	slli	a5,a5,0x10
    14a0:	00667333          	and	t1,a2,t1
    14a4:	933e                	add	t1,t1,a5
    14a6:	02950633          	mul	a2,a0,s1
    14aa:	0108d893          	srli	a7,a7,0x10
    14ae:	02a687b3          	mul	a5,a3,a0
    14b2:	01065f13          	srli	t5,a2,0x10
    14b6:	029384b3          	mul	s1,t2,s1
    14ba:	94be                	add	s1,s1,a5
    14bc:	94fa                	add	s1,s1,t5
    14be:	02768eb3          	mul	t4,a3,t2
    14c2:	00f4f363          	bgeu	s1,a5,14c8 <__muldf3+0x278>
    14c6:	9efe                	add	t4,t4,t6
    14c8:	6a41                	lui	s4,0x10
    14ca:	fffa0793          	addi	a5,s4,-1 # ffff <_data_lma+0x760b>
    14ce:	01045f93          	srli	t6,s0,0x10
    14d2:	00f476b3          	and	a3,s0,a5
    14d6:	00f4f9b3          	and	s3,s1,a5
    14da:	8e7d                	and	a2,a2,a5
    14dc:	80c1                	srli	s1,s1,0x10
    14de:	02d58433          	mul	s0,a1,a3
    14e2:	09c2                	slli	s3,s3,0x10
    14e4:	01d48f33          	add	t5,s1,t4
    14e8:	99b2                	add	s3,s3,a2
    14ea:	98ce                	add	a7,a7,s3
    14ec:	02de07b3          	mul	a5,t3,a3
    14f0:	01045e93          	srli	t4,s0,0x10
    14f4:	02bf85b3          	mul	a1,t6,a1
    14f8:	97ae                	add	a5,a5,a1
    14fa:	9ebe                	add	t4,t4,a5
    14fc:	03fe0e33          	mul	t3,t3,t6
    1500:	00bef363          	bgeu	t4,a1,1506 <__muldf3+0x2b6>
    1504:	9e52                	add	t3,t3,s4
    1506:	67c1                	lui	a5,0x10
    1508:	fff78593          	addi	a1,a5,-1 # ffff <_data_lma+0x760b>
    150c:	00bef633          	and	a2,t4,a1
    1510:	8c6d                	and	s0,s0,a1
    1512:	0642                	slli	a2,a2,0x10
    1514:	9622                	add	a2,a2,s0
    1516:	010ede93          	srli	t4,t4,0x10
    151a:	02d505b3          	mul	a1,a0,a3
    151e:	9e76                	add	t3,t3,t4
    1520:	02af8533          	mul	a0,t6,a0
    1524:	0105d413          	srli	s0,a1,0x10
    1528:	02d386b3          	mul	a3,t2,a3
    152c:	96aa                	add	a3,a3,a0
    152e:	96a2                	add	a3,a3,s0
    1530:	03f38fb3          	mul	t6,t2,t6
    1534:	00a6f363          	bgeu	a3,a0,153a <__muldf3+0x2ea>
    1538:	9fbe                	add	t6,t6,a5
    153a:	6541                	lui	a0,0x10
    153c:	157d                	addi	a0,a0,-1
    153e:	00a6f7b3          	and	a5,a3,a0
    1542:	07c2                	slli	a5,a5,0x10
    1544:	8d6d                	and	a0,a0,a1
    1546:	97aa                	add	a5,a5,a0
    1548:	005885b3          	add	a1,a7,t0
    154c:	0135b9b3          	sltu	s3,a1,s3
    1550:	97fa                	add	a5,a5,t5
    1552:	95b2                	add	a1,a1,a2
    1554:	01378433          	add	s0,a5,s3
    1558:	00c5b633          	sltu	a2,a1,a2
    155c:	01c40eb3          	add	t4,s0,t3
    1560:	00ce8533          	add	a0,t4,a2
    1564:	01343433          	sltu	s0,s0,s3
    1568:	01e7b7b3          	sltu	a5,a5,t5
    156c:	8fc1                	or	a5,a5,s0
    156e:	01cebe33          	sltu	t3,t4,t3
    1572:	0106d413          	srli	s0,a3,0x10
    1576:	00c53633          	sltu	a2,a0,a2
    157a:	943e                	add	s0,s0,a5
    157c:	00ce6633          	or	a2,t3,a2
    1580:	00959493          	slli	s1,a1,0x9
    1584:	9432                	add	s0,s0,a2
    1586:	947e                	add	s0,s0,t6
    1588:	0064e4b3          	or	s1,s1,t1
    158c:	0426                	slli	s0,s0,0x9
    158e:	01755693          	srli	a3,a0,0x17
    1592:	009034b3          	snez	s1,s1
    1596:	81dd                	srli	a1,a1,0x17
    1598:	00951793          	slli	a5,a0,0x9
    159c:	8ccd                	or	s1,s1,a1
    159e:	8c55                	or	s0,s0,a3
    15a0:	8cdd                	or	s1,s1,a5
    15a2:	00741793          	slli	a5,s0,0x7
    15a6:	0007db63          	bgez	a5,15bc <__muldf3+0x36c>
    15aa:	0014d793          	srli	a5,s1,0x1
    15ae:	8885                	andi	s1,s1,1
    15b0:	01f41693          	slli	a3,s0,0x1f
    15b4:	8cdd                	or	s1,s1,a5
    15b6:	8cd5                	or	s1,s1,a3
    15b8:	8005                	srli	s0,s0,0x1
    15ba:	8942                	mv	s2,a6
    15bc:	3ff90793          	addi	a5,s2,1023
    15c0:	08f05763          	blez	a5,164e <__muldf3+0x3fe>
    15c4:	0074f693          	andi	a3,s1,7
    15c8:	ce81                	beqz	a3,15e0 <__muldf3+0x390>
    15ca:	00f4f693          	andi	a3,s1,15
    15ce:	4611                	li	a2,4
    15d0:	00c68863          	beq	a3,a2,15e0 <__muldf3+0x390>
    15d4:	00448693          	addi	a3,s1,4
    15d8:	0096b4b3          	sltu	s1,a3,s1
    15dc:	9426                	add	s0,s0,s1
    15de:	84b6                	mv	s1,a3
    15e0:	00741693          	slli	a3,s0,0x7
    15e4:	0006d863          	bgez	a3,15f4 <__muldf3+0x3a4>
    15e8:	ff0007b7          	lui	a5,0xff000
    15ec:	17fd                	addi	a5,a5,-1
    15ee:	8c7d                	and	s0,s0,a5
    15f0:	40090793          	addi	a5,s2,1024
    15f4:	7fe00693          	li	a3,2046
    15f8:	0ef6cd63          	blt	a3,a5,16f2 <__muldf3+0x4a2>
    15fc:	0034d693          	srli	a3,s1,0x3
    1600:	01d41493          	slli	s1,s0,0x1d
    1604:	0426                	slli	s0,s0,0x9
    1606:	8cd5                	or	s1,s1,a3
    1608:	8031                	srli	s0,s0,0xc
    160a:	7ff7f793          	andi	a5,a5,2047
    160e:	bb31                	j	132a <__muldf3+0xda>
    1610:	8532                	mv	a0,a2
    1612:	c432                	sw	a2,8(sp)
    1614:	2ab1                	jal	1770 <__clzsi2>
    1616:	01550693          	addi	a3,a0,21 # 10015 <_data_lma+0x7621>
    161a:	47f1                	li	a5,28
    161c:	02050713          	addi	a4,a0,32
    1620:	4622                	lw	a2,8(sp)
    1622:	dcd7d2e3          	bge	a5,a3,13e6 <__muldf3+0x196>
    1626:	1561                	addi	a0,a0,-8
    1628:	00a617b3          	sll	a5,a2,a0
    162c:	4581                	li	a1,0
    162e:	bbc1                	j	13fe <__muldf3+0x1ae>
    1630:	2281                	jal	1770 <__clzsi2>
    1632:	01550713          	addi	a4,a0,21
    1636:	45f1                	li	a1,28
    1638:	02050793          	addi	a5,a0,32
    163c:	4622                	lw	a2,8(sp)
    163e:	46b2                	lw	a3,12(sp)
    1640:	d4e5d8e3          	bge	a1,a4,1390 <__muldf3+0x140>
    1644:	1561                	addi	a0,a0,-8
    1646:	00aa1433          	sll	s0,s4,a0
    164a:	4481                	li	s1,0
    164c:	bbb1                	j	13a8 <__muldf3+0x158>
    164e:	4685                	li	a3,1
    1650:	8e9d                	sub	a3,a3,a5
    1652:	e7b1                	bnez	a5,169e <__muldf3+0x44e>
    1654:	41e90913          	addi	s2,s2,1054
    1658:	012497b3          	sll	a5,s1,s2
    165c:	00d4d4b3          	srl	s1,s1,a3
    1660:	01241933          	sll	s2,s0,s2
    1664:	00f037b3          	snez	a5,a5
    1668:	009964b3          	or	s1,s2,s1
    166c:	8cdd                	or	s1,s1,a5
    166e:	0074f793          	andi	a5,s1,7
    1672:	00d456b3          	srl	a3,s0,a3
    1676:	cf81                	beqz	a5,168e <__muldf3+0x43e>
    1678:	00f4f793          	andi	a5,s1,15
    167c:	4611                	li	a2,4
    167e:	00c78863          	beq	a5,a2,168e <__muldf3+0x43e>
    1682:	00448793          	addi	a5,s1,4
    1686:	0097b4b3          	sltu	s1,a5,s1
    168a:	96a6                	add	a3,a3,s1
    168c:	84be                	mv	s1,a5
    168e:	00869793          	slli	a5,a3,0x8
    1692:	0407d863          	bgez	a5,16e2 <__muldf3+0x492>
    1696:	4785                	li	a5,1
    1698:	4401                	li	s0,0
    169a:	4481                	li	s1,0
    169c:	b179                	j	132a <__muldf3+0xda>
    169e:	03800613          	li	a2,56
    16a2:	ccd645e3          	blt	a2,a3,136c <__muldf3+0x11c>
    16a6:	467d                	li	a2,31
    16a8:	fad656e3          	bge	a2,a3,1654 <__muldf3+0x404>
    16ac:	5605                	li	a2,-31
    16ae:	40f607b3          	sub	a5,a2,a5
    16b2:	02000593          	li	a1,32
    16b6:	00f45633          	srl	a2,s0,a5
    16ba:	00b68763          	beq	a3,a1,16c8 <__muldf3+0x478>
    16be:	43e90913          	addi	s2,s2,1086
    16c2:	012417b3          	sll	a5,s0,s2
    16c6:	8cdd                	or	s1,s1,a5
    16c8:	009034b3          	snez	s1,s1
    16cc:	8cd1                	or	s1,s1,a2
    16ce:	0074f693          	andi	a3,s1,7
    16d2:	4401                	li	s0,0
    16d4:	ca99                	beqz	a3,16ea <__muldf3+0x49a>
    16d6:	00f4f793          	andi	a5,s1,15
    16da:	4611                	li	a2,4
    16dc:	4681                	li	a3,0
    16de:	fac792e3          	bne	a5,a2,1682 <__muldf3+0x432>
    16e2:	00969413          	slli	s0,a3,0x9
    16e6:	8031                	srli	s0,s0,0xc
    16e8:	06f6                	slli	a3,a3,0x1d
    16ea:	808d                	srli	s1,s1,0x3
    16ec:	8cd5                	or	s1,s1,a3
    16ee:	4781                	li	a5,0
    16f0:	b92d                	j	132a <__muldf3+0xda>
    16f2:	7ff00793          	li	a5,2047
    16f6:	4401                	li	s0,0
    16f8:	4481                	li	s1,0
    16fa:	b905                	j	132a <__muldf3+0xda>
    16fc:	8942                	mv	s2,a6
    16fe:	bd7d                	j	15bc <__muldf3+0x36c>

00001700 <__floatsidf>:
    1700:	1141                	addi	sp,sp,-16
    1702:	c606                	sw	ra,12(sp)
    1704:	c422                	sw	s0,8(sp)
    1706:	c226                	sw	s1,4(sp)
    1708:	cd05                	beqz	a0,1740 <__floatsidf+0x40>
    170a:	41f55793          	srai	a5,a0,0x1f
    170e:	00a7c4b3          	xor	s1,a5,a0
    1712:	8c9d                	sub	s1,s1,a5
    1714:	842a                	mv	s0,a0
    1716:	8526                	mv	a0,s1
    1718:	28a1                	jal	1770 <__clzsi2>
    171a:	41e00693          	li	a3,1054
    171e:	8e89                	sub	a3,a3,a0
    1720:	47a9                	li	a5,10
    1722:	807d                	srli	s0,s0,0x1f
    1724:	7ff6f693          	andi	a3,a3,2047
    1728:	02a7cd63          	blt	a5,a0,1762 <__floatsidf+0x62>
    172c:	472d                	li	a4,11
    172e:	8f09                	sub	a4,a4,a0
    1730:	00e4d7b3          	srl	a5,s1,a4
    1734:	0555                	addi	a0,a0,21
    1736:	07b2                	slli	a5,a5,0xc
    1738:	00a494b3          	sll	s1,s1,a0
    173c:	83b1                	srli	a5,a5,0xc
    173e:	a029                	j	1748 <__floatsidf+0x48>
    1740:	4401                	li	s0,0
    1742:	4681                	li	a3,0
    1744:	4781                	li	a5,0
    1746:	4481                	li	s1,0
    1748:	07b2                	slli	a5,a5,0xc
    174a:	06d2                	slli	a3,a3,0x14
    174c:	83b1                	srli	a5,a5,0xc
    174e:	047e                	slli	s0,s0,0x1f
    1750:	8fd5                	or	a5,a5,a3
    1752:	8fc1                	or	a5,a5,s0
    1754:	40b2                	lw	ra,12(sp)
    1756:	4422                	lw	s0,8(sp)
    1758:	8526                	mv	a0,s1
    175a:	85be                	mv	a1,a5
    175c:	4492                	lw	s1,4(sp)
    175e:	0141                	addi	sp,sp,16
    1760:	8082                	ret
    1762:	1555                	addi	a0,a0,-11
    1764:	00a497b3          	sll	a5,s1,a0
    1768:	07b2                	slli	a5,a5,0xc
    176a:	83b1                	srli	a5,a5,0xc
    176c:	4481                	li	s1,0
    176e:	bfe9                	j	1748 <__floatsidf+0x48>

00001770 <__clzsi2>:
    1770:	67c1                	lui	a5,0x10
    1772:	02f57e63          	bgeu	a0,a5,17ae <__clzsi2+0x3e>
    1776:	0ff00793          	li	a5,255
    177a:	02000713          	li	a4,32
    177e:	00a7ec63          	bltu	a5,a0,1796 <__clzsi2+0x26>
    1782:	00007797          	auipc	a5,0x7
    1786:	d6678793          	addi	a5,a5,-666 # 84e8 <__clz_tab>
    178a:	97aa                	add	a5,a5,a0
    178c:	0007c503          	lbu	a0,0(a5)
    1790:	40a70533          	sub	a0,a4,a0
    1794:	8082                	ret
    1796:	8121                	srli	a0,a0,0x8
    1798:	00007797          	auipc	a5,0x7
    179c:	d5078793          	addi	a5,a5,-688 # 84e8 <__clz_tab>
    17a0:	97aa                	add	a5,a5,a0
    17a2:	0007c503          	lbu	a0,0(a5)
    17a6:	4761                	li	a4,24
    17a8:	40a70533          	sub	a0,a4,a0
    17ac:	8082                	ret
    17ae:	010007b7          	lui	a5,0x1000
    17b2:	00f56e63          	bltu	a0,a5,17ce <__clzsi2+0x5e>
    17b6:	8161                	srli	a0,a0,0x18
    17b8:	00007797          	auipc	a5,0x7
    17bc:	d3078793          	addi	a5,a5,-720 # 84e8 <__clz_tab>
    17c0:	97aa                	add	a5,a5,a0
    17c2:	0007c503          	lbu	a0,0(a5)
    17c6:	4721                	li	a4,8
    17c8:	40a70533          	sub	a0,a4,a0
    17cc:	8082                	ret
    17ce:	8141                	srli	a0,a0,0x10
    17d0:	00007797          	auipc	a5,0x7
    17d4:	d1878793          	addi	a5,a5,-744 # 84e8 <__clz_tab>
    17d8:	97aa                	add	a5,a5,a0
    17da:	0007c503          	lbu	a0,0(a5)
    17de:	4741                	li	a4,16
    17e0:	40a70533          	sub	a0,a4,a0
    17e4:	8082                	ret

000017e6 <__cvt>:
    17e6:	7179                	addi	sp,sp,-48
    17e8:	d422                	sw	s0,40(sp)
    17ea:	d04a                	sw	s2,32(sp)
    17ec:	cc52                	sw	s4,24(sp)
    17ee:	ca56                	sw	s5,20(sp)
    17f0:	c85a                	sw	s6,16(sp)
    17f2:	d606                	sw	ra,44(sp)
    17f4:	d226                	sw	s1,36(sp)
    17f6:	ce4e                	sw	s3,28(sp)
    17f8:	8a3a                	mv	s4,a4
    17fa:	8aae                	mv	s5,a1
    17fc:	8432                	mv	s0,a2
    17fe:	8936                	mv	s2,a3
    1800:	8b42                	mv	s6,a6
    1802:	4701                	li	a4,0
    1804:	00065863          	bgez	a2,1814 <__cvt+0x2e>
    1808:	80000737          	lui	a4,0x80000
    180c:	00c74433          	xor	s0,a4,a2
    1810:	02d00713          	li	a4,45
    1814:	00e78023          	sb	a4,0(a5)
    1818:	fdf8f493          	andi	s1,a7,-33
    181c:	04600793          	li	a5,70
    1820:	468d                	li	a3,3
    1822:	00f48863          	beq	s1,a5,1832 <__cvt+0x4c>
    1826:	04500793          	li	a5,69
    182a:	4689                	li	a3,2
    182c:	00f49363          	bne	s1,a5,1832 <__cvt+0x4c>
    1830:	0905                	addi	s2,s2,1
    1832:	87da                	mv	a5,s6
    1834:	00c10893          	addi	a7,sp,12
    1838:	00810813          	addi	a6,sp,8
    183c:	874a                	mv	a4,s2
    183e:	85d6                	mv	a1,s5
    1840:	8622                	mv	a2,s0
    1842:	0e8020ef          	jal	ra,392a <_dtoa_r>
    1846:	04700793          	li	a5,71
    184a:	89aa                	mv	s3,a0
    184c:	00f49663          	bne	s1,a5,1858 <__cvt+0x72>
    1850:	001a7a13          	andi	s4,s4,1
    1854:	040a0a63          	beqz	s4,18a8 <__cvt+0xc2>
    1858:	04600793          	li	a5,70
    185c:	01298a33          	add	s4,s3,s2
    1860:	02f49763          	bne	s1,a5,188e <__cvt+0xa8>
    1864:	0009c703          	lbu	a4,0(s3)
    1868:	03000793          	li	a5,48
    186c:	00f71e63          	bne	a4,a5,1888 <__cvt+0xa2>
    1870:	4601                	li	a2,0
    1872:	4681                	li	a3,0
    1874:	8556                	mv	a0,s5
    1876:	85a2                	mv	a1,s0
    1878:	38d050ef          	jal	ra,7404 <__eqdf2>
    187c:	c511                	beqz	a0,1888 <__cvt+0xa2>
    187e:	4785                	li	a5,1
    1880:	41278933          	sub	s2,a5,s2
    1884:	012b2023          	sw	s2,0(s6)
    1888:	000b2783          	lw	a5,0(s6)
    188c:	9a3e                	add	s4,s4,a5
    188e:	4601                	li	a2,0
    1890:	4681                	li	a3,0
    1892:	8556                	mv	a0,s5
    1894:	85a2                	mv	a1,s0
    1896:	36f050ef          	jal	ra,7404 <__eqdf2>
    189a:	e111                	bnez	a0,189e <__cvt+0xb8>
    189c:	c652                	sw	s4,12(sp)
    189e:	03000713          	li	a4,48
    18a2:	47b2                	lw	a5,12(sp)
    18a4:	0347e263          	bltu	a5,s4,18c8 <__cvt+0xe2>
    18a8:	47b2                	lw	a5,12(sp)
    18aa:	5742                	lw	a4,48(sp)
    18ac:	50b2                	lw	ra,44(sp)
    18ae:	5422                	lw	s0,40(sp)
    18b0:	413787b3          	sub	a5,a5,s3
    18b4:	c31c                	sw	a5,0(a4)
    18b6:	854e                	mv	a0,s3
    18b8:	5492                	lw	s1,36(sp)
    18ba:	5902                	lw	s2,32(sp)
    18bc:	49f2                	lw	s3,28(sp)
    18be:	4a62                	lw	s4,24(sp)
    18c0:	4ad2                	lw	s5,20(sp)
    18c2:	4b42                	lw	s6,16(sp)
    18c4:	6145                	addi	sp,sp,48
    18c6:	8082                	ret
    18c8:	00178693          	addi	a3,a5,1
    18cc:	c636                	sw	a3,12(sp)
    18ce:	00e78023          	sb	a4,0(a5)
    18d2:	bfc1                	j	18a2 <__cvt+0xbc>

000018d4 <__exponent>:
    18d4:	00c50023          	sb	a2,0(a0)
    18d8:	00250713          	addi	a4,a0,2
    18dc:	02b00793          	li	a5,43
    18e0:	0005d663          	bgez	a1,18ec <__exponent+0x18>
    18e4:	40b005b3          	neg	a1,a1
    18e8:	02d00793          	li	a5,45
    18ec:	00f500a3          	sb	a5,1(a0)
    18f0:	47a5                	li	a5,9
    18f2:	04b7da63          	bge	a5,a1,1946 <__exponent+0x72>
    18f6:	1141                	addi	sp,sp,-16
    18f8:	00f10793          	addi	a5,sp,15
    18fc:	88be                	mv	a7,a5
    18fe:	4829                	li	a6,10
    1900:	06300313          	li	t1,99
    1904:	0305e6b3          	rem	a3,a1,a6
    1908:	fff78613          	addi	a2,a5,-1
    190c:	03068693          	addi	a3,a3,48 # 10030 <_data_lma+0x763c>
    1910:	fed78fa3          	sb	a3,-1(a5)
    1914:	0305c6b3          	div	a3,a1,a6
    1918:	00b34d63          	blt	t1,a1,1932 <__exponent+0x5e>
    191c:	03068693          	addi	a3,a3,48
    1920:	17f9                	addi	a5,a5,-2
    1922:	fed60fa3          	sb	a3,-1(a2)
    1926:	0117e963          	bltu	a5,a7,1938 <__exponent+0x64>
    192a:	40a70533          	sub	a0,a4,a0
    192e:	0141                	addi	sp,sp,16
    1930:	8082                	ret
    1932:	87b2                	mv	a5,a2
    1934:	85b6                	mv	a1,a3
    1936:	b7f9                	j	1904 <__exponent+0x30>
    1938:	0785                	addi	a5,a5,1
    193a:	fff7c683          	lbu	a3,-1(a5)
    193e:	0705                	addi	a4,a4,1
    1940:	fed70fa3          	sb	a3,-1(a4) # 7fffffff <_eusrstack+0x5fffafff>
    1944:	b7cd                	j	1926 <__exponent+0x52>
    1946:	03000793          	li	a5,48
    194a:	00450713          	addi	a4,a0,4
    194e:	03058593          	addi	a1,a1,48
    1952:	00f50123          	sb	a5,2(a0)
    1956:	00b501a3          	sb	a1,3(a0)
    195a:	40a70533          	sub	a0,a4,a0
    195e:	8082                	ret

00001960 <_printf_float>:
    1960:	7119                	addi	sp,sp,-128
    1962:	ce3a                	sw	a4,28(sp)
    1964:	de86                	sw	ra,124(sp)
    1966:	dca2                	sw	s0,120(sp)
    1968:	daa6                	sw	s1,116(sp)
    196a:	842e                	mv	s0,a1
    196c:	d8ca                	sw	s2,112(sp)
    196e:	d6ce                	sw	s3,108(sp)
    1970:	d4d2                	sw	s4,104(sp)
    1972:	89b6                	mv	s3,a3
    1974:	d0da                	sw	s6,96(sp)
    1976:	cede                	sw	s7,92(sp)
    1978:	cce2                	sw	s8,88(sp)
    197a:	8932                	mv	s2,a2
    197c:	d2d6                	sw	s5,100(sp)
    197e:	cae6                	sw	s9,84(sp)
    1980:	c8ea                	sw	s10,80(sp)
    1982:	c6ee                	sw	s11,76(sp)
    1984:	84aa                	mv	s1,a0
    1986:	6d4030ef          	jal	ra,505a <_localeconv_r>
    198a:	00052b83          	lw	s7,0(a0)
    198e:	855e                	mv	a0,s7
    1990:	63f000ef          	jal	ra,27ce <strlen>
    1994:	00042b03          	lw	s6,0(s0) # 80000 <_data_lma+0x7760c>
    1998:	4772                	lw	a4,28(sp)
    199a:	dc02                	sw	zero,56(sp)
    199c:	100b7693          	andi	a3,s6,256
    19a0:	8c2a                	mv	s8,a0
    19a2:	01844a03          	lbu	s4,24(s0)
    19a6:	431c                	lw	a5,0(a4)
    19a8:	caf1                	beqz	a3,1a7c <_printf_float+0x11c>
    19aa:	00478693          	addi	a3,a5,4
    19ae:	c314                	sw	a3,0(a4)
    19b0:	439c                	lw	a5,0(a5)
    19b2:	1008                	addi	a0,sp,32
    19b4:	4398                	lw	a4,0(a5)
    19b6:	d03a                	sw	a4,32(sp)
    19b8:	43d8                	lw	a4,4(a5)
    19ba:	d23a                	sw	a4,36(sp)
    19bc:	4798                	lw	a4,8(a5)
    19be:	d43a                	sw	a4,40(sp)
    19c0:	47dc                	lw	a5,12(a5)
    19c2:	d63e                	sw	a5,44(sp)
    19c4:	7c2060ef          	jal	ra,8186 <__trunctfdf2>
    19c8:	c428                	sw	a0,72(s0)
    19ca:	c46c                	sw	a1,76(s0)
    19cc:	04c42c83          	lw	s9,76(s0)
    19d0:	00007717          	auipc	a4,0x7
    19d4:	c1870713          	addi	a4,a4,-1000 # 85e8 <__clz_tab+0x100>
    19d8:	04842a83          	lw	s5,72(s0)
    19dc:	00072d03          	lw	s10,0(a4)
    19e0:	00472d83          	lw	s11,4(a4)
    19e4:	001c9793          	slli	a5,s9,0x1
    19e8:	8385                	srli	a5,a5,0x1
    19ea:	866a                	mv	a2,s10
    19ec:	86ee                	mv	a3,s11
    19ee:	8556                	mv	a0,s5
    19f0:	85be                	mv	a1,a5
    19f2:	ce3e                	sw	a5,28(sp)
    19f4:	31c060ef          	jal	ra,7d10 <__unorddf2>
    19f8:	ed41                	bnez	a0,1a90 <_printf_float+0x130>
    19fa:	47f2                	lw	a5,28(sp)
    19fc:	866a                	mv	a2,s10
    19fe:	86ee                	mv	a3,s11
    1a00:	8556                	mv	a0,s5
    1a02:	85be                	mv	a1,a5
    1a04:	319050ef          	jal	ra,751c <__ledf2>
    1a08:	08a05463          	blez	a0,1a90 <_printf_float+0x130>
    1a0c:	4601                	li	a2,0
    1a0e:	4681                	li	a3,0
    1a10:	8556                	mv	a0,s5
    1a12:	85e6                	mv	a1,s9
    1a14:	309050ef          	jal	ra,751c <__ledf2>
    1a18:	00055663          	bgez	a0,1a24 <_printf_float+0xc4>
    1a1c:	02d00793          	li	a5,45
    1a20:	04f401a3          	sb	a5,67(s0)
    1a24:	04700793          	li	a5,71
    1a28:	00007a97          	auipc	s5,0x7
    1a2c:	bc8a8a93          	addi	s5,s5,-1080 # 85f0 <__clz_tab+0x108>
    1a30:	0147f663          	bgeu	a5,s4,1a3c <_printf_float+0xdc>
    1a34:	00007a97          	auipc	s5,0x7
    1a38:	bc0a8a93          	addi	s5,s5,-1088 # 85f4 <__clz_tab+0x10c>
    1a3c:	ffbb7b13          	andi	s6,s6,-5
    1a40:	478d                	li	a5,3
    1a42:	01642023          	sw	s6,0(s0)
    1a46:	c81c                	sw	a5,16(s0)
    1a48:	4b01                	li	s6,0
    1a4a:	874e                	mv	a4,s3
    1a4c:	86ca                	mv	a3,s2
    1a4e:	1870                	addi	a2,sp,60
    1a50:	85a2                	mv	a1,s0
    1a52:	8526                	mv	a0,s1
    1a54:	26f1                	jal	1e20 <_printf_common>
    1a56:	5cfd                	li	s9,-1
    1a58:	15951c63          	bne	a0,s9,1bb0 <_printf_float+0x250>
    1a5c:	557d                	li	a0,-1
    1a5e:	50f6                	lw	ra,124(sp)
    1a60:	5466                	lw	s0,120(sp)
    1a62:	54d6                	lw	s1,116(sp)
    1a64:	5946                	lw	s2,112(sp)
    1a66:	59b6                	lw	s3,108(sp)
    1a68:	5a26                	lw	s4,104(sp)
    1a6a:	5a96                	lw	s5,100(sp)
    1a6c:	5b06                	lw	s6,96(sp)
    1a6e:	4bf6                	lw	s7,92(sp)
    1a70:	4c66                	lw	s8,88(sp)
    1a72:	4cd6                	lw	s9,84(sp)
    1a74:	4d46                	lw	s10,80(sp)
    1a76:	4db6                	lw	s11,76(sp)
    1a78:	6109                	addi	sp,sp,128
    1a7a:	8082                	ret
    1a7c:	079d                	addi	a5,a5,7
    1a7e:	9be1                	andi	a5,a5,-8
    1a80:	00878693          	addi	a3,a5,8
    1a84:	c314                	sw	a3,0(a4)
    1a86:	4398                	lw	a4,0(a5)
    1a88:	43dc                	lw	a5,4(a5)
    1a8a:	c438                	sw	a4,72(s0)
    1a8c:	c47c                	sw	a5,76(s0)
    1a8e:	bf3d                	j	19cc <_printf_float+0x6c>
    1a90:	8656                	mv	a2,s5
    1a92:	86e6                	mv	a3,s9
    1a94:	8556                	mv	a0,s5
    1a96:	85e6                	mv	a1,s9
    1a98:	278060ef          	jal	ra,7d10 <__unorddf2>
    1a9c:	cd11                	beqz	a0,1ab8 <_printf_float+0x158>
    1a9e:	04700793          	li	a5,71
    1aa2:	00007a97          	auipc	s5,0x7
    1aa6:	b56a8a93          	addi	s5,s5,-1194 # 85f8 <__clz_tab+0x110>
    1aaa:	f947f9e3          	bgeu	a5,s4,1a3c <_printf_float+0xdc>
    1aae:	00007a97          	auipc	s5,0x7
    1ab2:	b4ea8a93          	addi	s5,s5,-1202 # 85fc <__clz_tab+0x114>
    1ab6:	b759                	j	1a3c <_printf_float+0xdc>
    1ab8:	405c                	lw	a5,4(s0)
    1aba:	577d                	li	a4,-1
    1abc:	0dfa7d13          	andi	s10,s4,223
    1ac0:	08e79363          	bne	a5,a4,1b46 <_printf_float+0x1e6>
    1ac4:	4799                	li	a5,6
    1ac6:	c05c                	sw	a5,4(s0)
    1ac8:	4054                	lw	a3,4(s0)
    1aca:	400b6713          	ori	a4,s6,1024
    1ace:	183c                	addi	a5,sp,56
    1ad0:	85d6                	mv	a1,s5
    1ad2:	c03e                	sw	a5,0(sp)
    1ad4:	c018                	sw	a4,0(s0)
    1ad6:	03310793          	addi	a5,sp,51
    1ada:	c202                	sw	zero,4(sp)
    1adc:	88d2                	mv	a7,s4
    1ade:	03410813          	addi	a6,sp,52
    1ae2:	8666                	mv	a2,s9
    1ae4:	8526                	mv	a0,s1
    1ae6:	3301                	jal	17e6 <__cvt>
    1ae8:	04700793          	li	a5,71
    1aec:	8aaa                	mv	s5,a0
    1aee:	55d2                	lw	a1,52(sp)
    1af0:	00fd1b63          	bne	s10,a5,1b06 <_printf_float+0x1a6>
    1af4:	57f5                	li	a5,-3
    1af6:	00f5c563          	blt	a1,a5,1b00 <_printf_float+0x1a0>
    1afa:	405c                	lw	a5,4(s0)
    1afc:	08b7d763          	bge	a5,a1,1b8a <_printf_float+0x22a>
    1b00:	1a79                	addi	s4,s4,-2
    1b02:	0ffa7a13          	andi	s4,s4,255
    1b06:	06500793          	li	a5,101
    1b0a:	0547e563          	bltu	a5,s4,1b54 <_printf_float+0x1f4>
    1b0e:	15fd                	addi	a1,a1,-1
    1b10:	8652                	mv	a2,s4
    1b12:	05040513          	addi	a0,s0,80
    1b16:	da2e                	sw	a1,52(sp)
    1b18:	3b75                	jal	18d4 <__exponent>
    1b1a:	5762                	lw	a4,56(sp)
    1b1c:	4685                	li	a3,1
    1b1e:	8b2a                	mv	s6,a0
    1b20:	00a707b3          	add	a5,a4,a0
    1b24:	c81c                	sw	a5,16(s0)
    1b26:	00e6c563          	blt	a3,a4,1b30 <_printf_float+0x1d0>
    1b2a:	4018                	lw	a4,0(s0)
    1b2c:	8b05                	andi	a4,a4,1
    1b2e:	c319                	beqz	a4,1b34 <_printf_float+0x1d4>
    1b30:	0785                	addi	a5,a5,1
    1b32:	c81c                	sw	a5,16(s0)
    1b34:	03314783          	lbu	a5,51(sp)
    1b38:	f00789e3          	beqz	a5,1a4a <_printf_float+0xea>
    1b3c:	02d00793          	li	a5,45
    1b40:	04f401a3          	sb	a5,67(s0)
    1b44:	b719                	j	1a4a <_printf_float+0xea>
    1b46:	04700713          	li	a4,71
    1b4a:	f6ed1fe3          	bne	s10,a4,1ac8 <_printf_float+0x168>
    1b4e:	ffad                	bnez	a5,1ac8 <_printf_float+0x168>
    1b50:	4785                	li	a5,1
    1b52:	bf95                	j	1ac6 <_printf_float+0x166>
    1b54:	06600793          	li	a5,102
    1b58:	02fa1b63          	bne	s4,a5,1b8e <_printf_float+0x22e>
    1b5c:	405c                	lw	a5,4(s0)
    1b5e:	00b05b63          	blez	a1,1b74 <_printf_float+0x214>
    1b62:	c80c                	sw	a1,16(s0)
    1b64:	e781                	bnez	a5,1b6c <_printf_float+0x20c>
    1b66:	4018                	lw	a4,0(s0)
    1b68:	8b05                	andi	a4,a4,1
    1b6a:	cf09                	beqz	a4,1b84 <_printf_float+0x224>
    1b6c:	0785                	addi	a5,a5,1
    1b6e:	97ae                	add	a5,a5,a1
    1b70:	c81c                	sw	a5,16(s0)
    1b72:	a809                	j	1b84 <_printf_float+0x224>
    1b74:	e789                	bnez	a5,1b7e <_printf_float+0x21e>
    1b76:	4018                	lw	a4,0(s0)
    1b78:	4685                	li	a3,1
    1b7a:	8b05                	andi	a4,a4,1
    1b7c:	c319                	beqz	a4,1b82 <_printf_float+0x222>
    1b7e:	00278693          	addi	a3,a5,2
    1b82:	c814                	sw	a3,16(s0)
    1b84:	cc2c                	sw	a1,88(s0)
    1b86:	4b01                	li	s6,0
    1b88:	b775                	j	1b34 <_printf_float+0x1d4>
    1b8a:	06700a13          	li	s4,103
    1b8e:	57e2                	lw	a5,56(sp)
    1b90:	00f5c963          	blt	a1,a5,1ba2 <_printf_float+0x242>
    1b94:	401c                	lw	a5,0(s0)
    1b96:	c80c                	sw	a1,16(s0)
    1b98:	8b85                	andi	a5,a5,1
    1b9a:	d7ed                	beqz	a5,1b84 <_printf_float+0x224>
    1b9c:	00158793          	addi	a5,a1,1
    1ba0:	bfc1                	j	1b70 <_printf_float+0x210>
    1ba2:	4705                	li	a4,1
    1ba4:	00b04463          	bgtz	a1,1bac <_printf_float+0x24c>
    1ba8:	4709                	li	a4,2
    1baa:	8f0d                	sub	a4,a4,a1
    1bac:	97ba                	add	a5,a5,a4
    1bae:	b7c9                	j	1b70 <_printf_float+0x210>
    1bb0:	401c                	lw	a5,0(s0)
    1bb2:	4007f713          	andi	a4,a5,1024
    1bb6:	e315                	bnez	a4,1bda <_printf_float+0x27a>
    1bb8:	4814                	lw	a3,16(s0)
    1bba:	8656                	mv	a2,s5
    1bbc:	85ca                	mv	a1,s2
    1bbe:	8526                	mv	a0,s1
    1bc0:	9982                	jalr	s3
    1bc2:	e9950de3          	beq	a0,s9,1a5c <_printf_float+0xfc>
    1bc6:	401c                	lw	a5,0(s0)
    1bc8:	8b89                	andi	a5,a5,2
    1bca:	24079663          	bnez	a5,1e16 <_printf_float+0x4b6>
    1bce:	57f2                	lw	a5,60(sp)
    1bd0:	4448                	lw	a0,12(s0)
    1bd2:	e8f556e3          	bge	a0,a5,1a5e <_printf_float+0xfe>
    1bd6:	853e                	mv	a0,a5
    1bd8:	b559                	j	1a5e <_printf_float+0xfe>
    1bda:	06500713          	li	a4,101
    1bde:	19477b63          	bgeu	a4,s4,1d74 <_printf_float+0x414>
    1be2:	4428                	lw	a0,72(s0)
    1be4:	446c                	lw	a1,76(s0)
    1be6:	4601                	li	a2,0
    1be8:	4681                	li	a3,0
    1bea:	01b050ef          	jal	ra,7404 <__eqdf2>
    1bee:	e939                	bnez	a0,1c44 <_printf_float+0x2e4>
    1bf0:	4685                	li	a3,1
    1bf2:	00007617          	auipc	a2,0x7
    1bf6:	a0e60613          	addi	a2,a2,-1522 # 8600 <__clz_tab+0x118>
    1bfa:	85ca                	mv	a1,s2
    1bfc:	8526                	mv	a0,s1
    1bfe:	9982                	jalr	s3
    1c00:	e5950ee3          	beq	a0,s9,1a5c <_printf_float+0xfc>
    1c04:	5752                	lw	a4,52(sp)
    1c06:	57e2                	lw	a5,56(sp)
    1c08:	00f74563          	blt	a4,a5,1c12 <_printf_float+0x2b2>
    1c0c:	401c                	lw	a5,0(s0)
    1c0e:	8b85                	andi	a5,a5,1
    1c10:	dbdd                	beqz	a5,1bc6 <_printf_float+0x266>
    1c12:	86e2                	mv	a3,s8
    1c14:	865e                	mv	a2,s7
    1c16:	85ca                	mv	a1,s2
    1c18:	8526                	mv	a0,s1
    1c1a:	9982                	jalr	s3
    1c1c:	57fd                	li	a5,-1
    1c1e:	e2f50fe3          	beq	a0,a5,1a5c <_printf_float+0xfc>
    1c22:	4a01                	li	s4,0
    1c24:	01a40a93          	addi	s5,s0,26
    1c28:	5b7d                	li	s6,-1
    1c2a:	57e2                	lw	a5,56(sp)
    1c2c:	17fd                	addi	a5,a5,-1
    1c2e:	f8fa5ce3          	bge	s4,a5,1bc6 <_printf_float+0x266>
    1c32:	4685                	li	a3,1
    1c34:	8656                	mv	a2,s5
    1c36:	85ca                	mv	a1,s2
    1c38:	8526                	mv	a0,s1
    1c3a:	9982                	jalr	s3
    1c3c:	e36500e3          	beq	a0,s6,1a5c <_printf_float+0xfc>
    1c40:	0a05                	addi	s4,s4,1
    1c42:	b7e5                	j	1c2a <_printf_float+0x2ca>
    1c44:	57d2                	lw	a5,52(sp)
    1c46:	06f04663          	bgtz	a5,1cb2 <_printf_float+0x352>
    1c4a:	4685                	li	a3,1
    1c4c:	00007617          	auipc	a2,0x7
    1c50:	9b460613          	addi	a2,a2,-1612 # 8600 <__clz_tab+0x118>
    1c54:	85ca                	mv	a1,s2
    1c56:	8526                	mv	a0,s1
    1c58:	9982                	jalr	s3
    1c5a:	e19501e3          	beq	a0,s9,1a5c <_printf_float+0xfc>
    1c5e:	57d2                	lw	a5,52(sp)
    1c60:	5762                	lw	a4,56(sp)
    1c62:	8fd9                	or	a5,a5,a4
    1c64:	e781                	bnez	a5,1c6c <_printf_float+0x30c>
    1c66:	401c                	lw	a5,0(s0)
    1c68:	8b85                	andi	a5,a5,1
    1c6a:	dfb1                	beqz	a5,1bc6 <_printf_float+0x266>
    1c6c:	86e2                	mv	a3,s8
    1c6e:	865e                	mv	a2,s7
    1c70:	85ca                	mv	a1,s2
    1c72:	8526                	mv	a0,s1
    1c74:	9982                	jalr	s3
    1c76:	57fd                	li	a5,-1
    1c78:	def502e3          	beq	a0,a5,1a5c <_printf_float+0xfc>
    1c7c:	4a01                	li	s4,0
    1c7e:	01a40b13          	addi	s6,s0,26
    1c82:	5bfd                	li	s7,-1
    1c84:	57d2                	lw	a5,52(sp)
    1c86:	40f007b3          	neg	a5,a5
    1c8a:	00fa4b63          	blt	s4,a5,1ca0 <_printf_float+0x340>
    1c8e:	56e2                	lw	a3,56(sp)
    1c90:	8656                	mv	a2,s5
    1c92:	85ca                	mv	a1,s2
    1c94:	8526                	mv	a0,s1
    1c96:	9982                	jalr	s3
    1c98:	57fd                	li	a5,-1
    1c9a:	f2f516e3          	bne	a0,a5,1bc6 <_printf_float+0x266>
    1c9e:	bb7d                	j	1a5c <_printf_float+0xfc>
    1ca0:	4685                	li	a3,1
    1ca2:	865a                	mv	a2,s6
    1ca4:	85ca                	mv	a1,s2
    1ca6:	8526                	mv	a0,s1
    1ca8:	9982                	jalr	s3
    1caa:	db7509e3          	beq	a0,s7,1a5c <_printf_float+0xfc>
    1cae:	0a05                	addi	s4,s4,1
    1cb0:	bfd1                	j	1c84 <_printf_float+0x324>
    1cb2:	4c3c                	lw	a5,88(s0)
    1cb4:	5a62                	lw	s4,56(sp)
    1cb6:	0147d363          	bge	a5,s4,1cbc <_printf_float+0x35c>
    1cba:	8a3e                	mv	s4,a5
    1cbc:	01405a63          	blez	s4,1cd0 <_printf_float+0x370>
    1cc0:	86d2                	mv	a3,s4
    1cc2:	8656                	mv	a2,s5
    1cc4:	85ca                	mv	a1,s2
    1cc6:	8526                	mv	a0,s1
    1cc8:	9982                	jalr	s3
    1cca:	57fd                	li	a5,-1
    1ccc:	d8f508e3          	beq	a0,a5,1a5c <_printf_float+0xfc>
    1cd0:	4c81                	li	s9,0
    1cd2:	01a40d13          	addi	s10,s0,26
    1cd6:	5dfd                	li	s11,-1
    1cd8:	a809                	j	1cea <_printf_float+0x38a>
    1cda:	4685                	li	a3,1
    1cdc:	866a                	mv	a2,s10
    1cde:	85ca                	mv	a1,s2
    1ce0:	8526                	mv	a0,s1
    1ce2:	9982                	jalr	s3
    1ce4:	d7b50ce3          	beq	a0,s11,1a5c <_printf_float+0xfc>
    1ce8:	0c85                	addi	s9,s9,1
    1cea:	05842b03          	lw	s6,88(s0)
    1cee:	87d2                	mv	a5,s4
    1cf0:	000a5363          	bgez	s4,1cf6 <_printf_float+0x396>
    1cf4:	4781                	li	a5,0
    1cf6:	40fb07b3          	sub	a5,s6,a5
    1cfa:	fefcc0e3          	blt	s9,a5,1cda <_printf_float+0x37a>
    1cfe:	5752                	lw	a4,52(sp)
    1d00:	57e2                	lw	a5,56(sp)
    1d02:	02f74d63          	blt	a4,a5,1d3c <_printf_float+0x3dc>
    1d06:	401c                	lw	a5,0(s0)
    1d08:	8b85                	andi	a5,a5,1
    1d0a:	eb8d                	bnez	a5,1d3c <_printf_float+0x3dc>
    1d0c:	57e2                	lw	a5,56(sp)
    1d0e:	5752                	lw	a4,52(sp)
    1d10:	40e78a33          	sub	s4,a5,a4
    1d14:	00eb4463          	blt	s6,a4,1d1c <_printf_float+0x3bc>
    1d18:	41678a33          	sub	s4,a5,s6
    1d1c:	01405b63          	blez	s4,1d32 <_printf_float+0x3d2>
    1d20:	86d2                	mv	a3,s4
    1d22:	016a8633          	add	a2,s5,s6
    1d26:	85ca                	mv	a1,s2
    1d28:	8526                	mv	a0,s1
    1d2a:	9982                	jalr	s3
    1d2c:	57fd                	li	a5,-1
    1d2e:	d2f507e3          	beq	a0,a5,1a5c <_printf_float+0xfc>
    1d32:	4a81                	li	s5,0
    1d34:	01a40b13          	addi	s6,s0,26
    1d38:	5bfd                	li	s7,-1
    1d3a:	a015                	j	1d5e <_printf_float+0x3fe>
    1d3c:	86e2                	mv	a3,s8
    1d3e:	865e                	mv	a2,s7
    1d40:	85ca                	mv	a1,s2
    1d42:	8526                	mv	a0,s1
    1d44:	9982                	jalr	s3
    1d46:	57fd                	li	a5,-1
    1d48:	fcf512e3          	bne	a0,a5,1d0c <_printf_float+0x3ac>
    1d4c:	bb01                	j	1a5c <_printf_float+0xfc>
    1d4e:	4685                	li	a3,1
    1d50:	865a                	mv	a2,s6
    1d52:	85ca                	mv	a1,s2
    1d54:	8526                	mv	a0,s1
    1d56:	9982                	jalr	s3
    1d58:	d17502e3          	beq	a0,s7,1a5c <_printf_float+0xfc>
    1d5c:	0a85                	addi	s5,s5,1
    1d5e:	5752                	lw	a4,52(sp)
    1d60:	57e2                	lw	a5,56(sp)
    1d62:	8f99                	sub	a5,a5,a4
    1d64:	8752                	mv	a4,s4
    1d66:	000a5363          	bgez	s4,1d6c <_printf_float+0x40c>
    1d6a:	4701                	li	a4,0
    1d6c:	8f99                	sub	a5,a5,a4
    1d6e:	fefac0e3          	blt	s5,a5,1d4e <_printf_float+0x3ee>
    1d72:	bd91                	j	1bc6 <_printf_float+0x266>
    1d74:	56e2                	lw	a3,56(sp)
    1d76:	4705                	li	a4,1
    1d78:	00d74463          	blt	a4,a3,1d80 <_printf_float+0x420>
    1d7c:	8b85                	andi	a5,a5,1
    1d7e:	c7b5                	beqz	a5,1dea <_printf_float+0x48a>
    1d80:	4685                	li	a3,1
    1d82:	8656                	mv	a2,s5
    1d84:	85ca                	mv	a1,s2
    1d86:	8526                	mv	a0,s1
    1d88:	9982                	jalr	s3
    1d8a:	5a7d                	li	s4,-1
    1d8c:	cd4508e3          	beq	a0,s4,1a5c <_printf_float+0xfc>
    1d90:	86e2                	mv	a3,s8
    1d92:	865e                	mv	a2,s7
    1d94:	85ca                	mv	a1,s2
    1d96:	8526                	mv	a0,s1
    1d98:	9982                	jalr	s3
    1d9a:	cd4501e3          	beq	a0,s4,1a5c <_printf_float+0xfc>
    1d9e:	4428                	lw	a0,72(s0)
    1da0:	446c                	lw	a1,76(s0)
    1da2:	4601                	li	a2,0
    1da4:	4681                	li	a3,0
    1da6:	65e050ef          	jal	ra,7404 <__eqdf2>
    1daa:	c91d                	beqz	a0,1de0 <_printf_float+0x480>
    1dac:	56e2                	lw	a3,56(sp)
    1dae:	001a8613          	addi	a2,s5,1
    1db2:	85ca                	mv	a1,s2
    1db4:	16fd                	addi	a3,a3,-1
    1db6:	8526                	mv	a0,s1
    1db8:	9982                	jalr	s3
    1dba:	cb4501e3          	beq	a0,s4,1a5c <_printf_float+0xfc>
    1dbe:	86da                	mv	a3,s6
    1dc0:	05040613          	addi	a2,s0,80
    1dc4:	b5f9                	j	1c92 <_printf_float+0x332>
    1dc6:	4685                	li	a3,1
    1dc8:	8656                	mv	a2,s5
    1dca:	85ca                	mv	a1,s2
    1dcc:	8526                	mv	a0,s1
    1dce:	9982                	jalr	s3
    1dd0:	c97506e3          	beq	a0,s7,1a5c <_printf_float+0xfc>
    1dd4:	0a05                	addi	s4,s4,1
    1dd6:	57e2                	lw	a5,56(sp)
    1dd8:	17fd                	addi	a5,a5,-1
    1dda:	fefa46e3          	blt	s4,a5,1dc6 <_printf_float+0x466>
    1dde:	b7c5                	j	1dbe <_printf_float+0x45e>
    1de0:	4a01                	li	s4,0
    1de2:	01a40a93          	addi	s5,s0,26
    1de6:	5bfd                	li	s7,-1
    1de8:	b7fd                	j	1dd6 <_printf_float+0x476>
    1dea:	4685                	li	a3,1
    1dec:	8656                	mv	a2,s5
    1dee:	85ca                	mv	a1,s2
    1df0:	8526                	mv	a0,s1
    1df2:	9982                	jalr	s3
    1df4:	fd9515e3          	bne	a0,s9,1dbe <_printf_float+0x45e>
    1df8:	b195                	j	1a5c <_printf_float+0xfc>
    1dfa:	4685                	li	a3,1
    1dfc:	8656                	mv	a2,s5
    1dfe:	85ca                	mv	a1,s2
    1e00:	8526                	mv	a0,s1
    1e02:	9982                	jalr	s3
    1e04:	c5650ce3          	beq	a0,s6,1a5c <_printf_float+0xfc>
    1e08:	0a05                	addi	s4,s4,1
    1e0a:	445c                	lw	a5,12(s0)
    1e0c:	5772                	lw	a4,60(sp)
    1e0e:	8f99                	sub	a5,a5,a4
    1e10:	fefa45e3          	blt	s4,a5,1dfa <_printf_float+0x49a>
    1e14:	bb6d                	j	1bce <_printf_float+0x26e>
    1e16:	4a01                	li	s4,0
    1e18:	01940a93          	addi	s5,s0,25
    1e1c:	5b7d                	li	s6,-1
    1e1e:	b7f5                	j	1e0a <_printf_float+0x4aa>

00001e20 <_printf_common>:
    1e20:	7179                	addi	sp,sp,-48
    1e22:	ca56                	sw	s5,20(sp)
    1e24:	499c                	lw	a5,16(a1)
    1e26:	8aba                	mv	s5,a4
    1e28:	4598                	lw	a4,8(a1)
    1e2a:	d422                	sw	s0,40(sp)
    1e2c:	d226                	sw	s1,36(sp)
    1e2e:	ce4e                	sw	s3,28(sp)
    1e30:	cc52                	sw	s4,24(sp)
    1e32:	d606                	sw	ra,44(sp)
    1e34:	d04a                	sw	s2,32(sp)
    1e36:	c85a                	sw	s6,16(sp)
    1e38:	c65e                	sw	s7,12(sp)
    1e3a:	89aa                	mv	s3,a0
    1e3c:	842e                	mv	s0,a1
    1e3e:	84b2                	mv	s1,a2
    1e40:	8a36                	mv	s4,a3
    1e42:	00e7d363          	bge	a5,a4,1e48 <_printf_common+0x28>
    1e46:	87ba                	mv	a5,a4
    1e48:	c09c                	sw	a5,0(s1)
    1e4a:	04344703          	lbu	a4,67(s0)
    1e4e:	c319                	beqz	a4,1e54 <_printf_common+0x34>
    1e50:	0785                	addi	a5,a5,1
    1e52:	c09c                	sw	a5,0(s1)
    1e54:	401c                	lw	a5,0(s0)
    1e56:	0207f793          	andi	a5,a5,32
    1e5a:	c781                	beqz	a5,1e62 <_printf_common+0x42>
    1e5c:	409c                	lw	a5,0(s1)
    1e5e:	0789                	addi	a5,a5,2
    1e60:	c09c                	sw	a5,0(s1)
    1e62:	00042903          	lw	s2,0(s0)
    1e66:	00697913          	andi	s2,s2,6
    1e6a:	00091a63          	bnez	s2,1e7e <_printf_common+0x5e>
    1e6e:	01940b13          	addi	s6,s0,25
    1e72:	5bfd                	li	s7,-1
    1e74:	445c                	lw	a5,12(s0)
    1e76:	4098                	lw	a4,0(s1)
    1e78:	8f99                	sub	a5,a5,a4
    1e7a:	04f94c63          	blt	s2,a5,1ed2 <_printf_common+0xb2>
    1e7e:	401c                	lw	a5,0(s0)
    1e80:	04344683          	lbu	a3,67(s0)
    1e84:	0207f793          	andi	a5,a5,32
    1e88:	00d036b3          	snez	a3,a3
    1e8c:	eba5                	bnez	a5,1efc <_printf_common+0xdc>
    1e8e:	04340613          	addi	a2,s0,67
    1e92:	85d2                	mv	a1,s4
    1e94:	854e                	mv	a0,s3
    1e96:	9a82                	jalr	s5
    1e98:	57fd                	li	a5,-1
    1e9a:	04f50363          	beq	a0,a5,1ee0 <_printf_common+0xc0>
    1e9e:	401c                	lw	a5,0(s0)
    1ea0:	4611                	li	a2,4
    1ea2:	4098                	lw	a4,0(s1)
    1ea4:	8b99                	andi	a5,a5,6
    1ea6:	4454                	lw	a3,12(s0)
    1ea8:	4481                	li	s1,0
    1eaa:	00c79763          	bne	a5,a2,1eb8 <_printf_common+0x98>
    1eae:	40e684b3          	sub	s1,a3,a4
    1eb2:	0004d363          	bgez	s1,1eb8 <_printf_common+0x98>
    1eb6:	4481                	li	s1,0
    1eb8:	441c                	lw	a5,8(s0)
    1eba:	4818                	lw	a4,16(s0)
    1ebc:	00f75463          	bge	a4,a5,1ec4 <_printf_common+0xa4>
    1ec0:	8f99                	sub	a5,a5,a4
    1ec2:	94be                	add	s1,s1,a5
    1ec4:	4901                	li	s2,0
    1ec6:	0469                	addi	s0,s0,26
    1ec8:	5b7d                	li	s6,-1
    1eca:	05249863          	bne	s1,s2,1f1a <_printf_common+0xfa>
    1ece:	4501                	li	a0,0
    1ed0:	a809                	j	1ee2 <_printf_common+0xc2>
    1ed2:	4685                	li	a3,1
    1ed4:	865a                	mv	a2,s6
    1ed6:	85d2                	mv	a1,s4
    1ed8:	854e                	mv	a0,s3
    1eda:	9a82                	jalr	s5
    1edc:	01751e63          	bne	a0,s7,1ef8 <_printf_common+0xd8>
    1ee0:	557d                	li	a0,-1
    1ee2:	50b2                	lw	ra,44(sp)
    1ee4:	5422                	lw	s0,40(sp)
    1ee6:	5492                	lw	s1,36(sp)
    1ee8:	5902                	lw	s2,32(sp)
    1eea:	49f2                	lw	s3,28(sp)
    1eec:	4a62                	lw	s4,24(sp)
    1eee:	4ad2                	lw	s5,20(sp)
    1ef0:	4b42                	lw	s6,16(sp)
    1ef2:	4bb2                	lw	s7,12(sp)
    1ef4:	6145                	addi	sp,sp,48
    1ef6:	8082                	ret
    1ef8:	0905                	addi	s2,s2,1
    1efa:	bfad                	j	1e74 <_printf_common+0x54>
    1efc:	00d40733          	add	a4,s0,a3
    1f00:	03000613          	li	a2,48
    1f04:	04c701a3          	sb	a2,67(a4)
    1f08:	04544703          	lbu	a4,69(s0)
    1f0c:	00168793          	addi	a5,a3,1
    1f10:	97a2                	add	a5,a5,s0
    1f12:	0689                	addi	a3,a3,2
    1f14:	04e781a3          	sb	a4,67(a5)
    1f18:	bf9d                	j	1e8e <_printf_common+0x6e>
    1f1a:	4685                	li	a3,1
    1f1c:	8622                	mv	a2,s0
    1f1e:	85d2                	mv	a1,s4
    1f20:	854e                	mv	a0,s3
    1f22:	9a82                	jalr	s5
    1f24:	fb650ee3          	beq	a0,s6,1ee0 <_printf_common+0xc0>
    1f28:	0905                	addi	s2,s2,1
    1f2a:	b745                	j	1eca <_printf_common+0xaa>

00001f2c <_printf_i>:
    1f2c:	7179                	addi	sp,sp,-48
    1f2e:	d422                	sw	s0,40(sp)
    1f30:	d226                	sw	s1,36(sp)
    1f32:	d04a                	sw	s2,32(sp)
    1f34:	ce4e                	sw	s3,28(sp)
    1f36:	d606                	sw	ra,44(sp)
    1f38:	cc52                	sw	s4,24(sp)
    1f3a:	ca56                	sw	s5,20(sp)
    1f3c:	c85a                	sw	s6,16(sp)
    1f3e:	89b6                	mv	s3,a3
    1f40:	0185c683          	lbu	a3,24(a1)
    1f44:	06900793          	li	a5,105
    1f48:	8932                	mv	s2,a2
    1f4a:	84aa                	mv	s1,a0
    1f4c:	842e                	mv	s0,a1
    1f4e:	04358613          	addi	a2,a1,67
    1f52:	02f68d63          	beq	a3,a5,1f8c <_printf_i+0x60>
    1f56:	06d7e263          	bltu	a5,a3,1fba <_printf_i+0x8e>
    1f5a:	05800793          	li	a5,88
    1f5e:	18f68863          	beq	a3,a5,20ee <_printf_i+0x1c2>
    1f62:	00d7ed63          	bltu	a5,a3,1f7c <_printf_i+0x50>
    1f66:	22068163          	beqz	a3,2188 <_printf_i+0x25c>
    1f6a:	04300793          	li	a5,67
    1f6e:	0af68f63          	beq	a3,a5,202c <_printf_i+0x100>
    1f72:	04240a93          	addi	s5,s0,66
    1f76:	04d40123          	sb	a3,66(s0)
    1f7a:	a0d1                	j	203e <_printf_i+0x112>
    1f7c:	06300793          	li	a5,99
    1f80:	0af68663          	beq	a3,a5,202c <_printf_i+0x100>
    1f84:	06400793          	li	a5,100
    1f88:	fef695e3          	bne	a3,a5,1f72 <_printf_i+0x46>
    1f8c:	401c                	lw	a5,0(s0)
    1f8e:	4308                	lw	a0,0(a4)
    1f90:	0807f693          	andi	a3,a5,128
    1f94:	00450593          	addi	a1,a0,4
    1f98:	c6cd                	beqz	a3,2042 <_printf_i+0x116>
    1f9a:	411c                	lw	a5,0(a0)
    1f9c:	c30c                	sw	a1,0(a4)
    1f9e:	0007d863          	bgez	a5,1fae <_printf_i+0x82>
    1fa2:	02d00713          	li	a4,45
    1fa6:	40f007b3          	neg	a5,a5
    1faa:	04e401a3          	sb	a4,67(s0)
    1fae:	00006697          	auipc	a3,0x6
    1fb2:	65668693          	addi	a3,a3,1622 # 8604 <__clz_tab+0x11c>
    1fb6:	4729                	li	a4,10
    1fb8:	a875                	j	2074 <_printf_i+0x148>
    1fba:	07000793          	li	a5,112
    1fbe:	16f68463          	beq	a3,a5,2126 <_printf_i+0x1fa>
    1fc2:	02d7e563          	bltu	a5,a3,1fec <_printf_i+0xc0>
    1fc6:	06e00793          	li	a5,110
    1fca:	18f68b63          	beq	a3,a5,2160 <_printf_i+0x234>
    1fce:	06f00793          	li	a5,111
    1fd2:	faf690e3          	bne	a3,a5,1f72 <_printf_i+0x46>
    1fd6:	400c                	lw	a1,0(s0)
    1fd8:	431c                	lw	a5,0(a4)
    1fda:	0805f813          	andi	a6,a1,128
    1fde:	00478513          	addi	a0,a5,4
    1fe2:	06080863          	beqz	a6,2052 <_printf_i+0x126>
    1fe6:	c308                	sw	a0,0(a4)
    1fe8:	439c                	lw	a5,0(a5)
    1fea:	a895                	j	205e <_printf_i+0x132>
    1fec:	07500793          	li	a5,117
    1ff0:	fef683e3          	beq	a3,a5,1fd6 <_printf_i+0xaa>
    1ff4:	07800793          	li	a5,120
    1ff8:	12f68b63          	beq	a3,a5,212e <_printf_i+0x202>
    1ffc:	07300793          	li	a5,115
    2000:	f6f699e3          	bne	a3,a5,1f72 <_printf_i+0x46>
    2004:	431c                	lw	a5,0(a4)
    2006:	41d0                	lw	a2,4(a1)
    2008:	4581                	li	a1,0
    200a:	00478693          	addi	a3,a5,4
    200e:	c314                	sw	a3,0(a4)
    2010:	0007aa83          	lw	s5,0(a5)
    2014:	8556                	mv	a0,s5
    2016:	19e030ef          	jal	ra,51b4 <memchr>
    201a:	c501                	beqz	a0,2022 <_printf_i+0xf6>
    201c:	41550533          	sub	a0,a0,s5
    2020:	c048                	sw	a0,4(s0)
    2022:	405c                	lw	a5,4(s0)
    2024:	c81c                	sw	a5,16(s0)
    2026:	040401a3          	sb	zero,67(s0)
    202a:	a871                	j	20c6 <_printf_i+0x19a>
    202c:	431c                	lw	a5,0(a4)
    202e:	04240a93          	addi	s5,s0,66
    2032:	00478693          	addi	a3,a5,4
    2036:	439c                	lw	a5,0(a5)
    2038:	c314                	sw	a3,0(a4)
    203a:	04f40123          	sb	a5,66(s0)
    203e:	4785                	li	a5,1
    2040:	b7d5                	j	2024 <_printf_i+0xf8>
    2042:	0407f693          	andi	a3,a5,64
    2046:	411c                	lw	a5,0(a0)
    2048:	c30c                	sw	a1,0(a4)
    204a:	dab1                	beqz	a3,1f9e <_printf_i+0x72>
    204c:	07c2                	slli	a5,a5,0x10
    204e:	87c1                	srai	a5,a5,0x10
    2050:	b7b9                	j	1f9e <_printf_i+0x72>
    2052:	0405f593          	andi	a1,a1,64
    2056:	c308                	sw	a0,0(a4)
    2058:	d9c1                	beqz	a1,1fe8 <_printf_i+0xbc>
    205a:	0007d783          	lhu	a5,0(a5)
    205e:	06f00713          	li	a4,111
    2062:	0ee68763          	beq	a3,a4,2150 <_printf_i+0x224>
    2066:	00006697          	auipc	a3,0x6
    206a:	59e68693          	addi	a3,a3,1438 # 8604 <__clz_tab+0x11c>
    206e:	4729                	li	a4,10
    2070:	040401a3          	sb	zero,67(s0)
    2074:	404c                	lw	a1,4(s0)
    2076:	c40c                	sw	a1,8(s0)
    2078:	0005c563          	bltz	a1,2082 <_printf_i+0x156>
    207c:	4008                	lw	a0,0(s0)
    207e:	996d                	andi	a0,a0,-5
    2080:	c008                	sw	a0,0(s0)
    2082:	e399                	bnez	a5,2088 <_printf_i+0x15c>
    2084:	8ab2                	mv	s5,a2
    2086:	cd91                	beqz	a1,20a2 <_printf_i+0x176>
    2088:	8ab2                	mv	s5,a2
    208a:	02e7f5b3          	remu	a1,a5,a4
    208e:	1afd                	addi	s5,s5,-1
    2090:	95b6                	add	a1,a1,a3
    2092:	0005c583          	lbu	a1,0(a1)
    2096:	00ba8023          	sb	a1,0(s5)
    209a:	02e7d5b3          	divu	a1,a5,a4
    209e:	0ae7ff63          	bgeu	a5,a4,215c <_printf_i+0x230>
    20a2:	47a1                	li	a5,8
    20a4:	00f71e63          	bne	a4,a5,20c0 <_printf_i+0x194>
    20a8:	401c                	lw	a5,0(s0)
    20aa:	8b85                	andi	a5,a5,1
    20ac:	cb91                	beqz	a5,20c0 <_printf_i+0x194>
    20ae:	4058                	lw	a4,4(s0)
    20b0:	481c                	lw	a5,16(s0)
    20b2:	00e7c763          	blt	a5,a4,20c0 <_printf_i+0x194>
    20b6:	03000793          	li	a5,48
    20ba:	fefa8fa3          	sb	a5,-1(s5)
    20be:	1afd                	addi	s5,s5,-1
    20c0:	41560633          	sub	a2,a2,s5
    20c4:	c810                	sw	a2,16(s0)
    20c6:	874e                	mv	a4,s3
    20c8:	86ca                	mv	a3,s2
    20ca:	0070                	addi	a2,sp,12
    20cc:	85a2                	mv	a1,s0
    20ce:	8526                	mv	a0,s1
    20d0:	3b81                	jal	1e20 <_printf_common>
    20d2:	5a7d                	li	s4,-1
    20d4:	0b451e63          	bne	a0,s4,2190 <_printf_i+0x264>
    20d8:	557d                	li	a0,-1
    20da:	50b2                	lw	ra,44(sp)
    20dc:	5422                	lw	s0,40(sp)
    20de:	5492                	lw	s1,36(sp)
    20e0:	5902                	lw	s2,32(sp)
    20e2:	49f2                	lw	s3,28(sp)
    20e4:	4a62                	lw	s4,24(sp)
    20e6:	4ad2                	lw	s5,20(sp)
    20e8:	4b42                	lw	s6,16(sp)
    20ea:	6145                	addi	sp,sp,48
    20ec:	8082                	ret
    20ee:	04d582a3          	sb	a3,69(a1)
    20f2:	00006697          	auipc	a3,0x6
    20f6:	51268693          	addi	a3,a3,1298 # 8604 <__clz_tab+0x11c>
    20fa:	400c                	lw	a1,0(s0)
    20fc:	4308                	lw	a0,0(a4)
    20fe:	0805f813          	andi	a6,a1,128
    2102:	411c                	lw	a5,0(a0)
    2104:	0511                	addi	a0,a0,4
    2106:	02080d63          	beqz	a6,2140 <_printf_i+0x214>
    210a:	c308                	sw	a0,0(a4)
    210c:	0015f713          	andi	a4,a1,1
    2110:	c701                	beqz	a4,2118 <_printf_i+0x1ec>
    2112:	0205e593          	ori	a1,a1,32
    2116:	c00c                	sw	a1,0(s0)
    2118:	4741                	li	a4,16
    211a:	fbb9                	bnez	a5,2070 <_printf_i+0x144>
    211c:	400c                	lw	a1,0(s0)
    211e:	fdf5f593          	andi	a1,a1,-33
    2122:	c00c                	sw	a1,0(s0)
    2124:	b7b1                	j	2070 <_printf_i+0x144>
    2126:	419c                	lw	a5,0(a1)
    2128:	0207e793          	ori	a5,a5,32
    212c:	c19c                	sw	a5,0(a1)
    212e:	07800793          	li	a5,120
    2132:	04f402a3          	sb	a5,69(s0)
    2136:	00006697          	auipc	a3,0x6
    213a:	4e268693          	addi	a3,a3,1250 # 8618 <__clz_tab+0x130>
    213e:	bf75                	j	20fa <_printf_i+0x1ce>
    2140:	0405f813          	andi	a6,a1,64
    2144:	c308                	sw	a0,0(a4)
    2146:	fc0803e3          	beqz	a6,210c <_printf_i+0x1e0>
    214a:	07c2                	slli	a5,a5,0x10
    214c:	83c1                	srli	a5,a5,0x10
    214e:	bf7d                	j	210c <_printf_i+0x1e0>
    2150:	00006697          	auipc	a3,0x6
    2154:	4b468693          	addi	a3,a3,1204 # 8604 <__clz_tab+0x11c>
    2158:	4721                	li	a4,8
    215a:	bf19                	j	2070 <_printf_i+0x144>
    215c:	87ae                	mv	a5,a1
    215e:	b735                	j	208a <_printf_i+0x15e>
    2160:	4194                	lw	a3,0(a1)
    2162:	431c                	lw	a5,0(a4)
    2164:	49cc                	lw	a1,20(a1)
    2166:	0806f813          	andi	a6,a3,128
    216a:	00478513          	addi	a0,a5,4
    216e:	00080663          	beqz	a6,217a <_printf_i+0x24e>
    2172:	c308                	sw	a0,0(a4)
    2174:	439c                	lw	a5,0(a5)
    2176:	c38c                	sw	a1,0(a5)
    2178:	a801                	j	2188 <_printf_i+0x25c>
    217a:	c308                	sw	a0,0(a4)
    217c:	0406f693          	andi	a3,a3,64
    2180:	439c                	lw	a5,0(a5)
    2182:	daf5                	beqz	a3,2176 <_printf_i+0x24a>
    2184:	00b79023          	sh	a1,0(a5)
    2188:	00042823          	sw	zero,16(s0)
    218c:	8ab2                	mv	s5,a2
    218e:	bf25                	j	20c6 <_printf_i+0x19a>
    2190:	4814                	lw	a3,16(s0)
    2192:	8656                	mv	a2,s5
    2194:	85ca                	mv	a1,s2
    2196:	8526                	mv	a0,s1
    2198:	9982                	jalr	s3
    219a:	f3450fe3          	beq	a0,s4,20d8 <_printf_i+0x1ac>
    219e:	401c                	lw	a5,0(s0)
    21a0:	8b89                	andi	a5,a5,2
    21a2:	e78d                	bnez	a5,21cc <_printf_i+0x2a0>
    21a4:	47b2                	lw	a5,12(sp)
    21a6:	4448                	lw	a0,12(s0)
    21a8:	f2f559e3          	bge	a0,a5,20da <_printf_i+0x1ae>
    21ac:	853e                	mv	a0,a5
    21ae:	b735                	j	20da <_printf_i+0x1ae>
    21b0:	4685                	li	a3,1
    21b2:	8656                	mv	a2,s5
    21b4:	85ca                	mv	a1,s2
    21b6:	8526                	mv	a0,s1
    21b8:	9982                	jalr	s3
    21ba:	f1650fe3          	beq	a0,s6,20d8 <_printf_i+0x1ac>
    21be:	0a05                	addi	s4,s4,1
    21c0:	445c                	lw	a5,12(s0)
    21c2:	4732                	lw	a4,12(sp)
    21c4:	8f99                	sub	a5,a5,a4
    21c6:	fefa45e3          	blt	s4,a5,21b0 <_printf_i+0x284>
    21ca:	bfe9                	j	21a4 <_printf_i+0x278>
    21cc:	4a01                	li	s4,0
    21ce:	01940a93          	addi	s5,s0,25
    21d2:	5b7d                	li	s6,-1
    21d4:	b7f5                	j	21c0 <_printf_i+0x294>

000021d6 <_scanf_float>:
    21d6:	459c                	lw	a5,8(a1)
    21d8:	711d                	addi	sp,sp,-96
    21da:	cca2                	sw	s0,88(sp)
    21dc:	c6ce                	sw	s3,76(sp)
    21de:	c0da                	sw	s6,64(sp)
    21e0:	da66                	sw	s9,52(sp)
    21e2:	ce86                	sw	ra,92(sp)
    21e4:	8cb2                	mv	s9,a2
    21e6:	caa6                	sw	s1,84(sp)
    21e8:	c8ca                	sw	s2,80(sp)
    21ea:	c4d2                	sw	s4,72(sp)
    21ec:	c2d6                	sw	s5,68(sp)
    21ee:	de5e                	sw	s7,60(sp)
    21f0:	dc62                	sw	s8,56(sp)
    21f2:	d86a                	sw	s10,48(sp)
    21f4:	d66e                	sw	s11,44(sp)
    21f6:	fff78613          	addi	a2,a5,-1
    21fa:	15c00713          	li	a4,348
    21fe:	8b36                	mv	s6,a3
    2200:	89aa                	mv	s3,a0
    2202:	842e                	mv	s0,a1
    2204:	4681                	li	a3,0
    2206:	00c77763          	bgeu	a4,a2,2214 <_scanf_float+0x3e>
    220a:	ea378693          	addi	a3,a5,-349
    220e:	15d00793          	li	a5,349
    2212:	c59c                	sw	a5,8(a1)
    2214:	401c                	lw	a5,0(s0)
    2216:	01c40a93          	addi	s5,s0,28
    221a:	84d6                	mv	s1,s5
    221c:	7807e793          	ori	a5,a5,1920
    2220:	c01c                	sw	a5,0(s0)
    2222:	4901                	li	s2,0
    2224:	4d81                	li	s11,0
    2226:	4c01                	li	s8,0
    2228:	4a01                	li	s4,0
    222a:	4d01                	li	s10,0
    222c:	4b81                	li	s7,0
    222e:	04900613          	li	a2,73
    2232:	70000813          	li	a6,1792
    2236:	4885                	li	a7,1
    2238:	40000e93          	li	t4,1024
    223c:	4309                	li	t1,2
    223e:	06500e13          	li	t3,101
    2242:	4f1d                	li	t5,7
    2244:	4418                	lw	a4,8(s0)
    2246:	cb1d                	beqz	a4,227c <_scanf_float+0xa6>
    2248:	000ca783          	lw	a5,0(s9)
    224c:	0007c783          	lbu	a5,0(a5)
    2250:	12c78b63          	beq	a5,a2,2386 <_scanf_float+0x1b0>
    2254:	0cf66863          	bltu	a2,a5,2324 <_scanf_float+0x14e>
    2258:	03900593          	li	a1,57
    225c:	0af5e463          	bltu	a1,a5,2304 <_scanf_float+0x12e>
    2260:	03100593          	li	a1,49
    2264:	14b7fb63          	bgeu	a5,a1,23ba <_scanf_float+0x1e4>
    2268:	02d00593          	li	a1,45
    226c:	16b78363          	beq	a5,a1,23d2 <_scanf_float+0x1fc>
    2270:	04f5e363          	bltu	a1,a5,22b6 <_scanf_float+0xe0>
    2274:	02b00713          	li	a4,43
    2278:	14e78d63          	beq	a5,a4,23d2 <_scanf_float+0x1fc>
    227c:	000d0663          	beqz	s10,2288 <_scanf_float+0xb2>
    2280:	401c                	lw	a5,0(s0)
    2282:	eff7f793          	andi	a5,a5,-257
    2286:	c01c                	sw	a5,0(s0)
    2288:	1dfd                	addi	s11,s11,-1
    228a:	4785                	li	a5,1
    228c:	21b7eb63          	bltu	a5,s11,24a2 <_scanf_float+0x2cc>
    2290:	1e9aed63          	bltu	s5,s1,248a <_scanf_float+0x2b4>
    2294:	4905                	li	s2,1
    2296:	40f6                	lw	ra,92(sp)
    2298:	4466                	lw	s0,88(sp)
    229a:	854a                	mv	a0,s2
    229c:	44d6                	lw	s1,84(sp)
    229e:	4946                	lw	s2,80(sp)
    22a0:	49b6                	lw	s3,76(sp)
    22a2:	4a26                	lw	s4,72(sp)
    22a4:	4a96                	lw	s5,68(sp)
    22a6:	4b06                	lw	s6,64(sp)
    22a8:	5bf2                	lw	s7,60(sp)
    22aa:	5c62                	lw	s8,56(sp)
    22ac:	5cd2                	lw	s9,52(sp)
    22ae:	5d42                	lw	s10,48(sp)
    22b0:	5db2                	lw	s11,44(sp)
    22b2:	6125                	addi	sp,sp,96
    22b4:	8082                	ret
    22b6:	02e00593          	li	a1,46
    22ba:	14b78f63          	beq	a5,a1,2418 <_scanf_float+0x242>
    22be:	03000593          	li	a1,48
    22c2:	fab79de3          	bne	a5,a1,227c <_scanf_float+0xa6>
    22c6:	400c                	lw	a1,0(s0)
    22c8:	1005f513          	andi	a0,a1,256
    22cc:	c57d                	beqz	a0,23ba <_scanf_float+0x1e4>
    22ce:	f7f5f593          	andi	a1,a1,-129
    22d2:	c00c                	sw	a1,0(s0)
    22d4:	0d05                	addi	s10,s10,1
    22d6:	c681                	beqz	a3,22de <_scanf_float+0x108>
    22d8:	0705                	addi	a4,a4,1
    22da:	16fd                	addi	a3,a3,-1
    22dc:	c418                	sw	a4,8(s0)
    22de:	441c                	lw	a5,8(s0)
    22e0:	17fd                	addi	a5,a5,-1
    22e2:	c41c                	sw	a5,8(s0)
    22e4:	481c                	lw	a5,16(s0)
    22e6:	0785                	addi	a5,a5,1
    22e8:	c81c                	sw	a5,16(s0)
    22ea:	004ca783          	lw	a5,4(s9)
    22ee:	17fd                	addi	a5,a5,-1
    22f0:	00fca223          	sw	a5,4(s9)
    22f4:	16f05663          	blez	a5,2460 <_scanf_float+0x28a>
    22f8:	000ca783          	lw	a5,0(s9)
    22fc:	0785                	addi	a5,a5,1
    22fe:	00fca023          	sw	a5,0(s9)
    2302:	b789                	j	2244 <_scanf_float+0x6e>
    2304:	04500713          	li	a4,69
    2308:	12e78263          	beq	a5,a4,242c <_scanf_float+0x256>
    230c:	04600713          	li	a4,70
    2310:	0ee78b63          	beq	a5,a4,2406 <_scanf_float+0x230>
    2314:	04100713          	li	a4,65
    2318:	f6e792e3          	bne	a5,a4,227c <_scanf_float+0xa6>
    231c:	f71d90e3          	bne	s11,a7,227c <_scanf_float+0xa6>
    2320:	4d89                	li	s11,2
    2322:	a065                	j	23ca <_scanf_float+0x1f4>
    2324:	11c78463          	beq	a5,t3,242c <_scanf_float+0x256>
    2328:	04fe6163          	bltu	t3,a5,236a <_scanf_float+0x194>
    232c:	05400713          	li	a4,84
    2330:	0ce78f63          	beq	a5,a4,240e <_scanf_float+0x238>
    2334:	02f76463          	bltu	a4,a5,235c <_scanf_float+0x186>
    2338:	04e00713          	li	a4,78
    233c:	f4e790e3          	bne	a5,a4,227c <_scanf_float+0xa6>
    2340:	0a0d9163          	bnez	s11,23e2 <_scanf_float+0x20c>
    2344:	0a0d1163          	bnez	s10,23e6 <_scanf_float+0x210>
    2348:	4018                	lw	a4,0(s0)
    234a:	70077593          	andi	a1,a4,1792
    234e:	09059c63          	bne	a1,a6,23e6 <_scanf_float+0x210>
    2352:	87f77713          	andi	a4,a4,-1921
    2356:	c018                	sw	a4,0(s0)
    2358:	4d85                	li	s11,1
    235a:	a885                	j	23ca <_scanf_float+0x1f4>
    235c:	05900713          	li	a4,89
    2360:	04e78963          	beq	a5,a4,23b2 <_scanf_float+0x1dc>
    2364:	06100713          	li	a4,97
    2368:	bf45                	j	2318 <_scanf_float+0x142>
    236a:	06e00713          	li	a4,110
    236e:	fce789e3          	beq	a5,a4,2340 <_scanf_float+0x16a>
    2372:	02f76863          	bltu	a4,a5,23a2 <_scanf_float+0x1cc>
    2376:	06600713          	li	a4,102
    237a:	08e78663          	beq	a5,a4,2406 <_scanf_float+0x230>
    237e:	06900713          	li	a4,105
    2382:	eee79de3          	bne	a5,a4,227c <_scanf_float+0xa6>
    2386:	06091963          	bnez	s2,23f8 <_scanf_float+0x222>
    238a:	ee0d1be3          	bnez	s10,2280 <_scanf_float+0xaa>
    238e:	4018                	lw	a4,0(s0)
    2390:	70077593          	andi	a1,a4,1792
    2394:	ef059ae3          	bne	a1,a6,2288 <_scanf_float+0xb2>
    2398:	87f77713          	andi	a4,a4,-1921
    239c:	c018                	sw	a4,0(s0)
    239e:	4905                	li	s2,1
    23a0:	a02d                	j	23ca <_scanf_float+0x1f4>
    23a2:	07400713          	li	a4,116
    23a6:	06e78463          	beq	a5,a4,240e <_scanf_float+0x238>
    23aa:	07900713          	li	a4,121
    23ae:	ece797e3          	bne	a5,a4,227c <_scanf_float+0xa6>
    23b2:	ede915e3          	bne	s2,t5,227c <_scanf_float+0xa6>
    23b6:	4921                	li	s2,8
    23b8:	a809                	j	23ca <_scanf_float+0x1f4>
    23ba:	012d8733          	add	a4,s11,s2
    23be:	ea071fe3          	bnez	a4,227c <_scanf_float+0xa6>
    23c2:	4018                	lw	a4,0(s0)
    23c4:	e7f77713          	andi	a4,a4,-385
    23c8:	c018                	sw	a4,0(s0)
    23ca:	00f48023          	sb	a5,0(s1)
    23ce:	0485                	addi	s1,s1,1
    23d0:	b739                	j	22de <_scanf_float+0x108>
    23d2:	4018                	lw	a4,0(s0)
    23d4:	08077593          	andi	a1,a4,128
    23d8:	ea0582e3          	beqz	a1,227c <_scanf_float+0xa6>
    23dc:	f7f77713          	andi	a4,a4,-129
    23e0:	b7e5                	j	23c8 <_scanf_float+0x1f2>
    23e2:	066d8d63          	beq	s11,t1,245c <_scanf_float+0x286>
    23e6:	01190563          	beq	s2,a7,23f0 <_scanf_float+0x21a>
    23ea:	4711                	li	a4,4
    23ec:	e8e918e3          	bne	s2,a4,227c <_scanf_float+0xa6>
    23f0:	0905                	addi	s2,s2,1
    23f2:	0ff97913          	andi	s2,s2,255
    23f6:	bfd1                	j	23ca <_scanf_float+0x1f4>
    23f8:	ffd90713          	addi	a4,s2,-3
    23fc:	0fd77713          	andi	a4,a4,253
    2400:	e6071ee3          	bnez	a4,227c <_scanf_float+0xa6>
    2404:	b7f5                	j	23f0 <_scanf_float+0x21a>
    2406:	e6691be3          	bne	s2,t1,227c <_scanf_float+0xa6>
    240a:	490d                	li	s2,3
    240c:	bf7d                	j	23ca <_scanf_float+0x1f4>
    240e:	4719                	li	a4,6
    2410:	e6e916e3          	bne	s2,a4,227c <_scanf_float+0xa6>
    2414:	491d                	li	s2,7
    2416:	bf55                	j	23ca <_scanf_float+0x1f4>
    2418:	4018                	lw	a4,0(s0)
    241a:	20077593          	andi	a1,a4,512
    241e:	e4058fe3          	beqz	a1,227c <_scanf_float+0xa6>
    2422:	d7f77713          	andi	a4,a4,-641
    2426:	c018                	sw	a4,0(s0)
    2428:	8bea                	mv	s7,s10
    242a:	b745                	j	23ca <_scanf_float+0x1f4>
    242c:	4018                	lw	a4,0(s0)
    242e:	50077593          	andi	a1,a4,1280
    2432:	01d58863          	beq	a1,t4,2442 <_scanf_float+0x26c>
    2436:	40077593          	andi	a1,a4,1024
    243a:	e40581e3          	beqz	a1,227c <_scanf_float+0xa6>
    243e:	e40d05e3          	beqz	s10,2288 <_scanf_float+0xb2>
    2442:	20077593          	andi	a1,a4,512
    2446:	e581                	bnez	a1,244e <_scanf_float+0x278>
    2448:	417d0a33          	sub	s4,s10,s7
    244c:	8c26                	mv	s8,s1
    244e:	87f77713          	andi	a4,a4,-1921
    2452:	18076713          	ori	a4,a4,384
    2456:	c018                	sw	a4,0(s0)
    2458:	4d01                	li	s10,0
    245a:	bf85                	j	23ca <_scanf_float+0x1f4>
    245c:	4d8d                	li	s11,3
    245e:	b7b5                	j	23ca <_scanf_float+0x1f4>
    2460:	18042783          	lw	a5,384(s0)
    2464:	85e6                	mv	a1,s9
    2466:	854e                	mv	a0,s3
    2468:	c636                	sw	a3,12(sp)
    246a:	9782                	jalr	a5
    246c:	46b2                	lw	a3,12(sp)
    246e:	04900613          	li	a2,73
    2472:	70000813          	li	a6,1792
    2476:	4885                	li	a7,1
    2478:	40000e93          	li	t4,1024
    247c:	4309                	li	t1,2
    247e:	06500e13          	li	t3,101
    2482:	4f1d                	li	t5,7
    2484:	dc0500e3          	beqz	a0,2244 <_scanf_float+0x6e>
    2488:	bbd5                	j	227c <_scanf_float+0xa6>
    248a:	14fd                	addi	s1,s1,-1
    248c:	17c42783          	lw	a5,380(s0)
    2490:	0004c583          	lbu	a1,0(s1)
    2494:	8666                	mv	a2,s9
    2496:	854e                	mv	a0,s3
    2498:	9782                	jalr	a5
    249a:	481c                	lw	a5,16(s0)
    249c:	17fd                	addi	a5,a5,-1
    249e:	c81c                	sw	a5,16(s0)
    24a0:	bbc5                	j	2290 <_scanf_float+0xba>
    24a2:	fff90793          	addi	a5,s2,-1
    24a6:	4719                	li	a4,6
    24a8:	02f76663          	bltu	a4,a5,24d4 <_scanf_float+0x2fe>
    24ac:	4789                	li	a5,2
    24ae:	8da6                	mv	s11,s1
    24b0:	0927f163          	bgeu	a5,s2,2532 <_scanf_float+0x35c>
    24b4:	40990733          	sub	a4,s2,s1
    24b8:	0ff77713          	andi	a4,a4,255
    24bc:	468d                	li	a3,3
    24be:	00ed87b3          	add	a5,s11,a4
    24c2:	0ff7f793          	andi	a5,a5,255
    24c6:	02f6ec63          	bltu	a3,a5,24fe <_scanf_float+0x328>
    24ca:	1975                	addi	s2,s2,-3
    24cc:	0ff97913          	andi	s2,s2,255
    24d0:	412484b3          	sub	s1,s1,s2
    24d4:	401c                	lw	a5,0(s0)
    24d6:	1007f713          	andi	a4,a5,256
    24da:	c345                	beqz	a4,257a <_scanf_float+0x3a4>
    24dc:	4007f793          	andi	a5,a5,1024
    24e0:	cfa1                	beqz	a5,2538 <_scanf_float+0x362>
    24e2:	da9af9e3          	bgeu	s5,s1,2294 <_scanf_float+0xbe>
    24e6:	14fd                	addi	s1,s1,-1
    24e8:	17c42783          	lw	a5,380(s0)
    24ec:	0004c583          	lbu	a1,0(s1)
    24f0:	8666                	mv	a2,s9
    24f2:	854e                	mv	a0,s3
    24f4:	9782                	jalr	a5
    24f6:	481c                	lw	a5,16(s0)
    24f8:	17fd                	addi	a5,a5,-1
    24fa:	c81c                	sw	a5,16(s0)
    24fc:	b7dd                	j	24e2 <_scanf_float+0x30c>
    24fe:	1dfd                	addi	s11,s11,-1
    2500:	17c42783          	lw	a5,380(s0)
    2504:	000dc583          	lbu	a1,0(s11)
    2508:	8666                	mv	a2,s9
    250a:	854e                	mv	a0,s3
    250c:	c63a                	sw	a4,12(sp)
    250e:	9782                	jalr	a5
    2510:	481c                	lw	a5,16(s0)
    2512:	468d                	li	a3,3
    2514:	4732                	lw	a4,12(sp)
    2516:	17fd                	addi	a5,a5,-1
    2518:	c81c                	sw	a5,16(s0)
    251a:	b755                	j	24be <_scanf_float+0x2e8>
    251c:	14fd                	addi	s1,s1,-1
    251e:	17c42783          	lw	a5,380(s0)
    2522:	0004c583          	lbu	a1,0(s1)
    2526:	8666                	mv	a2,s9
    2528:	854e                	mv	a0,s3
    252a:	9782                	jalr	a5
    252c:	481c                	lw	a5,16(s0)
    252e:	17fd                	addi	a5,a5,-1
    2530:	c81c                	sw	a5,16(s0)
    2532:	fe9ae5e3          	bltu	s5,s1,251c <_scanf_float+0x346>
    2536:	bbb9                	j	2294 <_scanf_float+0xbe>
    2538:	481c                	lw	a5,16(s0)
    253a:	fff4c583          	lbu	a1,-1(s1)
    253e:	fff48913          	addi	s2,s1,-1
    2542:	17fd                	addi	a5,a5,-1
    2544:	c81c                	sw	a5,16(s0)
    2546:	06500793          	li	a5,101
    254a:	02f58263          	beq	a1,a5,256e <_scanf_float+0x398>
    254e:	04500793          	li	a5,69
    2552:	00f58e63          	beq	a1,a5,256e <_scanf_float+0x398>
    2556:	17c42783          	lw	a5,380(s0)
    255a:	8666                	mv	a2,s9
    255c:	854e                	mv	a0,s3
    255e:	9782                	jalr	a5
    2560:	481c                	lw	a5,16(s0)
    2562:	ffe4c583          	lbu	a1,-2(s1)
    2566:	ffe48913          	addi	s2,s1,-2
    256a:	17fd                	addi	a5,a5,-1
    256c:	c81c                	sw	a5,16(s0)
    256e:	17c42783          	lw	a5,380(s0)
    2572:	8666                	mv	a2,s9
    2574:	854e                	mv	a0,s3
    2576:	9782                	jalr	a5
    2578:	84ca                	mv	s1,s2
    257a:	00042903          	lw	s2,0(s0)
    257e:	01097913          	andi	s2,s2,16
    2582:	0c091363          	bnez	s2,2648 <_scanf_float+0x472>
    2586:	00048023          	sb	zero,0(s1)
    258a:	401c                	lw	a5,0(s0)
    258c:	40000713          	li	a4,1024
    2590:	6007f793          	andi	a5,a5,1536
    2594:	02e79e63          	bne	a5,a4,25d0 <_scanf_float+0x3fa>
    2598:	41ab8633          	sub	a2,s7,s10
    259c:	05ab9663          	bne	s7,s10,25e8 <_scanf_float+0x412>
    25a0:	85d6                	mv	a1,s5
    25a2:	4601                	li	a2,0
    25a4:	854e                	mv	a0,s3
    25a6:	705000ef          	jal	ra,34aa <_strtod_r>
    25aa:	4018                	lw	a4,0(s0)
    25ac:	8a2a                	mv	s4,a0
    25ae:	8aae                	mv	s5,a1
    25b0:	00277693          	andi	a3,a4,2
    25b4:	000b2783          	lw	a5,0(s6)
    25b8:	c6a9                	beqz	a3,2602 <_scanf_float+0x42c>
    25ba:	00478713          	addi	a4,a5,4
    25be:	00eb2023          	sw	a4,0(s6)
    25c2:	439c                	lw	a5,0(a5)
    25c4:	c388                	sw	a0,0(a5)
    25c6:	c3cc                	sw	a1,4(a5)
    25c8:	445c                	lw	a5,12(s0)
    25ca:	0785                	addi	a5,a5,1
    25cc:	c45c                	sw	a5,12(s0)
    25ce:	b1e1                	j	2296 <_scanf_float+0xc0>
    25d0:	fc0a08e3          	beqz	s4,25a0 <_scanf_float+0x3ca>
    25d4:	4601                	li	a2,0
    25d6:	46a9                	li	a3,10
    25d8:	001c0593          	addi	a1,s8,1
    25dc:	854e                	mv	a0,s3
    25de:	026010ef          	jal	ra,3604 <_strtol_r>
    25e2:	41450633          	sub	a2,a0,s4
    25e6:	84e2                	mv	s1,s8
    25e8:	16f40793          	addi	a5,s0,367
    25ec:	00f4e463          	bltu	s1,a5,25f4 <_scanf_float+0x41e>
    25f0:	16e40493          	addi	s1,s0,366
    25f4:	00006597          	auipc	a1,0x6
    25f8:	03858593          	addi	a1,a1,56 # 862c <__clz_tab+0x144>
    25fc:	8526                	mv	a0,s1
    25fe:	2269                	jal	2788 <siprintf>
    2600:	b745                	j	25a0 <_scanf_float+0x3ca>
    2602:	00478693          	addi	a3,a5,4
    2606:	00db2023          	sw	a3,0(s6)
    260a:	8b11                	andi	a4,a4,4
    260c:	4384                	lw	s1,0(a5)
    260e:	cf19                	beqz	a4,262c <_scanf_float+0x456>
    2610:	85aa                	mv	a1,a0
    2612:	8656                	mv	a2,s5
    2614:	0808                	addi	a0,sp,16
    2616:	063050ef          	jal	ra,7e78 <__extenddftf2>
    261a:	46d2                	lw	a3,20(sp)
    261c:	4762                	lw	a4,24(sp)
    261e:	47f2                	lw	a5,28(sp)
    2620:	4642                	lw	a2,16(sp)
    2622:	c0d4                	sw	a3,4(s1)
    2624:	c498                	sw	a4,8(s1)
    2626:	c090                	sw	a2,0(s1)
    2628:	c4dc                	sw	a5,12(s1)
    262a:	bf79                	j	25c8 <_scanf_float+0x3f2>
    262c:	862a                	mv	a2,a0
    262e:	86ae                	mv	a3,a1
    2630:	6e0050ef          	jal	ra,7d10 <__unorddf2>
    2634:	c509                	beqz	a0,263e <_scanf_float+0x468>
    2636:	4501                	li	a0,0
    2638:	2291                	jal	277c <nanf>
    263a:	c088                	sw	a0,0(s1)
    263c:	b771                	j	25c8 <_scanf_float+0x3f2>
    263e:	8552                	mv	a0,s4
    2640:	85d6                	mv	a1,s5
    2642:	1db050ef          	jal	ra,801c <__truncdfsf2>
    2646:	bfd5                	j	263a <_scanf_float+0x464>
    2648:	4901                	li	s2,0
    264a:	b1b1                	j	2296 <_scanf_float+0xc0>

0000264c <iprintf>:
    264c:	7139                	addi	sp,sp,-64
    264e:	da3e                	sw	a5,52(sp)
    2650:	d22e                	sw	a1,36(sp)
    2652:	d432                	sw	a2,40(sp)
    2654:	d636                	sw	a3,44(sp)
    2656:	d83a                	sw	a4,48(sp)
    2658:	dc42                	sw	a6,56(sp)
    265a:	de46                	sw	a7,60(sp)
    265c:	80c18793          	addi	a5,gp,-2036 # 200001fc <_impure_ptr>
    2660:	cc22                	sw	s0,24(sp)
    2662:	4380                	lw	s0,0(a5)
    2664:	ca26                	sw	s1,20(sp)
    2666:	ce06                	sw	ra,28(sp)
    2668:	84aa                	mv	s1,a0
    266a:	c411                	beqz	s0,2676 <iprintf+0x2a>
    266c:	4c1c                	lw	a5,24(s0)
    266e:	e781                	bnez	a5,2676 <iprintf+0x2a>
    2670:	8522                	mv	a0,s0
    2672:	138020ef          	jal	ra,47aa <__sinit>
    2676:	440c                	lw	a1,8(s0)
    2678:	1054                	addi	a3,sp,36
    267a:	8626                	mv	a2,s1
    267c:	8522                	mv	a0,s0
    267e:	c636                	sw	a3,12(sp)
    2680:	30d030ef          	jal	ra,618c <_vfiprintf_r>
    2684:	40f2                	lw	ra,28(sp)
    2686:	4462                	lw	s0,24(sp)
    2688:	44d2                	lw	s1,20(sp)
    268a:	6121                	addi	sp,sp,64
    268c:	8082                	ret

0000268e <_puts_r>:
    268e:	1101                	addi	sp,sp,-32
    2690:	ca26                	sw	s1,20(sp)
    2692:	c84a                	sw	s2,16(sp)
    2694:	ce06                	sw	ra,28(sp)
    2696:	cc22                	sw	s0,24(sp)
    2698:	c64e                	sw	s3,12(sp)
    269a:	c452                	sw	s4,8(sp)
    269c:	84aa                	mv	s1,a0
    269e:	892e                	mv	s2,a1
    26a0:	c509                	beqz	a0,26aa <_puts_r+0x1c>
    26a2:	4d1c                	lw	a5,24(a0)
    26a4:	e399                	bnez	a5,26aa <_puts_r+0x1c>
    26a6:	104020ef          	jal	ra,47aa <__sinit>
    26aa:	4c9c                	lw	a5,24(s1)
    26ac:	4480                	lw	s0,8(s1)
    26ae:	e781                	bnez	a5,26b6 <_puts_r+0x28>
    26b0:	8526                	mv	a0,s1
    26b2:	0f8020ef          	jal	ra,47aa <__sinit>
    26b6:	00006797          	auipc	a5,0x6
    26ba:	09a78793          	addi	a5,a5,154 # 8750 <__sf_fake_stdin>
    26be:	02f41d63          	bne	s0,a5,26f8 <_puts_r+0x6a>
    26c2:	40c0                	lw	s0,4(s1)
    26c4:	00c45783          	lhu	a5,12(s0)
    26c8:	8ba1                	andi	a5,a5,8
    26ca:	c7b9                	beqz	a5,2718 <_puts_r+0x8a>
    26cc:	481c                	lw	a5,16(s0)
    26ce:	c7a9                	beqz	a5,2718 <_puts_r+0x8a>
    26d0:	59fd                	li	s3,-1
    26d2:	4a29                	li	s4,10
    26d4:	441c                	lw	a5,8(s0)
    26d6:	00094583          	lbu	a1,0(s2)
    26da:	17fd                	addi	a5,a5,-1
    26dc:	eda1                	bnez	a1,2734 <_puts_r+0xa6>
    26de:	c41c                	sw	a5,8(s0)
    26e0:	0807d163          	bgez	a5,2762 <_puts_r+0xd4>
    26e4:	8622                	mv	a2,s0
    26e6:	45a9                	li	a1,10
    26e8:	8526                	mv	a0,s1
    26ea:	72f000ef          	jal	ra,3618 <__swbuf_r>
    26ee:	57fd                	li	a5,-1
    26f0:	02f50963          	beq	a0,a5,2722 <_puts_r+0x94>
    26f4:	4529                	li	a0,10
    26f6:	a03d                	j	2724 <_puts_r+0x96>
    26f8:	00006797          	auipc	a5,0x6
    26fc:	07878793          	addi	a5,a5,120 # 8770 <__sf_fake_stdout>
    2700:	00f41463          	bne	s0,a5,2708 <_puts_r+0x7a>
    2704:	4480                	lw	s0,8(s1)
    2706:	bf7d                	j	26c4 <_puts_r+0x36>
    2708:	00006797          	auipc	a5,0x6
    270c:	02878793          	addi	a5,a5,40 # 8730 <__sf_fake_stderr>
    2710:	faf41ae3          	bne	s0,a5,26c4 <_puts_r+0x36>
    2714:	44c0                	lw	s0,12(s1)
    2716:	b77d                	j	26c4 <_puts_r+0x36>
    2718:	85a2                	mv	a1,s0
    271a:	8526                	mv	a0,s1
    271c:	7c3000ef          	jal	ra,36de <__swsetup_r>
    2720:	d945                	beqz	a0,26d0 <_puts_r+0x42>
    2722:	557d                	li	a0,-1
    2724:	40f2                	lw	ra,28(sp)
    2726:	4462                	lw	s0,24(sp)
    2728:	44d2                	lw	s1,20(sp)
    272a:	4942                	lw	s2,16(sp)
    272c:	49b2                	lw	s3,12(sp)
    272e:	4a22                	lw	s4,8(sp)
    2730:	6105                	addi	sp,sp,32
    2732:	8082                	ret
    2734:	c41c                	sw	a5,8(s0)
    2736:	0905                	addi	s2,s2,1
    2738:	0007d763          	bgez	a5,2746 <_puts_r+0xb8>
    273c:	4c18                	lw	a4,24(s0)
    273e:	00e7cb63          	blt	a5,a4,2754 <_puts_r+0xc6>
    2742:	01458963          	beq	a1,s4,2754 <_puts_r+0xc6>
    2746:	401c                	lw	a5,0(s0)
    2748:	00178713          	addi	a4,a5,1
    274c:	c018                	sw	a4,0(s0)
    274e:	00b78023          	sb	a1,0(a5)
    2752:	b749                	j	26d4 <_puts_r+0x46>
    2754:	8622                	mv	a2,s0
    2756:	8526                	mv	a0,s1
    2758:	6c1000ef          	jal	ra,3618 <__swbuf_r>
    275c:	f7351ce3          	bne	a0,s3,26d4 <_puts_r+0x46>
    2760:	b7c9                	j	2722 <_puts_r+0x94>
    2762:	401c                	lw	a5,0(s0)
    2764:	00178713          	addi	a4,a5,1
    2768:	c018                	sw	a4,0(s0)
    276a:	4729                	li	a4,10
    276c:	00e78023          	sb	a4,0(a5)
    2770:	b751                	j	26f4 <_puts_r+0x66>

00002772 <puts>:
    2772:	80c18793          	addi	a5,gp,-2036 # 200001fc <_impure_ptr>
    2776:	85aa                	mv	a1,a0
    2778:	4388                	lw	a0,0(a5)
    277a:	bf11                	j	268e <_puts_r>

0000277c <nanf>:
    277c:	00006797          	auipc	a5,0x6
    2780:	eb878793          	addi	a5,a5,-328 # 8634 <__clz_tab+0x14c>
    2784:	4388                	lw	a0,0(a5)
    2786:	8082                	ret

00002788 <siprintf>:
    2788:	7135                	addi	sp,sp,-160
    278a:	cb3e                	sw	a5,148(sp)
    278c:	800007b7          	lui	a5,0x80000
    2790:	fff7c793          	not	a5,a5
    2794:	ce3e                	sw	a5,28(sp)
    2796:	c83e                	sw	a5,16(sp)
    2798:	77c1                	lui	a5,0xffff0
    279a:	20878793          	addi	a5,a5,520 # ffff0208 <_eusrstack+0xdffeb208>
    279e:	c532                	sw	a2,136(sp)
    27a0:	c736                	sw	a3,140(sp)
    27a2:	c93a                	sw	a4,144(sp)
    27a4:	cd42                	sw	a6,152(sp)
    27a6:	cf46                	sw	a7,156(sp)
    27a8:	ca3e                	sw	a5,20(sp)
    27aa:	80c18793          	addi	a5,gp,-2036 # 200001fc <_impure_ptr>
    27ae:	c42a                	sw	a0,8(sp)
    27b0:	cc2a                	sw	a0,24(sp)
    27b2:	4388                	lw	a0,0(a5)
    27b4:	0134                	addi	a3,sp,136
    27b6:	862e                	mv	a2,a1
    27b8:	002c                	addi	a1,sp,8
    27ba:	de86                	sw	ra,124(sp)
    27bc:	c236                	sw	a3,4(sp)
    27be:	6e2030ef          	jal	ra,5ea0 <_svfiprintf_r>
    27c2:	47a2                	lw	a5,8(sp)
    27c4:	00078023          	sb	zero,0(a5)
    27c8:	50f6                	lw	ra,124(sp)
    27ca:	610d                	addi	sp,sp,160
    27cc:	8082                	ret

000027ce <strlen>:
    27ce:	87aa                	mv	a5,a0
    27d0:	0785                	addi	a5,a5,1
    27d2:	fff7c703          	lbu	a4,-1(a5)
    27d6:	ff6d                	bnez	a4,27d0 <strlen+0x2>
    27d8:	40a78533          	sub	a0,a5,a0
    27dc:	157d                	addi	a0,a0,-1
    27de:	8082                	ret

000027e0 <sulp>:
    27e0:	1101                	addi	sp,sp,-32
    27e2:	cc22                	sw	s0,24(sp)
    27e4:	872a                	mv	a4,a0
    27e6:	842e                	mv	s0,a1
    27e8:	853a                	mv	a0,a4
    27ea:	85a2                	mv	a1,s0
    27ec:	c632                	sw	a2,12(sp)
    27ee:	ce06                	sw	ra,28(sp)
    27f0:	162030ef          	jal	ra,5952 <__ulp>
    27f4:	4632                	lw	a2,12(sp)
    27f6:	882a                	mv	a6,a0
    27f8:	88ae                	mv	a7,a1
    27fa:	c605                	beqz	a2,2822 <sulp+0x42>
    27fc:	8051                	srli	s0,s0,0x14
    27fe:	7ff47413          	andi	s0,s0,2047
    2802:	06b00793          	li	a5,107
    2806:	8f81                	sub	a5,a5,s0
    2808:	00f05d63          	blez	a5,2822 <sulp+0x42>
    280c:	07d2                	slli	a5,a5,0x14
    280e:	3ff00737          	lui	a4,0x3ff00
    2812:	4801                	li	a6,0
    2814:	973e                	add	a4,a4,a5
    2816:	8642                	mv	a2,a6
    2818:	86ba                	mv	a3,a4
    281a:	a37fe0ef          	jal	ra,1250 <__muldf3>
    281e:	882a                	mv	a6,a0
    2820:	88ae                	mv	a7,a1
    2822:	40f2                	lw	ra,28(sp)
    2824:	4462                	lw	s0,24(sp)
    2826:	8542                	mv	a0,a6
    2828:	85c6                	mv	a1,a7
    282a:	6105                	addi	sp,sp,32
    282c:	8082                	ret

0000282e <_strtod_l>:
    282e:	7135                	addi	sp,sp,-160
    2830:	c94a                	sw	s2,144(sp)
    2832:	892a                	mv	s2,a0
    2834:	8536                	mv	a0,a3
    2836:	d432                	sw	a2,40(sp)
    2838:	c636                	sw	a3,12(sp)
    283a:	cf06                	sw	ra,156(sp)
    283c:	cd22                	sw	s0,152(sp)
    283e:	cb26                	sw	s1,148(sp)
    2840:	c74e                	sw	s3,140(sp)
    2842:	d8ea                	sw	s10,112(sp)
    2844:	d6ee                	sw	s11,108(sp)
    2846:	8d2e                	mv	s10,a1
    2848:	c552                	sw	s4,136(sp)
    284a:	c356                	sw	s5,132(sp)
    284c:	c15a                	sw	s6,128(sp)
    284e:	dede                	sw	s7,124(sp)
    2850:	dce2                	sw	s8,120(sp)
    2852:	dae6                	sw	s9,116(sp)
    2854:	c882                	sw	zero,80(sp)
    2856:	7fe020ef          	jal	ra,5054 <__localeconv_l>
    285a:	8daa                	mv	s11,a0
    285c:	4108                	lw	a0,0(a0)
    285e:	4481                	li	s1,0
    2860:	4401                	li	s0,0
    2862:	37b5                	jal	27ce <strlen>
    2864:	46b2                	lw	a3,12(sp)
    2866:	89aa                	mv	s3,a0
    2868:	c6ea                	sw	s10,76(sp)
    286a:	4635                	li	a2,13
    286c:	02b00593          	li	a1,43
    2870:	02d00513          	li	a0,45
    2874:	02000813          	li	a6,32
    2878:	48a5                	li	a7,9
    287a:	47b6                	lw	a5,76(sp)
    287c:	0007c703          	lbu	a4,0(a5)
    2880:	08e66b63          	bltu	a2,a4,2916 <_strtod_l+0xe8>
    2884:	09177f63          	bgeu	a4,a7,2922 <_strtod_l+0xf4>
    2888:	c75d                	beqz	a4,2936 <_strtod_l+0x108>
    288a:	c802                	sw	zero,16(sp)
    288c:	4a36                	lw	s4,76(sp)
    288e:	03000793          	li	a5,48
    2892:	4a81                	li	s5,0
    2894:	000a4703          	lbu	a4,0(s4)
    2898:	12f71d63          	bne	a4,a5,29d2 <_strtod_l+0x1a4>
    289c:	001a4783          	lbu	a5,1(s4)
    28a0:	05800713          	li	a4,88
    28a4:	00e78863          	beq	a5,a4,28b4 <_strtod_l+0x86>
    28a8:	07800613          	li	a2,120
    28ac:	03000713          	li	a4,48
    28b0:	10c79763          	bne	a5,a2,29be <_strtod_l+0x190>
    28b4:	47c2                	lw	a5,16(sp)
    28b6:	8836                	mv	a6,a3
    28b8:	0898                	addi	a4,sp,80
    28ba:	08d4                	addi	a3,sp,84
    28bc:	00006617          	auipc	a2,0x6
    28c0:	ddc60613          	addi	a2,a2,-548 # 8698 <fpi.3395>
    28c4:	00ec                	addi	a1,sp,76
    28c6:	854a                	mv	a0,s2
    28c8:	108020ef          	jal	ra,49d0 <__gethex>
    28cc:	00757993          	andi	s3,a0,7
    28d0:	8aaa                	mv	s5,a0
    28d2:	00098863          	beqz	s3,28e2 <_strtod_l+0xb4>
    28d6:	4799                	li	a5,6
    28d8:	06f99863          	bne	s3,a5,2948 <_strtod_l+0x11a>
    28dc:	0a05                	addi	s4,s4,1
    28de:	c6d2                	sw	s4,76(sp)
    28e0:	c802                	sw	zero,16(sp)
    28e2:	57a2                	lw	a5,40(sp)
    28e4:	c781                	beqz	a5,28ec <_strtod_l+0xbe>
    28e6:	47b6                	lw	a5,76(sp)
    28e8:	5722                	lw	a4,40(sp)
    28ea:	c31c                	sw	a5,0(a4)
    28ec:	47c2                	lw	a5,16(sp)
    28ee:	cba1                	beqz	a5,293e <_strtod_l+0x110>
    28f0:	800005b7          	lui	a1,0x80000
    28f4:	8da1                	xor	a1,a1,s0
    28f6:	40fa                	lw	ra,156(sp)
    28f8:	446a                	lw	s0,152(sp)
    28fa:	8526                	mv	a0,s1
    28fc:	494a                	lw	s2,144(sp)
    28fe:	44da                	lw	s1,148(sp)
    2900:	49ba                	lw	s3,140(sp)
    2902:	4a2a                	lw	s4,136(sp)
    2904:	4a9a                	lw	s5,132(sp)
    2906:	4b0a                	lw	s6,128(sp)
    2908:	5bf6                	lw	s7,124(sp)
    290a:	5c66                	lw	s8,120(sp)
    290c:	5cd6                	lw	s9,116(sp)
    290e:	5d46                	lw	s10,112(sp)
    2910:	5db6                	lw	s11,108(sp)
    2912:	610d                	addi	sp,sp,160
    2914:	8082                	ret
    2916:	00b70963          	beq	a4,a1,2928 <_strtod_l+0xfa>
    291a:	02a70463          	beq	a4,a0,2942 <_strtod_l+0x114>
    291e:	f70716e3          	bne	a4,a6,288a <_strtod_l+0x5c>
    2922:	0785                	addi	a5,a5,1
    2924:	c6be                	sw	a5,76(sp)
    2926:	bf91                	j	287a <_strtod_l+0x4c>
    2928:	c802                	sw	zero,16(sp)
    292a:	00178713          	addi	a4,a5,1
    292e:	c6ba                	sw	a4,76(sp)
    2930:	0017c783          	lbu	a5,1(a5)
    2934:	ffa1                	bnez	a5,288c <_strtod_l+0x5e>
    2936:	57a2                	lw	a5,40(sp)
    2938:	c6ea                	sw	s10,76(sp)
    293a:	c802                	sw	zero,16(sp)
    293c:	f7cd                	bnez	a5,28e6 <_strtod_l+0xb8>
    293e:	85a2                	mv	a1,s0
    2940:	bf5d                	j	28f6 <_strtod_l+0xc8>
    2942:	4705                	li	a4,1
    2944:	c83a                	sw	a4,16(sp)
    2946:	b7d5                	j	292a <_strtod_l+0xfc>
    2948:	4646                	lw	a2,80(sp)
    294a:	ca11                	beqz	a2,295e <_strtod_l+0x130>
    294c:	03500593          	li	a1,53
    2950:	08a8                	addi	a0,sp,88
    2952:	242030ef          	jal	ra,5b94 <__copybits>
    2956:	45c6                	lw	a1,80(sp)
    2958:	854a                	mv	a0,s2
    295a:	1b7020ef          	jal	ra,5310 <_Bfree>
    295e:	19fd                	addi	s3,s3,-1
    2960:	4791                	li	a5,4
    2962:	0137ee63          	bltu	a5,s3,297e <_strtod_l+0x150>
    2966:	00006717          	auipc	a4,0x6
    296a:	cd270713          	addi	a4,a4,-814 # 8638 <__clz_tab+0x150>
    296e:	098a                	slli	s3,s3,0x2
    2970:	99ba                	add	s3,s3,a4
    2972:	0009a783          	lw	a5,0(s3)
    2976:	97ba                	add	a5,a5,a4
    2978:	8782                	jr	a5
    297a:	44e6                	lw	s1,88(sp)
    297c:	4476                	lw	s0,92(sp)
    297e:	008afa93          	andi	s5,s5,8
    2982:	f60a80e3          	beqz	s5,28e2 <_strtod_l+0xb4>
    2986:	800007b7          	lui	a5,0x80000
    298a:	8c5d                	or	s0,s0,a5
    298c:	bf99                	j	28e2 <_strtod_l+0xb4>
    298e:	45f6                	lw	a1,92(sp)
    2990:	fff00437          	lui	s0,0xfff00
    2994:	147d                	addi	s0,s0,-1
    2996:	0085f7b3          	and	a5,a1,s0
    299a:	4456                	lw	s0,84(sp)
    299c:	44e6                	lw	s1,88(sp)
    299e:	43340413          	addi	s0,s0,1075 # fff00433 <_eusrstack+0xdfefb433>
    29a2:	01441593          	slli	a1,s0,0x14
    29a6:	00b7e433          	or	s0,a5,a1
    29aa:	bfd1                	j	297e <_strtod_l+0x150>
    29ac:	7ff00437          	lui	s0,0x7ff00
    29b0:	b7f9                	j	297e <_strtod_l+0x150>
    29b2:	800005b7          	lui	a1,0x80000
    29b6:	fff5c413          	not	s0,a1
    29ba:	54fd                	li	s1,-1
    29bc:	b7c9                	j	297e <_strtod_l+0x150>
    29be:	47b6                	lw	a5,76(sp)
    29c0:	00178693          	addi	a3,a5,1 # 80000001 <_eusrstack+0x5fffb001>
    29c4:	c6b6                	sw	a3,76(sp)
    29c6:	0017c783          	lbu	a5,1(a5)
    29ca:	fee78ae3          	beq	a5,a4,29be <_strtod_l+0x190>
    29ce:	db91                	beqz	a5,28e2 <_strtod_l+0xb4>
    29d0:	4a85                	li	s5,1
    29d2:	4cb6                	lw	s9,76(sp)
    29d4:	4a01                	li	s4,0
    29d6:	4b81                	li	s7,0
    29d8:	4c01                	li	s8,0
    29da:	46a5                	li	a3,9
    29dc:	45a1                	li	a1,8
    29de:	47a9                	li	a5,10
    29e0:	4536                	lw	a0,76(sp)
    29e2:	00054b03          	lbu	s6,0(a0)
    29e6:	fd0b0713          	addi	a4,s6,-48
    29ea:	0ff77613          	andi	a2,a4,255
    29ee:	04c6fd63          	bgeu	a3,a2,2a48 <_strtod_l+0x21a>
    29f2:	000da583          	lw	a1,0(s11)
    29f6:	864e                	mv	a2,s3
    29f8:	319030ef          	jal	ra,6510 <strncmp>
    29fc:	c13d                	beqz	a0,2a62 <_strtod_l+0x234>
    29fe:	87da                	mv	a5,s6
    2a00:	8de2                	mv	s11,s8
    2a02:	4681                	li	a3,0
    2a04:	4b01                	li	s6,0
    2a06:	4501                	li	a0,0
    2a08:	06500713          	li	a4,101
    2a0c:	00e78763          	beq	a5,a4,2a1a <_strtod_l+0x1ec>
    2a10:	04500713          	li	a4,69
    2a14:	4981                	li	s3,0
    2a16:	16e79963          	bne	a5,a4,2b88 <_strtod_l+0x35a>
    2a1a:	000d9663          	bnez	s11,2a26 <_strtod_l+0x1f8>
    2a1e:	0156e7b3          	or	a5,a3,s5
    2a22:	db91                	beqz	a5,2936 <_strtod_l+0x108>
    2a24:	4d81                	li	s11,0
    2a26:	4d36                	lw	s10,76(sp)
    2a28:	02b00713          	li	a4,43
    2a2c:	001d0793          	addi	a5,s10,1
    2a30:	c6be                	sw	a5,76(sp)
    2a32:	001d4783          	lbu	a5,1(s10)
    2a36:	0ee78263          	beq	a5,a4,2b1a <_strtod_l+0x2ec>
    2a3a:	02d00713          	li	a4,45
    2a3e:	4801                	li	a6,0
    2a40:	0ee79363          	bne	a5,a4,2b26 <_strtod_l+0x2f8>
    2a44:	4805                	li	a6,1
    2a46:	a8d9                	j	2b1c <_strtod_l+0x2ee>
    2a48:	0185c963          	blt	a1,s8,2a5a <_strtod_l+0x22c>
    2a4c:	02fb8bb3          	mul	s7,s7,a5
    2a50:	9bba                	add	s7,s7,a4
    2a52:	0505                	addi	a0,a0,1
    2a54:	0c05                	addi	s8,s8,1
    2a56:	c6aa                	sw	a0,76(sp)
    2a58:	b761                	j	29e0 <_strtod_l+0x1b2>
    2a5a:	02fa0a33          	mul	s4,s4,a5
    2a5e:	9a3a                	add	s4,s4,a4
    2a60:	bfcd                	j	2a52 <_strtod_l+0x224>
    2a62:	4536                	lw	a0,76(sp)
    2a64:	4681                	li	a3,0
    2a66:	954e                	add	a0,a0,s3
    2a68:	c6aa                	sw	a0,76(sp)
    2a6a:	00054783          	lbu	a5,0(a0)
    2a6e:	060c0d63          	beqz	s8,2ae8 <_strtod_l+0x2ba>
    2a72:	4b01                	li	s6,0
    2a74:	8de2                	mv	s11,s8
    2a76:	fd078713          	addi	a4,a5,-48
    2a7a:	4625                	li	a2,9
    2a7c:	02e67663          	bgeu	a2,a4,2aa8 <_strtod_l+0x27a>
    2a80:	4505                	li	a0,1
    2a82:	b759                	j	2a08 <_strtod_l+0x1da>
    2a84:	47b6                	lw	a5,76(sp)
    2a86:	0685                	addi	a3,a3,1
    2a88:	00178613          	addi	a2,a5,1
    2a8c:	c6b2                	sw	a2,76(sp)
    2a8e:	0017c783          	lbu	a5,1(a5)
    2a92:	fee789e3          	beq	a5,a4,2a84 <_strtod_l+0x256>
    2a96:	fcf78713          	addi	a4,a5,-49
    2a9a:	4621                	li	a2,8
    2a9c:	1ee66ae3          	bltu	a2,a4,3490 <_strtod_l+0xc62>
    2aa0:	4cb6                	lw	s9,76(sp)
    2aa2:	8b36                	mv	s6,a3
    2aa4:	4d81                	li	s11,0
    2aa6:	4681                	li	a3,0
    2aa8:	fd078793          	addi	a5,a5,-48
    2aac:	00168713          	addi	a4,a3,1
    2ab0:	c785                	beqz	a5,2ad8 <_strtod_l+0x2aa>
    2ab2:	9b3a                	add	s6,s6,a4
    2ab4:	01b68533          	add	a0,a3,s11
    2ab8:	876e                	mv	a4,s11
    2aba:	4821                	li	a6,8
    2abc:	48c1                	li	a7,16
    2abe:	4629                	li	a2,10
    2ac0:	02a71763          	bne	a4,a0,2aee <_strtod_l+0x2c0>
    2ac4:	0d85                	addi	s11,s11,1
    2ac6:	9db6                	add	s11,s11,a3
    2ac8:	46a1                	li	a3,8
    2aca:	02e6cf63          	blt	a3,a4,2b08 <_strtod_l+0x2da>
    2ace:	4729                	li	a4,10
    2ad0:	02eb8bb3          	mul	s7,s7,a4
    2ad4:	4701                	li	a4,0
    2ad6:	9bbe                	add	s7,s7,a5
    2ad8:	47b6                	lw	a5,76(sp)
    2ada:	00178693          	addi	a3,a5,1
    2ade:	c6b6                	sw	a3,76(sp)
    2ae0:	0017c783          	lbu	a5,1(a5)
    2ae4:	86ba                	mv	a3,a4
    2ae6:	bf41                	j	2a76 <_strtod_l+0x248>
    2ae8:	03000713          	li	a4,48
    2aec:	b75d                	j	2a92 <_strtod_l+0x264>
    2aee:	00170593          	addi	a1,a4,1
    2af2:	00e84663          	blt	a6,a4,2afe <_strtod_l+0x2d0>
    2af6:	02cb8bb3          	mul	s7,s7,a2
    2afa:	872e                	mv	a4,a1
    2afc:	b7d1                	j	2ac0 <_strtod_l+0x292>
    2afe:	feb8cee3          	blt	a7,a1,2afa <_strtod_l+0x2cc>
    2b02:	02ca0a33          	mul	s4,s4,a2
    2b06:	bfd5                	j	2afa <_strtod_l+0x2cc>
    2b08:	46c1                	li	a3,16
    2b0a:	4701                	li	a4,0
    2b0c:	fdb6c6e3          	blt	a3,s11,2ad8 <_strtod_l+0x2aa>
    2b10:	46a9                	li	a3,10
    2b12:	02da0a33          	mul	s4,s4,a3
    2b16:	9a3e                	add	s4,s4,a5
    2b18:	b7c1                	j	2ad8 <_strtod_l+0x2aa>
    2b1a:	4801                	li	a6,0
    2b1c:	002d0793          	addi	a5,s10,2
    2b20:	c6be                	sw	a5,76(sp)
    2b22:	002d4783          	lbu	a5,2(s10)
    2b26:	fd078713          	addi	a4,a5,-48
    2b2a:	4625                	li	a2,9
    2b2c:	0ce66763          	bltu	a2,a4,2bfa <_strtod_l+0x3cc>
    2b30:	03000713          	li	a4,48
    2b34:	0ae78663          	beq	a5,a4,2be0 <_strtod_l+0x3b2>
    2b38:	fcf78713          	addi	a4,a5,-49
    2b3c:	4621                	li	a2,8
    2b3e:	4981                	li	s3,0
    2b40:	04e66463          	bltu	a2,a4,2b88 <_strtod_l+0x35a>
    2b44:	48b6                	lw	a7,76(sp)
    2b46:	fd078713          	addi	a4,a5,-48
    2b4a:	4325                	li	t1,9
    2b4c:	4e29                	li	t3,10
    2b4e:	47b6                	lw	a5,76(sp)
    2b50:	00178613          	addi	a2,a5,1
    2b54:	c6b2                	sw	a2,76(sp)
    2b56:	0017c783          	lbu	a5,1(a5)
    2b5a:	fd078593          	addi	a1,a5,-48
    2b5e:	0ff5f593          	andi	a1,a1,255
    2b62:	08b37663          	bgeu	t1,a1,2bee <_strtod_l+0x3c0>
    2b66:	6995                	lui	s3,0x5
    2b68:	41160633          	sub	a2,a2,a7
    2b6c:	e1f98993          	addi	s3,s3,-481 # 4e1f <__gethex+0x44f>
    2b70:	48a1                	li	a7,8
    2b72:	85ce                	mv	a1,s3
    2b74:	00c8c663          	blt	a7,a2,2b80 <_strtod_l+0x352>
    2b78:	89ba                	mv	s3,a4
    2b7a:	00e5d363          	bge	a1,a4,2b80 <_strtod_l+0x352>
    2b7e:	89ae                	mv	s3,a1
    2b80:	00080463          	beqz	a6,2b88 <_strtod_l+0x35a>
    2b84:	413009b3          	neg	s3,s3
    2b88:	0c0d9863          	bnez	s11,2c58 <_strtod_l+0x42a>
    2b8c:	00dae6b3          	or	a3,s5,a3
    2b90:	d40699e3          	bnez	a3,28e2 <_strtod_l+0xb4>
    2b94:	da0511e3          	bnez	a0,2936 <_strtod_l+0x108>
    2b98:	04e00713          	li	a4,78
    2b9c:	06e78a63          	beq	a5,a4,2c10 <_strtod_l+0x3e2>
    2ba0:	06f74063          	blt	a4,a5,2c00 <_strtod_l+0x3d2>
    2ba4:	04900713          	li	a4,73
    2ba8:	d8e797e3          	bne	a5,a4,2936 <_strtod_l+0x108>
    2bac:	00006597          	auipc	a1,0x6
    2bb0:	adc58593          	addi	a1,a1,-1316 # 8688 <__clz_tab+0x1a0>
    2bb4:	00e8                	addi	a0,sp,76
    2bb6:	308020ef          	jal	ra,4ebe <__match>
    2bba:	d6050ee3          	beqz	a0,2936 <_strtod_l+0x108>
    2bbe:	47b6                	lw	a5,76(sp)
    2bc0:	00006597          	auipc	a1,0x6
    2bc4:	acc58593          	addi	a1,a1,-1332 # 868c <__clz_tab+0x1a4>
    2bc8:	00e8                	addi	a0,sp,76
    2bca:	17fd                	addi	a5,a5,-1
    2bcc:	c6be                	sw	a5,76(sp)
    2bce:	2f0020ef          	jal	ra,4ebe <__match>
    2bd2:	e501                	bnez	a0,2bda <_strtod_l+0x3ac>
    2bd4:	47b6                	lw	a5,76(sp)
    2bd6:	0785                	addi	a5,a5,1
    2bd8:	c6be                	sw	a5,76(sp)
    2bda:	7ff00437          	lui	s0,0x7ff00
    2bde:	b311                	j	28e2 <_strtod_l+0xb4>
    2be0:	47b6                	lw	a5,76(sp)
    2be2:	00178613          	addi	a2,a5,1
    2be6:	c6b2                	sw	a2,76(sp)
    2be8:	0017c783          	lbu	a5,1(a5)
    2bec:	b7a1                	j	2b34 <_strtod_l+0x306>
    2bee:	03c70733          	mul	a4,a4,t3
    2bf2:	97ba                	add	a5,a5,a4
    2bf4:	fd078713          	addi	a4,a5,-48
    2bf8:	bf99                	j	2b4e <_strtod_l+0x320>
    2bfa:	c6ea                	sw	s10,76(sp)
    2bfc:	4981                	li	s3,0
    2bfe:	b769                	j	2b88 <_strtod_l+0x35a>
    2c00:	06900713          	li	a4,105
    2c04:	fae784e3          	beq	a5,a4,2bac <_strtod_l+0x37e>
    2c08:	06e00713          	li	a4,110
    2c0c:	d2e795e3          	bne	a5,a4,2936 <_strtod_l+0x108>
    2c10:	00006597          	auipc	a1,0x6
    2c14:	a8458593          	addi	a1,a1,-1404 # 8694 <__clz_tab+0x1ac>
    2c18:	00e8                	addi	a0,sp,76
    2c1a:	2a4020ef          	jal	ra,4ebe <__match>
    2c1e:	d0050ce3          	beqz	a0,2936 <_strtod_l+0x108>
    2c22:	47b6                	lw	a5,76(sp)
    2c24:	0007c703          	lbu	a4,0(a5)
    2c28:	02800793          	li	a5,40
    2c2c:	02f71363          	bne	a4,a5,2c52 <_strtod_l+0x424>
    2c30:	08b0                	addi	a2,sp,88
    2c32:	00006597          	auipc	a1,0x6
    2c36:	a7a58593          	addi	a1,a1,-1414 # 86ac <fpinan.3431>
    2c3a:	00e8                	addi	a0,sp,76
    2c3c:	2b2020ef          	jal	ra,4eee <__hexnan>
    2c40:	4795                	li	a5,5
    2c42:	00f51863          	bne	a0,a5,2c52 <_strtod_l+0x424>
    2c46:	45f6                	lw	a1,92(sp)
    2c48:	7ff00437          	lui	s0,0x7ff00
    2c4c:	44e6                	lw	s1,88(sp)
    2c4e:	8c4d                	or	s0,s0,a1
    2c50:	b949                	j	28e2 <_strtod_l+0xb4>
    2c52:	fff80437          	lui	s0,0xfff80
    2c56:	b171                	j	28e2 <_strtod_l+0xb4>
    2c58:	41698ab3          	sub	s5,s3,s6
    2c5c:	000c1363          	bnez	s8,2c62 <_strtod_l+0x434>
    2c60:	8c6e                	mv	s8,s11
    2c62:	47c1                	li	a5,16
    2c64:	8d6e                	mv	s10,s11
    2c66:	01b7d363          	bge	a5,s11,2c6c <_strtod_l+0x43e>
    2c6a:	4d41                	li	s10,16
    2c6c:	855e                	mv	a0,s7
    2c6e:	1a2050ef          	jal	ra,7e10 <__floatunsidf>
    2c72:	47a5                	li	a5,9
    2c74:	84aa                	mv	s1,a0
    2c76:	842e                	mv	s0,a1
    2c78:	03b7dc63          	bge	a5,s11,2cb0 <_strtod_l+0x482>
    2c7c:	ff7d0793          	addi	a5,s10,-9
    2c80:	00379713          	slli	a4,a5,0x3
    2c84:	00006797          	auipc	a5,0x6
    2c88:	b4478793          	addi	a5,a5,-1212 # 87c8 <__mprec_tens>
    2c8c:	97ba                	add	a5,a5,a4
    2c8e:	4390                	lw	a2,0(a5)
    2c90:	43d4                	lw	a3,4(a5)
    2c92:	dbefe0ef          	jal	ra,1250 <__muldf3>
    2c96:	842a                	mv	s0,a0
    2c98:	8552                	mv	a0,s4
    2c9a:	84ae                	mv	s1,a1
    2c9c:	174050ef          	jal	ra,7e10 <__floatunsidf>
    2ca0:	862a                	mv	a2,a0
    2ca2:	86ae                	mv	a3,a1
    2ca4:	8522                	mv	a0,s0
    2ca6:	85a6                	mv	a1,s1
    2ca8:	279030ef          	jal	ra,6720 <__adddf3>
    2cac:	84aa                	mv	s1,a0
    2cae:	842e                	mv	s0,a1
    2cb0:	47bd                	li	a5,15
    2cb2:	09b7cd63          	blt	a5,s11,2d4c <_strtod_l+0x51e>
    2cb6:	c20a86e3          	beqz	s5,28e2 <_strtod_l+0xb4>
    2cba:	07505463          	blez	s5,2d22 <_strtod_l+0x4f4>
    2cbe:	4759                	li	a4,22
    2cc0:	03574363          	blt	a4,s5,2ce6 <_strtod_l+0x4b8>
    2cc4:	0a8e                	slli	s5,s5,0x3
    2cc6:	00006797          	auipc	a5,0x6
    2cca:	b0278793          	addi	a5,a5,-1278 # 87c8 <__mprec_tens>
    2cce:	9abe                	add	s5,s5,a5
    2cd0:	000aa503          	lw	a0,0(s5)
    2cd4:	004aa583          	lw	a1,4(s5)
    2cd8:	8626                	mv	a2,s1
    2cda:	86a2                	mv	a3,s0
    2cdc:	d74fe0ef          	jal	ra,1250 <__muldf3>
    2ce0:	84aa                	mv	s1,a0
    2ce2:	842e                	mv	s0,a1
    2ce4:	befd                	j	28e2 <_strtod_l+0xb4>
    2ce6:	02500713          	li	a4,37
    2cea:	41b70733          	sub	a4,a4,s11
    2cee:	05574f63          	blt	a4,s5,2d4c <_strtod_l+0x51e>
    2cf2:	41b78db3          	sub	s11,a5,s11
    2cf6:	00006917          	auipc	s2,0x6
    2cfa:	ad290913          	addi	s2,s2,-1326 # 87c8 <__mprec_tens>
    2cfe:	003d9793          	slli	a5,s11,0x3
    2d02:	97ca                	add	a5,a5,s2
    2d04:	4388                	lw	a0,0(a5)
    2d06:	43cc                	lw	a1,4(a5)
    2d08:	41ba8db3          	sub	s11,s5,s11
    2d0c:	8626                	mv	a2,s1
    2d0e:	86a2                	mv	a3,s0
    2d10:	0d8e                	slli	s11,s11,0x3
    2d12:	d3efe0ef          	jal	ra,1250 <__muldf3>
    2d16:	9dca                	add	s11,s11,s2
    2d18:	000da603          	lw	a2,0(s11)
    2d1c:	004da683          	lw	a3,4(s11)
    2d20:	bf75                	j	2cdc <_strtod_l+0x4ae>
    2d22:	57a9                	li	a5,-22
    2d24:	02fac463          	blt	s5,a5,2d4c <_strtod_l+0x51e>
    2d28:	413b09b3          	sub	s3,s6,s3
    2d2c:	00399b13          	slli	s6,s3,0x3
    2d30:	00006997          	auipc	s3,0x6
    2d34:	a9898993          	addi	s3,s3,-1384 # 87c8 <__mprec_tens>
    2d38:	99da                	add	s3,s3,s6
    2d3a:	0009a603          	lw	a2,0(s3)
    2d3e:	0049a683          	lw	a3,4(s3)
    2d42:	8526                	mv	a0,s1
    2d44:	85a2                	mv	a1,s0
    2d46:	10a040ef          	jal	ra,6e50 <__divdf3>
    2d4a:	bf59                	j	2ce0 <_strtod_l+0x4b2>
    2d4c:	41ad8d33          	sub	s10,s11,s10
    2d50:	9d56                	add	s10,s10,s5
    2d52:	11a05763          	blez	s10,2e60 <_strtod_l+0x632>
    2d56:	00fd7793          	andi	a5,s10,15
    2d5a:	cf99                	beqz	a5,2d78 <_strtod_l+0x54a>
    2d5c:	00006717          	auipc	a4,0x6
    2d60:	a6c70713          	addi	a4,a4,-1428 # 87c8 <__mprec_tens>
    2d64:	078e                	slli	a5,a5,0x3
    2d66:	97ba                	add	a5,a5,a4
    2d68:	4388                	lw	a0,0(a5)
    2d6a:	43cc                	lw	a1,4(a5)
    2d6c:	8626                	mv	a2,s1
    2d6e:	86a2                	mv	a3,s0
    2d70:	ce0fe0ef          	jal	ra,1250 <__muldf3>
    2d74:	84aa                	mv	s1,a0
    2d76:	842e                	mv	s0,a1
    2d78:	ff0d7d13          	andi	s10,s10,-16
    2d7c:	0a0d0863          	beqz	s10,2e2c <_strtod_l+0x5fe>
    2d80:	13400793          	li	a5,308
    2d84:	05a7d563          	bge	a5,s10,2dce <_strtod_l+0x5a0>
    2d88:	4b01                	li	s6,0
    2d8a:	4981                	li	s3,0
    2d8c:	c602                	sw	zero,12(sp)
    2d8e:	4b81                	li	s7,0
    2d90:	02200793          	li	a5,34
    2d94:	00f92023          	sw	a5,0(s2)
    2d98:	7ff00437          	lui	s0,0x7ff00
    2d9c:	4481                	li	s1,0
    2d9e:	47b2                	lw	a5,12(sp)
    2da0:	b40781e3          	beqz	a5,28e2 <_strtod_l+0xb4>
    2da4:	45c6                	lw	a1,80(sp)
    2da6:	854a                	mv	a0,s2
    2da8:	568020ef          	jal	ra,5310 <_Bfree>
    2dac:	85de                	mv	a1,s7
    2dae:	854a                	mv	a0,s2
    2db0:	560020ef          	jal	ra,5310 <_Bfree>
    2db4:	85ce                	mv	a1,s3
    2db6:	854a                	mv	a0,s2
    2db8:	558020ef          	jal	ra,5310 <_Bfree>
    2dbc:	45b2                	lw	a1,12(sp)
    2dbe:	854a                	mv	a0,s2
    2dc0:	550020ef          	jal	ra,5310 <_Bfree>
    2dc4:	85da                	mv	a1,s6
    2dc6:	854a                	mv	a0,s2
    2dc8:	548020ef          	jal	ra,5310 <_Bfree>
    2dcc:	be19                	j	28e2 <_strtod_l+0xb4>
    2dce:	404d5d13          	srai	s10,s10,0x4
    2dd2:	8526                	mv	a0,s1
    2dd4:	85a2                	mv	a1,s0
    2dd6:	4781                	li	a5,0
    2dd8:	4a01                	li	s4,0
    2dda:	4805                	li	a6,1
    2ddc:	00006897          	auipc	a7,0x6
    2de0:	9c488893          	addi	a7,a7,-1596 # 87a0 <__mprec_bigtens>
    2de4:	05a84663          	blt	a6,s10,2e30 <_strtod_l+0x602>
    2de8:	c399                	beqz	a5,2dee <_strtod_l+0x5c0>
    2dea:	84aa                	mv	s1,a0
    2dec:	842e                	mv	s0,a1
    2dee:	00006717          	auipc	a4,0x6
    2df2:	9b270713          	addi	a4,a4,-1614 # 87a0 <__mprec_bigtens>
    2df6:	003a1793          	slli	a5,s4,0x3
    2dfa:	97ba                	add	a5,a5,a4
    2dfc:	4388                	lw	a0,0(a5)
    2dfe:	43cc                	lw	a1,4(a5)
    2e00:	fcb00737          	lui	a4,0xfcb00
    2e04:	9722                	add	a4,a4,s0
    2e06:	8626                	mv	a2,s1
    2e08:	86ba                	mv	a3,a4
    2e0a:	c46fe0ef          	jal	ra,1250 <__muldf3>
    2e0e:	7ff00437          	lui	s0,0x7ff00
    2e12:	00b477b3          	and	a5,s0,a1
    2e16:	7ca00737          	lui	a4,0x7ca00
    2e1a:	84aa                	mv	s1,a0
    2e1c:	f6f766e3          	bltu	a4,a5,2d88 <_strtod_l+0x55a>
    2e20:	7c900737          	lui	a4,0x7c900
    2e24:	02f77a63          	bgeu	a4,a5,2e58 <_strtod_l+0x62a>
    2e28:	147d                	addi	s0,s0,-1
    2e2a:	54fd                	li	s1,-1
    2e2c:	4a01                	li	s4,0
    2e2e:	a8dd                	j	2f24 <_strtod_l+0x6f6>
    2e30:	001d7713          	andi	a4,s10,1
    2e34:	cf11                	beqz	a4,2e50 <_strtod_l+0x622>
    2e36:	003a1713          	slli	a4,s4,0x3
    2e3a:	9746                	add	a4,a4,a7
    2e3c:	4310                	lw	a2,0(a4)
    2e3e:	4354                	lw	a3,4(a4)
    2e40:	c10fe0ef          	jal	ra,1250 <__muldf3>
    2e44:	4785                	li	a5,1
    2e46:	4805                	li	a6,1
    2e48:	00006897          	auipc	a7,0x6
    2e4c:	95888893          	addi	a7,a7,-1704 # 87a0 <__mprec_bigtens>
    2e50:	0a05                	addi	s4,s4,1
    2e52:	401d5d13          	srai	s10,s10,0x1
    2e56:	b779                	j	2de4 <_strtod_l+0x5b6>
    2e58:	03500437          	lui	s0,0x3500
    2e5c:	942e                	add	s0,s0,a1
    2e5e:	b7f9                	j	2e2c <_strtod_l+0x5fe>
    2e60:	fc0d06e3          	beqz	s10,2e2c <_strtod_l+0x5fe>
    2e64:	41a00d33          	neg	s10,s10
    2e68:	00fd7793          	andi	a5,s10,15
    2e6c:	cf99                	beqz	a5,2e8a <_strtod_l+0x65c>
    2e6e:	00006717          	auipc	a4,0x6
    2e72:	95a70713          	addi	a4,a4,-1702 # 87c8 <__mprec_tens>
    2e76:	078e                	slli	a5,a5,0x3
    2e78:	97ba                	add	a5,a5,a4
    2e7a:	4390                	lw	a2,0(a5)
    2e7c:	43d4                	lw	a3,4(a5)
    2e7e:	8526                	mv	a0,s1
    2e80:	85a2                	mv	a1,s0
    2e82:	7cf030ef          	jal	ra,6e50 <__divdf3>
    2e86:	84aa                	mv	s1,a0
    2e88:	842e                	mv	s0,a1
    2e8a:	404d5d13          	srai	s10,s10,0x4
    2e8e:	f80d0fe3          	beqz	s10,2e2c <_strtod_l+0x5fe>
    2e92:	47fd                	li	a5,31
    2e94:	01a7dd63          	bge	a5,s10,2eae <_strtod_l+0x680>
    2e98:	4b01                	li	s6,0
    2e9a:	4981                	li	s3,0
    2e9c:	c602                	sw	zero,12(sp)
    2e9e:	4b81                	li	s7,0
    2ea0:	02200793          	li	a5,34
    2ea4:	4481                	li	s1,0
    2ea6:	4401                	li	s0,0
    2ea8:	00f92023          	sw	a5,0(s2)
    2eac:	bdcd                	j	2d9e <_strtod_l+0x570>
    2eae:	010d7a13          	andi	s4,s10,16
    2eb2:	000a0463          	beqz	s4,2eba <_strtod_l+0x68c>
    2eb6:	06a00a13          	li	s4,106
    2eba:	8526                	mv	a0,s1
    2ebc:	85a2                	mv	a1,s0
    2ebe:	00006797          	auipc	a5,0x6
    2ec2:	80278793          	addi	a5,a5,-2046 # 86c0 <tinytens>
    2ec6:	4701                	li	a4,0
    2ec8:	001d7693          	andi	a3,s10,1
    2ecc:	ca81                	beqz	a3,2edc <_strtod_l+0x6ae>
    2ece:	4390                	lw	a2,0(a5)
    2ed0:	43d4                	lw	a3,4(a5)
    2ed2:	c63e                	sw	a5,12(sp)
    2ed4:	b7cfe0ef          	jal	ra,1250 <__muldf3>
    2ed8:	47b2                	lw	a5,12(sp)
    2eda:	4705                	li	a4,1
    2edc:	401d5d13          	srai	s10,s10,0x1
    2ee0:	07a1                	addi	a5,a5,8
    2ee2:	fe0d13e3          	bnez	s10,2ec8 <_strtod_l+0x69a>
    2ee6:	c319                	beqz	a4,2eec <_strtod_l+0x6be>
    2ee8:	84aa                	mv	s1,a0
    2eea:	842e                	mv	s0,a1
    2eec:	020a0563          	beqz	s4,2f16 <_strtod_l+0x6e8>
    2ef0:	01445793          	srli	a5,s0,0x14
    2ef4:	7ff7f713          	andi	a4,a5,2047
    2ef8:	06b00793          	li	a5,107
    2efc:	8f99                	sub	a5,a5,a4
    2efe:	00f05c63          	blez	a5,2f16 <_strtod_l+0x6e8>
    2f02:	477d                	li	a4,31
    2f04:	22f75463          	bge	a4,a5,312c <_strtod_l+0x8fe>
    2f08:	03400713          	li	a4,52
    2f0c:	4481                	li	s1,0
    2f0e:	20f75963          	bge	a4,a5,3120 <_strtod_l+0x8f2>
    2f12:	03700437          	lui	s0,0x3700
    2f16:	4601                	li	a2,0
    2f18:	4681                	li	a3,0
    2f1a:	8526                	mv	a0,s1
    2f1c:	85a2                	mv	a1,s0
    2f1e:	4e6040ef          	jal	ra,7404 <__eqdf2>
    2f22:	d93d                	beqz	a0,2e98 <_strtod_l+0x66a>
    2f24:	875e                	mv	a4,s7
    2f26:	86ee                	mv	a3,s11
    2f28:	8662                	mv	a2,s8
    2f2a:	85e6                	mv	a1,s9
    2f2c:	854a                	mv	a0,s2
    2f2e:	4be020ef          	jal	ra,53ec <__s2b>
    2f32:	c62a                	sw	a0,12(sp)
    2f34:	e4050ae3          	beqz	a0,2d88 <_strtod_l+0x55a>
    2f38:	41fad793          	srai	a5,s5,0x1f
    2f3c:	413b09b3          	sub	s3,s6,s3
    2f40:	00f9f7b3          	and	a5,s3,a5
    2f44:	d03e                	sw	a5,32(sp)
    2f46:	ce56                	sw	s5,28(sp)
    2f48:	000ad363          	bgez	s5,2f4e <_strtod_l+0x720>
    2f4c:	ce02                	sw	zero,28(sp)
    2f4e:	47b2                	lw	a5,12(sp)
    2f50:	4b01                	li	s6,0
    2f52:	4981                	li	s3,0
    2f54:	07b1                	addi	a5,a5,12
    2f56:	d83e                	sw	a5,48(sp)
    2f58:	001007b7          	lui	a5,0x100
    2f5c:	17fd                	addi	a5,a5,-1
    2f5e:	d63e                	sw	a5,44(sp)
    2f60:	47b2                	lw	a5,12(sp)
    2f62:	854a                	mv	a0,s2
    2f64:	43cc                	lw	a1,4(a5)
    2f66:	31e020ef          	jal	ra,5284 <_Balloc>
    2f6a:	8baa                	mv	s7,a0
    2f6c:	e20502e3          	beqz	a0,2d90 <_strtod_l+0x562>
    2f70:	47b2                	lw	a5,12(sp)
    2f72:	55c2                	lw	a1,48(sp)
    2f74:	0531                	addi	a0,a0,12
    2f76:	4b90                	lw	a2,16(a5)
    2f78:	0609                	addi	a2,a2,2
    2f7a:	060a                	slli	a2,a2,0x2
    2f7c:	252020ef          	jal	ra,51ce <memcpy>
    2f80:	08b8                	addi	a4,sp,88
    2f82:	08d4                	addi	a3,sp,84
    2f84:	8622                	mv	a2,s0
    2f86:	85a6                	mv	a1,s1
    2f88:	854a                	mv	a0,s2
    2f8a:	ca26                	sw	s1,20(sp)
    2f8c:	cc22                	sw	s0,24(sp)
    2f8e:	2bf020ef          	jal	ra,5a4c <__d2b>
    2f92:	c8aa                	sw	a0,80(sp)
    2f94:	de050ee3          	beqz	a0,2d90 <_strtod_l+0x562>
    2f98:	4585                	li	a1,1
    2f9a:	854a                	mv	a0,s2
    2f9c:	5a6020ef          	jal	ra,5542 <__i2b>
    2fa0:	89aa                	mv	s3,a0
    2fa2:	de0507e3          	beqz	a0,2d90 <_strtod_l+0x562>
    2fa6:	47d6                	lw	a5,84(sp)
    2fa8:	1807c763          	bltz	a5,3136 <_strtod_l+0x908>
    2fac:	5702                	lw	a4,32(sp)
    2fae:	4c72                	lw	s8,28(sp)
    2fb0:	00e78d33          	add	s10,a5,a4
    2fb4:	4766                	lw	a4,88(sp)
    2fb6:	414787b3          	sub	a5,a5,s4
    2fba:	03600693          	li	a3,54
    2fbe:	97ba                	add	a5,a5,a4
    2fc0:	17fd                	addi	a5,a5,-1
    2fc2:	c0200d93          	li	s11,-1022
    2fc6:	8e99                	sub	a3,a3,a4
    2fc8:	19b7d663          	bge	a5,s11,3154 <_strtod_l+0x926>
    2fcc:	40fd8733          	sub	a4,s11,a5
    2fd0:	467d                	li	a2,31
    2fd2:	8e99                	sub	a3,a3,a4
    2fd4:	16e64663          	blt	a2,a4,3140 <_strtod_l+0x912>
    2fd8:	4d85                	li	s11,1
    2fda:	00ed97b3          	sll	a5,s11,a4
    2fde:	d23e                	sw	a5,36(sp)
    2fe0:	4c81                	li	s9,0
    2fe2:	9c36                	add	s8,s8,a3
    2fe4:	00dd0db3          	add	s11,s10,a3
    2fe8:	9c52                	add	s8,s8,s4
    2fea:	87ea                	mv	a5,s10
    2fec:	01add363          	bge	s11,s10,2ff2 <_strtod_l+0x7c4>
    2ff0:	87ee                	mv	a5,s11
    2ff2:	00fc5363          	bge	s8,a5,2ff8 <_strtod_l+0x7ca>
    2ff6:	87e2                	mv	a5,s8
    2ff8:	00f05863          	blez	a5,3008 <_strtod_l+0x7da>
    2ffc:	40fd8db3          	sub	s11,s11,a5
    3000:	40fc0c33          	sub	s8,s8,a5
    3004:	40fd0d33          	sub	s10,s10,a5
    3008:	5782                	lw	a5,32(sp)
    300a:	02f05863          	blez	a5,303a <_strtod_l+0x80c>
    300e:	85ce                	mv	a1,s3
    3010:	863e                	mv	a2,a5
    3012:	854a                	mv	a0,s2
    3014:	68e020ef          	jal	ra,56a2 <__pow5mult>
    3018:	89aa                	mv	s3,a0
    301a:	d6050be3          	beqz	a0,2d90 <_strtod_l+0x562>
    301e:	4646                	lw	a2,80(sp)
    3020:	85aa                	mv	a1,a0
    3022:	854a                	mv	a0,s2
    3024:	53a020ef          	jal	ra,555e <__multiply>
    3028:	da2a                	sw	a0,52(sp)
    302a:	d60503e3          	beqz	a0,2d90 <_strtod_l+0x562>
    302e:	45c6                	lw	a1,80(sp)
    3030:	854a                	mv	a0,s2
    3032:	2de020ef          	jal	ra,5310 <_Bfree>
    3036:	57d2                	lw	a5,52(sp)
    3038:	c8be                	sw	a5,80(sp)
    303a:	11b04f63          	bgtz	s11,3158 <_strtod_l+0x92a>
    303e:	01505a63          	blez	s5,3052 <_strtod_l+0x824>
    3042:	4672                	lw	a2,28(sp)
    3044:	85de                	mv	a1,s7
    3046:	854a                	mv	a0,s2
    3048:	65a020ef          	jal	ra,56a2 <__pow5mult>
    304c:	8baa                	mv	s7,a0
    304e:	d40501e3          	beqz	a0,2d90 <_strtod_l+0x562>
    3052:	01805a63          	blez	s8,3066 <_strtod_l+0x838>
    3056:	85de                	mv	a1,s7
    3058:	8662                	mv	a2,s8
    305a:	854a                	mv	a0,s2
    305c:	704020ef          	jal	ra,5760 <__lshift>
    3060:	8baa                	mv	s7,a0
    3062:	d20507e3          	beqz	a0,2d90 <_strtod_l+0x562>
    3066:	01a05a63          	blez	s10,307a <_strtod_l+0x84c>
    306a:	85ce                	mv	a1,s3
    306c:	866a                	mv	a2,s10
    306e:	854a                	mv	a0,s2
    3070:	6f0020ef          	jal	ra,5760 <__lshift>
    3074:	89aa                	mv	s3,a0
    3076:	d0050de3          	beqz	a0,2d90 <_strtod_l+0x562>
    307a:	45c6                	lw	a1,80(sp)
    307c:	865e                	mv	a2,s7
    307e:	854a                	mv	a0,s2
    3080:	7e0020ef          	jal	ra,5860 <__mdiff>
    3084:	8b2a                	mv	s6,a0
    3086:	d00505e3          	beqz	a0,2d90 <_strtod_l+0x562>
    308a:	00c52c03          	lw	s8,12(a0)
    308e:	85ce                	mv	a1,s3
    3090:	00052623          	sw	zero,12(a0)
    3094:	79a020ef          	jal	ra,582e <__mcmp>
    3098:	0c055963          	bgez	a0,316a <_strtod_l+0x93c>
    309c:	009c6c33          	or	s8,s8,s1
    30a0:	120c1163          	bnez	s8,31c2 <_strtod_l+0x994>
    30a4:	00c41793          	slli	a5,s0,0xc
    30a8:	10079d63          	bnez	a5,31c2 <_strtod_l+0x994>
    30ac:	7ff007b7          	lui	a5,0x7ff00
    30b0:	8fe1                	and	a5,a5,s0
    30b2:	06b00737          	lui	a4,0x6b00
    30b6:	10f77663          	bgeu	a4,a5,31c2 <_strtod_l+0x994>
    30ba:	014b2783          	lw	a5,20(s6)
    30be:	e791                	bnez	a5,30ca <_strtod_l+0x89c>
    30c0:	010b2703          	lw	a4,16(s6)
    30c4:	4785                	li	a5,1
    30c6:	0ee7de63          	bge	a5,a4,31c2 <_strtod_l+0x994>
    30ca:	85da                	mv	a1,s6
    30cc:	4605                	li	a2,1
    30ce:	854a                	mv	a0,s2
    30d0:	690020ef          	jal	ra,5760 <__lshift>
    30d4:	85ce                	mv	a1,s3
    30d6:	8b2a                	mv	s6,a0
    30d8:	756020ef          	jal	ra,582e <__mcmp>
    30dc:	0ea05363          	blez	a0,31c2 <_strtod_l+0x994>
    30e0:	100a0c63          	beqz	s4,31f8 <_strtod_l+0x9ca>
    30e4:	7ff007b7          	lui	a5,0x7ff00
    30e8:	8fe1                	and	a5,a5,s0
    30ea:	06b00737          	lui	a4,0x6b00
    30ee:	10f74563          	blt	a4,a5,31f8 <_strtod_l+0x9ca>
    30f2:	03700737          	lui	a4,0x3700
    30f6:	daf755e3          	bge	a4,a5,2ea0 <_strtod_l+0x672>
    30fa:	4701                	li	a4,0
    30fc:	395007b7          	lui	a5,0x39500
    3100:	8526                	mv	a0,s1
    3102:	85a2                	mv	a1,s0
    3104:	863a                	mv	a2,a4
    3106:	86be                	mv	a3,a5
    3108:	948fe0ef          	jal	ra,1250 <__muldf3>
    310c:	842e                	mv	s0,a1
    310e:	8dc9                	or	a1,a1,a0
    3110:	84aa                	mv	s1,a0
    3112:	c80599e3          	bnez	a1,2da4 <_strtod_l+0x576>
    3116:	02200793          	li	a5,34
    311a:	00f92023          	sw	a5,0(s2)
    311e:	b159                	j	2da4 <_strtod_l+0x576>
    3120:	1781                	addi	a5,a5,-32
    3122:	577d                	li	a4,-1
    3124:	00f717b3          	sll	a5,a4,a5
    3128:	8c7d                	and	s0,s0,a5
    312a:	b3f5                	j	2f16 <_strtod_l+0x6e8>
    312c:	577d                	li	a4,-1
    312e:	00f717b3          	sll	a5,a4,a5
    3132:	8cfd                	and	s1,s1,a5
    3134:	b3cd                	j	2f16 <_strtod_l+0x6e8>
    3136:	4772                	lw	a4,28(sp)
    3138:	5d02                	lw	s10,32(sp)
    313a:	40f70c33          	sub	s8,a4,a5
    313e:	bd9d                	j	2fb4 <_strtod_l+0x786>
    3140:	be200c93          	li	s9,-1054
    3144:	40fc87b3          	sub	a5,s9,a5
    3148:	4c85                	li	s9,1
    314a:	00fc9cb3          	sll	s9,s9,a5
    314e:	4785                	li	a5,1
    3150:	d23e                	sw	a5,36(sp)
    3152:	bd41                	j	2fe2 <_strtod_l+0x7b4>
    3154:	4c81                	li	s9,0
    3156:	bfe5                	j	314e <_strtod_l+0x920>
    3158:	45c6                	lw	a1,80(sp)
    315a:	866e                	mv	a2,s11
    315c:	854a                	mv	a0,s2
    315e:	602020ef          	jal	ra,5760 <__lshift>
    3162:	c8aa                	sw	a0,80(sp)
    3164:	ec051de3          	bnez	a0,303e <_strtod_l+0x810>
    3168:	b125                	j	2d90 <_strtod_l+0x562>
    316a:	e969                	bnez	a0,323c <_strtod_l+0xa0e>
    316c:	00100737          	lui	a4,0x100
    3170:	177d                	addi	a4,a4,-1
    3172:	00e477b3          	and	a5,s0,a4
    3176:	040c0963          	beqz	s8,31c8 <_strtod_l+0x99a>
    317a:	04e79963          	bne	a5,a4,31cc <_strtod_l+0x99e>
    317e:	577d                	li	a4,-1
    3180:	020a0063          	beqz	s4,31a0 <_strtod_l+0x972>
    3184:	7ff007b7          	lui	a5,0x7ff00
    3188:	8fe1                	and	a5,a5,s0
    318a:	06a006b7          	lui	a3,0x6a00
    318e:	00f6e963          	bltu	a3,a5,31a0 <_strtod_l+0x972>
    3192:	83d1                	srli	a5,a5,0x14
    3194:	06b00693          	li	a3,107
    3198:	40f687b3          	sub	a5,a3,a5
    319c:	00f71733          	sll	a4,a4,a5
    31a0:	02e49663          	bne	s1,a4,31cc <_strtod_l+0x99e>
    31a4:	7ff007b7          	lui	a5,0x7ff00
    31a8:	17fd                	addi	a5,a5,-1
    31aa:	00f41563          	bne	s0,a5,31b4 <_strtod_l+0x986>
    31ae:	57fd                	li	a5,-1
    31b0:	bef480e3          	beq	s1,a5,2d90 <_strtod_l+0x562>
    31b4:	7ff005b7          	lui	a1,0x7ff00
    31b8:	8de1                	and	a1,a1,s0
    31ba:	00100437          	lui	s0,0x100
    31be:	942e                	add	s0,s0,a1
    31c0:	4481                	li	s1,0
    31c2:	f20a1ce3          	bnez	s4,30fa <_strtod_l+0x8cc>
    31c6:	bef9                	j	2da4 <_strtod_l+0x576>
    31c8:	8fc5                	or	a5,a5,s1
    31ca:	db99                	beqz	a5,30e0 <_strtod_l+0x8b2>
    31cc:	040c8263          	beqz	s9,3210 <_strtod_l+0x9e2>
    31d0:	008cfcb3          	and	s9,s9,s0
    31d4:	fe0c87e3          	beqz	s9,31c2 <_strtod_l+0x994>
    31d8:	8652                	mv	a2,s4
    31da:	8526                	mv	a0,s1
    31dc:	85a2                	mv	a1,s0
    31de:	020c0f63          	beqz	s8,321c <_strtod_l+0x9ee>
    31e2:	dfeff0ef          	jal	ra,27e0 <sulp>
    31e6:	862a                	mv	a2,a0
    31e8:	86ae                	mv	a3,a1
    31ea:	4552                	lw	a0,20(sp)
    31ec:	45e2                	lw	a1,24(sp)
    31ee:	532030ef          	jal	ra,6720 <__adddf3>
    31f2:	84aa                	mv	s1,a0
    31f4:	842e                	mv	s0,a1
    31f6:	b7f1                	j	31c2 <_strtod_l+0x994>
    31f8:	7ff005b7          	lui	a1,0x7ff00
    31fc:	8de1                	and	a1,a1,s0
    31fe:	fff00437          	lui	s0,0xfff00
    3202:	95a2                	add	a1,a1,s0
    3204:	00100437          	lui	s0,0x100
    3208:	147d                	addi	s0,s0,-1
    320a:	8c4d                	or	s0,s0,a1
    320c:	54fd                	li	s1,-1
    320e:	bf55                	j	31c2 <_strtod_l+0x994>
    3210:	5792                	lw	a5,36(sp)
    3212:	0097fdb3          	and	s11,a5,s1
    3216:	fa0d86e3          	beqz	s11,31c2 <_strtod_l+0x994>
    321a:	bf7d                	j	31d8 <_strtod_l+0x9aa>
    321c:	dc4ff0ef          	jal	ra,27e0 <sulp>
    3220:	862a                	mv	a2,a0
    3222:	86ae                	mv	a3,a1
    3224:	4552                	lw	a0,20(sp)
    3226:	45e2                	lw	a1,24(sp)
    3228:	3aa040ef          	jal	ra,75d2 <__subdf3>
    322c:	4601                	li	a2,0
    322e:	4681                	li	a3,0
    3230:	84aa                	mv	s1,a0
    3232:	842e                	mv	s0,a1
    3234:	1d0040ef          	jal	ra,7404 <__eqdf2>
    3238:	f549                	bnez	a0,31c2 <_strtod_l+0x994>
    323a:	b19d                	j	2ea0 <_strtod_l+0x672>
    323c:	85ce                	mv	a1,s3
    323e:	855a                	mv	a0,s6
    3240:	0e1020ef          	jal	ra,5b20 <__ratio>
    3244:	00005797          	auipc	a5,0x5
    3248:	41c78793          	addi	a5,a5,1052 # 8660 <__clz_tab+0x178>
    324c:	4390                	lw	a2,0(a5)
    324e:	43d4                	lw	a3,4(a5)
    3250:	8d2a                	mv	s10,a0
    3252:	8dae                	mv	s11,a1
    3254:	2c8040ef          	jal	ra,751c <__ledf2>
    3258:	10a04263          	bgtz	a0,335c <_strtod_l+0xb2e>
    325c:	0a0c0163          	beqz	s8,32fe <_strtod_l+0xad0>
    3260:	4d81                	li	s11,0
    3262:	3ff00d37          	lui	s10,0x3ff00
    3266:	4701                	li	a4,0
    3268:	3ff007b7          	lui	a5,0x3ff00
    326c:	7ff006b7          	lui	a3,0x7ff00
    3270:	00d47cb3          	and	s9,s0,a3
    3274:	7fe006b7          	lui	a3,0x7fe00
    3278:	16dc9f63          	bne	s9,a3,33f6 <_strtod_l+0xbc8>
    327c:	d26a                	sw	s10,36(sp)
    327e:	fcb00d37          	lui	s10,0xfcb00
    3282:	9d22                	add	s10,s10,s0
    3284:	8526                	mv	a0,s1
    3286:	85ea                	mv	a1,s10
    3288:	de3e                	sw	a5,60(sp)
    328a:	dc3a                	sw	a4,56(sp)
    328c:	da6e                	sw	s11,52(sp)
    328e:	6c4020ef          	jal	ra,5952 <__ulp>
    3292:	58d2                	lw	a7,52(sp)
    3294:	5812                	lw	a6,36(sp)
    3296:	862a                	mv	a2,a0
    3298:	86ae                	mv	a3,a1
    329a:	8546                	mv	a0,a7
    329c:	85c2                	mv	a1,a6
    329e:	fb3fd0ef          	jal	ra,1250 <__muldf3>
    32a2:	8626                	mv	a2,s1
    32a4:	86ea                	mv	a3,s10
    32a6:	47a030ef          	jal	ra,6720 <__adddf3>
    32aa:	84aa                	mv	s1,a0
    32ac:	7ff00537          	lui	a0,0x7ff00
    32b0:	00b57633          	and	a2,a0,a1
    32b4:	7ca006b7          	lui	a3,0x7ca00
    32b8:	5762                	lw	a4,56(sp)
    32ba:	57f2                	lw	a5,60(sp)
    32bc:	0cd66563          	bltu	a2,a3,3386 <_strtod_l+0xb58>
    32c0:	4762                	lw	a4,24(sp)
    32c2:	fff50793          	addi	a5,a0,-1 # 7fefffff <_eusrstack+0x5fefafff>
    32c6:	00e79663          	bne	a5,a4,32d2 <_strtod_l+0xaa4>
    32ca:	4752                	lw	a4,20(sp)
    32cc:	57fd                	li	a5,-1
    32ce:	ace781e3          	beq	a5,a4,2d90 <_strtod_l+0x562>
    32d2:	7ff007b7          	lui	a5,0x7ff00
    32d6:	fff78413          	addi	s0,a5,-1 # 7fefffff <_eusrstack+0x5fefafff>
    32da:	54fd                	li	s1,-1
    32dc:	45c6                	lw	a1,80(sp)
    32de:	854a                	mv	a0,s2
    32e0:	030020ef          	jal	ra,5310 <_Bfree>
    32e4:	85de                	mv	a1,s7
    32e6:	854a                	mv	a0,s2
    32e8:	028020ef          	jal	ra,5310 <_Bfree>
    32ec:	85ce                	mv	a1,s3
    32ee:	854a                	mv	a0,s2
    32f0:	020020ef          	jal	ra,5310 <_Bfree>
    32f4:	85da                	mv	a1,s6
    32f6:	854a                	mv	a0,s2
    32f8:	018020ef          	jal	ra,5310 <_Bfree>
    32fc:	b195                	j	2f60 <_strtod_l+0x732>
    32fe:	e0b1                	bnez	s1,3342 <_strtod_l+0xb14>
    3300:	57b2                	lw	a5,44(sp)
    3302:	8fe1                	and	a5,a5,s0
    3304:	e7a1                	bnez	a5,334c <_strtod_l+0xb1e>
    3306:	00005797          	auipc	a5,0x5
    330a:	35278793          	addi	a5,a5,850 # 8658 <__clz_tab+0x170>
    330e:	4390                	lw	a2,0(a5)
    3310:	43d4                	lw	a3,4(a5)
    3312:	856a                	mv	a0,s10
    3314:	85ee                	mv	a1,s11
    3316:	206040ef          	jal	ra,751c <__ledf2>
    331a:	02054d63          	bltz	a0,3354 <_strtod_l+0xb26>
    331e:	00005797          	auipc	a5,0x5
    3322:	33278793          	addi	a5,a5,818 # 8650 <__clz_tab+0x168>
    3326:	4390                	lw	a2,0(a5)
    3328:	43d4                	lw	a3,4(a5)
    332a:	856a                	mv	a0,s10
    332c:	85ee                	mv	a1,s11
    332e:	f23fd0ef          	jal	ra,1250 <__muldf3>
    3332:	872a                	mv	a4,a0
    3334:	87ae                	mv	a5,a1
    3336:	80000d37          	lui	s10,0x80000
    333a:	8dba                	mv	s11,a4
    333c:	00fd4d33          	xor	s10,s10,a5
    3340:	b735                	j	326c <_strtod_l+0xa3e>
    3342:	4785                	li	a5,1
    3344:	00f49463          	bne	s1,a5,334c <_strtod_l+0xb1e>
    3348:	b4040ce3          	beqz	s0,2ea0 <_strtod_l+0x672>
    334c:	4d81                	li	s11,0
    334e:	bff00d37          	lui	s10,0xbff00
    3352:	bf11                	j	3266 <_strtod_l+0xa38>
    3354:	4701                	li	a4,0
    3356:	3fe007b7          	lui	a5,0x3fe00
    335a:	bff1                	j	3336 <_strtod_l+0xb08>
    335c:	00005797          	auipc	a5,0x5
    3360:	2f478793          	addi	a5,a5,756 # 8650 <__clz_tab+0x168>
    3364:	4390                	lw	a2,0(a5)
    3366:	43d4                	lw	a3,4(a5)
    3368:	856a                	mv	a0,s10
    336a:	85ee                	mv	a1,s11
    336c:	ee5fd0ef          	jal	ra,1250 <__muldf3>
    3370:	872a                	mv	a4,a0
    3372:	87ae                	mv	a5,a1
    3374:	8d2e                	mv	s10,a1
    3376:	000c1663          	bnez	s8,3382 <_strtod_l+0xb54>
    337a:	80000d37          	lui	s10,0x80000
    337e:	00bd4d33          	xor	s10,s10,a1
    3382:	8daa                	mv	s11,a0
    3384:	b5e5                	j	326c <_strtod_l+0xa3e>
    3386:	03500437          	lui	s0,0x3500
    338a:	942e                	add	s0,s0,a1
    338c:	f40a18e3          	bnez	s4,32dc <_strtod_l+0xaae>
    3390:	7ff006b7          	lui	a3,0x7ff00
    3394:	8ee1                	and	a3,a3,s0
    3396:	f4dc93e3          	bne	s9,a3,32dc <_strtod_l+0xaae>
    339a:	85be                	mv	a1,a5
    339c:	853a                	mv	a0,a4
    339e:	8d3a                	mv	s10,a4
    33a0:	8cbe                	mv	s9,a5
    33a2:	1ab040ef          	jal	ra,7d4c <__fixdfsi>
    33a6:	b5afe0ef          	jal	ra,1700 <__floatsidf>
    33aa:	862a                	mv	a2,a0
    33ac:	86ae                	mv	a3,a1
    33ae:	856a                	mv	a0,s10
    33b0:	85e6                	mv	a1,s9
    33b2:	220040ef          	jal	ra,75d2 <__subdf3>
    33b6:	57b2                	lw	a5,44(sp)
    33b8:	8d2a                	mv	s10,a0
    33ba:	8dae                	mv	s11,a1
    33bc:	8fe1                	and	a5,a5,s0
    33be:	8fc5                	or	a5,a5,s1
    33c0:	0187ec33          	or	s8,a5,s8
    33c4:	0a0c0b63          	beqz	s8,347a <_strtod_l+0xc4c>
    33c8:	00005797          	auipc	a5,0x5
    33cc:	2a878793          	addi	a5,a5,680 # 8670 <__clz_tab+0x188>
    33d0:	4390                	lw	a2,0(a5)
    33d2:	43d4                	lw	a3,4(a5)
    33d4:	148040ef          	jal	ra,751c <__ledf2>
    33d8:	9c0546e3          	bltz	a0,2da4 <_strtod_l+0x576>
    33dc:	00005797          	auipc	a5,0x5
    33e0:	29c78793          	addi	a5,a5,668 # 8678 <__clz_tab+0x190>
    33e4:	4390                	lw	a2,0(a5)
    33e6:	43d4                	lw	a3,4(a5)
    33e8:	856a                	mv	a0,s10
    33ea:	85ee                	mv	a1,s11
    33ec:	082040ef          	jal	ra,746e <__gedf2>
    33f0:	eea056e3          	blez	a0,32dc <_strtod_l+0xaae>
    33f4:	ba45                	j	2da4 <_strtod_l+0x576>
    33f6:	040a0d63          	beqz	s4,3450 <_strtod_l+0xc22>
    33fa:	06a006b7          	lui	a3,0x6a00
    33fe:	0596e963          	bltu	a3,s9,3450 <_strtod_l+0xc22>
    3402:	00005697          	auipc	a3,0x5
    3406:	26668693          	addi	a3,a3,614 # 8668 <__clz_tab+0x180>
    340a:	4290                	lw	a2,0(a3)
    340c:	42d4                	lw	a3,4(a3)
    340e:	853a                	mv	a0,a4
    3410:	85be                	mv	a1,a5
    3412:	da3a                	sw	a4,52(sp)
    3414:	d23e                	sw	a5,36(sp)
    3416:	106040ef          	jal	ra,751c <__ledf2>
    341a:	5792                	lw	a5,36(sp)
    341c:	5752                	lw	a4,52(sp)
    341e:	02a04463          	bgtz	a0,3446 <_strtod_l+0xc18>
    3422:	853a                	mv	a0,a4
    3424:	85be                	mv	a1,a5
    3426:	18f040ef          	jal	ra,7db4 <__fixunsdfsi>
    342a:	e111                	bnez	a0,342e <_strtod_l+0xc00>
    342c:	4505                	li	a0,1
    342e:	1e3040ef          	jal	ra,7e10 <__floatunsidf>
    3432:	872a                	mv	a4,a0
    3434:	87ae                	mv	a5,a1
    3436:	8d2e                	mv	s10,a1
    3438:	000c1663          	bnez	s8,3444 <_strtod_l+0xc16>
    343c:	80000d37          	lui	s10,0x80000
    3440:	00bd4d33          	xor	s10,s10,a1
    3444:	8daa                	mv	s11,a0
    3446:	06b005b7          	lui	a1,0x6b00
    344a:	9d2e                	add	s10,s10,a1
    344c:	419d0d33          	sub	s10,s10,s9
    3450:	4552                	lw	a0,20(sp)
    3452:	45e2                	lw	a1,24(sp)
    3454:	da3e                	sw	a5,52(sp)
    3456:	d23a                	sw	a4,36(sp)
    3458:	4fa020ef          	jal	ra,5952 <__ulp>
    345c:	862a                	mv	a2,a0
    345e:	86ae                	mv	a3,a1
    3460:	856e                	mv	a0,s11
    3462:	85ea                	mv	a1,s10
    3464:	dedfd0ef          	jal	ra,1250 <__muldf3>
    3468:	4652                	lw	a2,20(sp)
    346a:	46e2                	lw	a3,24(sp)
    346c:	2b4030ef          	jal	ra,6720 <__adddf3>
    3470:	84aa                	mv	s1,a0
    3472:	842e                	mv	s0,a1
    3474:	57d2                	lw	a5,52(sp)
    3476:	5712                	lw	a4,36(sp)
    3478:	bf11                	j	338c <_strtod_l+0xb5e>
    347a:	00005797          	auipc	a5,0x5
    347e:	20678793          	addi	a5,a5,518 # 8680 <__clz_tab+0x198>
    3482:	4390                	lw	a2,0(a5)
    3484:	43d4                	lw	a3,4(a5)
    3486:	096040ef          	jal	ra,751c <__ledf2>
    348a:	e40559e3          	bgez	a0,32dc <_strtod_l+0xaae>
    348e:	ba19                	j	2da4 <_strtod_l+0x576>
    3490:	06500713          	li	a4,101
    3494:	00e78763          	beq	a5,a4,34a2 <_strtod_l+0xc74>
    3498:	04500713          	li	a4,69
    349c:	4505                	li	a0,1
    349e:	eee79763          	bne	a5,a4,2b8c <_strtod_l+0x35e>
    34a2:	4b01                	li	s6,0
    34a4:	4505                	li	a0,1
    34a6:	d78ff06f          	j	2a1e <_strtod_l+0x1f0>

000034aa <_strtod_r>:
    34aa:	80c18793          	addi	a5,gp,-2036 # 200001fc <_impure_ptr>
    34ae:	439c                	lw	a5,0(a5)
    34b0:	5394                	lw	a3,32(a5)
    34b2:	e689                	bnez	a3,34bc <_strtod_r+0x12>
    34b4:	1fffd697          	auipc	a3,0x1fffd
    34b8:	bcc68693          	addi	a3,a3,-1076 # 20000080 <__global_locale>
    34bc:	b72ff06f          	j	282e <_strtod_l>

000034c0 <_strtol_l.isra.0>:
    34c0:	7179                	addi	sp,sp,-48
    34c2:	d04a                	sw	s2,32(sp)
    34c4:	ce4e                	sw	s3,28(sp)
    34c6:	d606                	sw	ra,44(sp)
    34c8:	d422                	sw	s0,40(sp)
    34ca:	d226                	sw	s1,36(sp)
    34cc:	89aa                	mv	s3,a0
    34ce:	892e                	mv	s2,a1
    34d0:	00190493          	addi	s1,s2,1
    34d4:	fff4c403          	lbu	s0,-1(s1)
    34d8:	853a                	mv	a0,a4
    34da:	c636                	sw	a3,12(sp)
    34dc:	c432                	sw	a2,8(sp)
    34de:	c22e                	sw	a1,4(sp)
    34e0:	c03a                	sw	a4,0(sp)
    34e2:	36d010ef          	jal	ra,504e <__locale_ctype_ptr_l>
    34e6:	9522                	add	a0,a0,s0
    34e8:	00154783          	lbu	a5,1(a0)
    34ec:	4702                	lw	a4,0(sp)
    34ee:	4592                	lw	a1,4(sp)
    34f0:	8ba1                	andi	a5,a5,8
    34f2:	4622                	lw	a2,8(sp)
    34f4:	46b2                	lw	a3,12(sp)
    34f6:	e7c9                	bnez	a5,3580 <_strtol_l.isra.0+0xc0>
    34f8:	02d00793          	li	a5,45
    34fc:	08f41463          	bne	s0,a5,3584 <_strtol_l.isra.0+0xc4>
    3500:	0004c783          	lbu	a5,0(s1)
    3504:	4305                	li	t1,1
    3506:	00290493          	addi	s1,s2,2
    350a:	c6fd                	beqz	a3,35f8 <_strtol_l.isra.0+0x138>
    350c:	4741                	li	a4,16
    350e:	02e69263          	bne	a3,a4,3532 <_strtol_l.isra.0+0x72>
    3512:	03000713          	li	a4,48
    3516:	00e79e63          	bne	a5,a4,3532 <_strtol_l.isra.0+0x72>
    351a:	0004c783          	lbu	a5,0(s1)
    351e:	05800713          	li	a4,88
    3522:	0df7f793          	andi	a5,a5,223
    3526:	0ce79463          	bne	a5,a4,35ee <_strtol_l.isra.0+0x12e>
    352a:	0014c783          	lbu	a5,1(s1)
    352e:	46c1                	li	a3,16
    3530:	0489                	addi	s1,s1,2
    3532:	800008b7          	lui	a7,0x80000
    3536:	00031463          	bnez	t1,353e <_strtol_l.isra.0+0x7e>
    353a:	fff8c893          	not	a7,a7
    353e:	02d8ff33          	remu	t5,a7,a3
    3542:	4801                	li	a6,0
    3544:	4501                	li	a0,0
    3546:	4fa5                	li	t6,9
    3548:	4ee5                	li	t4,25
    354a:	52fd                	li	t0,-1
    354c:	02d8de33          	divu	t3,a7,a3
    3550:	fd078713          	addi	a4,a5,-48
    3554:	04efe463          	bltu	t6,a4,359c <_strtol_l.isra.0+0xdc>
    3558:	87ba                	mv	a5,a4
    355a:	04d7df63          	bge	a5,a3,35b8 <_strtol_l.isra.0+0xf8>
    355e:	00580d63          	beq	a6,t0,3578 <_strtol_l.isra.0+0xb8>
    3562:	587d                	li	a6,-1
    3564:	00ae6a63          	bltu	t3,a0,3578 <_strtol_l.isra.0+0xb8>
    3568:	00ae1463          	bne	t3,a0,3570 <_strtol_l.isra.0+0xb0>
    356c:	00ff4663          	blt	t5,a5,3578 <_strtol_l.isra.0+0xb8>
    3570:	4805                	li	a6,1
    3572:	02a68533          	mul	a0,a3,a0
    3576:	953e                	add	a0,a0,a5
    3578:	0485                	addi	s1,s1,1
    357a:	fff4c783          	lbu	a5,-1(s1)
    357e:	bfc9                	j	3550 <_strtol_l.isra.0+0x90>
    3580:	8926                	mv	s2,s1
    3582:	b7b9                	j	34d0 <_strtol_l.isra.0+0x10>
    3584:	02b00793          	li	a5,43
    3588:	00f40563          	beq	s0,a5,3592 <_strtol_l.isra.0+0xd2>
    358c:	87a2                	mv	a5,s0
    358e:	4301                	li	t1,0
    3590:	bfad                	j	350a <_strtol_l.isra.0+0x4a>
    3592:	0004c783          	lbu	a5,0(s1)
    3596:	00290493          	addi	s1,s2,2
    359a:	bfd5                	j	358e <_strtol_l.isra.0+0xce>
    359c:	fbf78713          	addi	a4,a5,-65
    35a0:	00eee563          	bltu	t4,a4,35aa <_strtol_l.isra.0+0xea>
    35a4:	fc978793          	addi	a5,a5,-55
    35a8:	bf4d                	j	355a <_strtol_l.isra.0+0x9a>
    35aa:	f9f78713          	addi	a4,a5,-97
    35ae:	00eee563          	bltu	t4,a4,35b8 <_strtol_l.isra.0+0xf8>
    35b2:	fa978793          	addi	a5,a5,-87
    35b6:	b755                	j	355a <_strtol_l.isra.0+0x9a>
    35b8:	57fd                	li	a5,-1
    35ba:	00f81f63          	bne	a6,a5,35d8 <_strtol_l.isra.0+0x118>
    35be:	02200793          	li	a5,34
    35c2:	00f9a023          	sw	a5,0(s3)
    35c6:	8546                	mv	a0,a7
    35c8:	ee19                	bnez	a2,35e6 <_strtol_l.isra.0+0x126>
    35ca:	50b2                	lw	ra,44(sp)
    35cc:	5422                	lw	s0,40(sp)
    35ce:	5492                	lw	s1,36(sp)
    35d0:	5902                	lw	s2,32(sp)
    35d2:	49f2                	lw	s3,28(sp)
    35d4:	6145                	addi	sp,sp,48
    35d6:	8082                	ret
    35d8:	00030463          	beqz	t1,35e0 <_strtol_l.isra.0+0x120>
    35dc:	40a00533          	neg	a0,a0
    35e0:	d66d                	beqz	a2,35ca <_strtol_l.isra.0+0x10a>
    35e2:	00080463          	beqz	a6,35ea <_strtol_l.isra.0+0x12a>
    35e6:	fff48593          	addi	a1,s1,-1
    35ea:	c20c                	sw	a1,0(a2)
    35ec:	bff9                	j	35ca <_strtol_l.isra.0+0x10a>
    35ee:	03000793          	li	a5,48
    35f2:	f2a1                	bnez	a3,3532 <_strtol_l.isra.0+0x72>
    35f4:	46a1                	li	a3,8
    35f6:	bf35                	j	3532 <_strtol_l.isra.0+0x72>
    35f8:	03000713          	li	a4,48
    35fc:	f0e78fe3          	beq	a5,a4,351a <_strtol_l.isra.0+0x5a>
    3600:	46a9                	li	a3,10
    3602:	bf05                	j	3532 <_strtol_l.isra.0+0x72>

00003604 <_strtol_r>:
    3604:	80c18793          	addi	a5,gp,-2036 # 200001fc <_impure_ptr>
    3608:	439c                	lw	a5,0(a5)
    360a:	5398                	lw	a4,32(a5)
    360c:	e709                	bnez	a4,3616 <_strtol_r+0x12>
    360e:	1fffd717          	auipc	a4,0x1fffd
    3612:	a7270713          	addi	a4,a4,-1422 # 20000080 <__global_locale>
    3616:	b56d                	j	34c0 <_strtol_l.isra.0>

00003618 <__swbuf_r>:
    3618:	1101                	addi	sp,sp,-32
    361a:	cc22                	sw	s0,24(sp)
    361c:	ca26                	sw	s1,20(sp)
    361e:	c84a                	sw	s2,16(sp)
    3620:	ce06                	sw	ra,28(sp)
    3622:	c64e                	sw	s3,12(sp)
    3624:	84aa                	mv	s1,a0
    3626:	892e                	mv	s2,a1
    3628:	8432                	mv	s0,a2
    362a:	c509                	beqz	a0,3634 <__swbuf_r+0x1c>
    362c:	4d1c                	lw	a5,24(a0)
    362e:	e399                	bnez	a5,3634 <__swbuf_r+0x1c>
    3630:	17a010ef          	jal	ra,47aa <__sinit>
    3634:	00005797          	auipc	a5,0x5
    3638:	11c78793          	addi	a5,a5,284 # 8750 <__sf_fake_stdin>
    363c:	06f41b63          	bne	s0,a5,36b2 <__swbuf_r+0x9a>
    3640:	40c0                	lw	s0,4(s1)
    3642:	4c1c                	lw	a5,24(s0)
    3644:	c41c                	sw	a5,8(s0)
    3646:	00c45783          	lhu	a5,12(s0) # 350000c <_data_lma+0x34f7618>
    364a:	8ba1                	andi	a5,a5,8
    364c:	c3d9                	beqz	a5,36d2 <__swbuf_r+0xba>
    364e:	481c                	lw	a5,16(s0)
    3650:	c3c9                	beqz	a5,36d2 <__swbuf_r+0xba>
    3652:	481c                	lw	a5,16(s0)
    3654:	4008                	lw	a0,0(s0)
    3656:	0ff97993          	andi	s3,s2,255
    365a:	0ff97913          	andi	s2,s2,255
    365e:	8d1d                	sub	a0,a0,a5
    3660:	485c                	lw	a5,20(s0)
    3662:	00f54763          	blt	a0,a5,3670 <__swbuf_r+0x58>
    3666:	85a2                	mv	a1,s0
    3668:	8526                	mv	a0,s1
    366a:	01e010ef          	jal	ra,4688 <_fflush_r>
    366e:	e535                	bnez	a0,36da <__swbuf_r+0xc2>
    3670:	441c                	lw	a5,8(s0)
    3672:	0505                	addi	a0,a0,1
    3674:	17fd                	addi	a5,a5,-1
    3676:	c41c                	sw	a5,8(s0)
    3678:	401c                	lw	a5,0(s0)
    367a:	00178713          	addi	a4,a5,1
    367e:	c018                	sw	a4,0(s0)
    3680:	01378023          	sb	s3,0(a5)
    3684:	485c                	lw	a5,20(s0)
    3686:	00a78963          	beq	a5,a0,3698 <__swbuf_r+0x80>
    368a:	00c45783          	lhu	a5,12(s0)
    368e:	8b85                	andi	a5,a5,1
    3690:	cb89                	beqz	a5,36a2 <__swbuf_r+0x8a>
    3692:	47a9                	li	a5,10
    3694:	00f91763          	bne	s2,a5,36a2 <__swbuf_r+0x8a>
    3698:	85a2                	mv	a1,s0
    369a:	8526                	mv	a0,s1
    369c:	7ed000ef          	jal	ra,4688 <_fflush_r>
    36a0:	ed0d                	bnez	a0,36da <__swbuf_r+0xc2>
    36a2:	40f2                	lw	ra,28(sp)
    36a4:	4462                	lw	s0,24(sp)
    36a6:	854a                	mv	a0,s2
    36a8:	44d2                	lw	s1,20(sp)
    36aa:	4942                	lw	s2,16(sp)
    36ac:	49b2                	lw	s3,12(sp)
    36ae:	6105                	addi	sp,sp,32
    36b0:	8082                	ret
    36b2:	00005797          	auipc	a5,0x5
    36b6:	0be78793          	addi	a5,a5,190 # 8770 <__sf_fake_stdout>
    36ba:	00f41463          	bne	s0,a5,36c2 <__swbuf_r+0xaa>
    36be:	4480                	lw	s0,8(s1)
    36c0:	b749                	j	3642 <__swbuf_r+0x2a>
    36c2:	00005797          	auipc	a5,0x5
    36c6:	06e78793          	addi	a5,a5,110 # 8730 <__sf_fake_stderr>
    36ca:	f6f41ce3          	bne	s0,a5,3642 <__swbuf_r+0x2a>
    36ce:	44c0                	lw	s0,12(s1)
    36d0:	bf8d                	j	3642 <__swbuf_r+0x2a>
    36d2:	85a2                	mv	a1,s0
    36d4:	8526                	mv	a0,s1
    36d6:	2021                	jal	36de <__swsetup_r>
    36d8:	dd2d                	beqz	a0,3652 <__swbuf_r+0x3a>
    36da:	597d                	li	s2,-1
    36dc:	b7d9                	j	36a2 <__swbuf_r+0x8a>

000036de <__swsetup_r>:
    36de:	1141                	addi	sp,sp,-16
    36e0:	80c18793          	addi	a5,gp,-2036 # 200001fc <_impure_ptr>
    36e4:	c226                	sw	s1,4(sp)
    36e6:	4384                	lw	s1,0(a5)
    36e8:	c422                	sw	s0,8(sp)
    36ea:	c04a                	sw	s2,0(sp)
    36ec:	c606                	sw	ra,12(sp)
    36ee:	892a                	mv	s2,a0
    36f0:	842e                	mv	s0,a1
    36f2:	c491                	beqz	s1,36fe <__swsetup_r+0x20>
    36f4:	4c9c                	lw	a5,24(s1)
    36f6:	e781                	bnez	a5,36fe <__swsetup_r+0x20>
    36f8:	8526                	mv	a0,s1
    36fa:	0b0010ef          	jal	ra,47aa <__sinit>
    36fe:	00005797          	auipc	a5,0x5
    3702:	05278793          	addi	a5,a5,82 # 8750 <__sf_fake_stdin>
    3706:	02f41c63          	bne	s0,a5,373e <__swsetup_r+0x60>
    370a:	40c0                	lw	s0,4(s1)
    370c:	00c41703          	lh	a4,12(s0)
    3710:	01071793          	slli	a5,a4,0x10
    3714:	83c1                	srli	a5,a5,0x10
    3716:	0087f693          	andi	a3,a5,8
    371a:	eebd                	bnez	a3,3798 <__swsetup_r+0xba>
    371c:	0107f693          	andi	a3,a5,16
    3720:	ee9d                	bnez	a3,375e <__swsetup_r+0x80>
    3722:	47a5                	li	a5,9
    3724:	00f92023          	sw	a5,0(s2)
    3728:	04076713          	ori	a4,a4,64
    372c:	00e41623          	sh	a4,12(s0)
    3730:	557d                	li	a0,-1
    3732:	40b2                	lw	ra,12(sp)
    3734:	4422                	lw	s0,8(sp)
    3736:	4492                	lw	s1,4(sp)
    3738:	4902                	lw	s2,0(sp)
    373a:	0141                	addi	sp,sp,16
    373c:	8082                	ret
    373e:	00005797          	auipc	a5,0x5
    3742:	03278793          	addi	a5,a5,50 # 8770 <__sf_fake_stdout>
    3746:	00f41463          	bne	s0,a5,374e <__swsetup_r+0x70>
    374a:	4480                	lw	s0,8(s1)
    374c:	b7c1                	j	370c <__swsetup_r+0x2e>
    374e:	00005797          	auipc	a5,0x5
    3752:	fe278793          	addi	a5,a5,-30 # 8730 <__sf_fake_stderr>
    3756:	faf41be3          	bne	s0,a5,370c <__swsetup_r+0x2e>
    375a:	44c0                	lw	s0,12(s1)
    375c:	bf45                	j	370c <__swsetup_r+0x2e>
    375e:	8b91                	andi	a5,a5,4
    3760:	c795                	beqz	a5,378c <__swsetup_r+0xae>
    3762:	584c                	lw	a1,52(s0)
    3764:	c991                	beqz	a1,3778 <__swsetup_r+0x9a>
    3766:	04440793          	addi	a5,s0,68
    376a:	00f58563          	beq	a1,a5,3774 <__swsetup_r+0x96>
    376e:	854a                	mv	a0,s2
    3770:	4c6020ef          	jal	ra,5c36 <_free_r>
    3774:	02042a23          	sw	zero,52(s0)
    3778:	00c45783          	lhu	a5,12(s0)
    377c:	00042223          	sw	zero,4(s0)
    3780:	fdb7f793          	andi	a5,a5,-37
    3784:	00f41623          	sh	a5,12(s0)
    3788:	481c                	lw	a5,16(s0)
    378a:	c01c                	sw	a5,0(s0)
    378c:	00c45783          	lhu	a5,12(s0)
    3790:	0087e793          	ori	a5,a5,8
    3794:	00f41623          	sh	a5,12(s0)
    3798:	481c                	lw	a5,16(s0)
    379a:	ef89                	bnez	a5,37b4 <__swsetup_r+0xd6>
    379c:	00c45783          	lhu	a5,12(s0)
    37a0:	20000713          	li	a4,512
    37a4:	2807f793          	andi	a5,a5,640
    37a8:	00e78663          	beq	a5,a4,37b4 <__swsetup_r+0xd6>
    37ac:	85a2                	mv	a1,s0
    37ae:	854a                	mv	a0,s2
    37b0:	11d010ef          	jal	ra,50cc <__smakebuf_r>
    37b4:	00c45783          	lhu	a5,12(s0)
    37b8:	0017f713          	andi	a4,a5,1
    37bc:	c705                	beqz	a4,37e4 <__swsetup_r+0x106>
    37be:	485c                	lw	a5,20(s0)
    37c0:	00042423          	sw	zero,8(s0)
    37c4:	40f007b3          	neg	a5,a5
    37c8:	cc1c                	sw	a5,24(s0)
    37ca:	481c                	lw	a5,16(s0)
    37cc:	4501                	li	a0,0
    37ce:	f3b5                	bnez	a5,3732 <__swsetup_r+0x54>
    37d0:	00c41783          	lh	a5,12(s0)
    37d4:	0807f713          	andi	a4,a5,128
    37d8:	df29                	beqz	a4,3732 <__swsetup_r+0x54>
    37da:	0407e793          	ori	a5,a5,64
    37de:	00f41623          	sh	a5,12(s0)
    37e2:	b7b9                	j	3730 <__swsetup_r+0x52>
    37e4:	8b89                	andi	a5,a5,2
    37e6:	4701                	li	a4,0
    37e8:	e391                	bnez	a5,37ec <__swsetup_r+0x10e>
    37ea:	4858                	lw	a4,20(s0)
    37ec:	c418                	sw	a4,8(s0)
    37ee:	bff1                	j	37ca <__swsetup_r+0xec>

000037f0 <quorem>:
    37f0:	1101                	addi	sp,sp,-32
    37f2:	cc22                	sw	s0,24(sp)
    37f4:	491c                	lw	a5,16(a0)
    37f6:	4980                	lw	s0,16(a1)
    37f8:	ce06                	sw	ra,28(sp)
    37fa:	ca26                	sw	s1,20(sp)
    37fc:	c84a                	sw	s2,16(sp)
    37fe:	c64e                	sw	s3,12(sp)
    3800:	c452                	sw	s4,8(sp)
    3802:	c256                	sw	s5,4(sp)
    3804:	1287c163          	blt	a5,s0,3926 <quorem+0x136>
    3808:	147d                	addi	s0,s0,-1
    380a:	00241813          	slli	a6,s0,0x2
    380e:	01458993          	addi	s3,a1,20 # 6b00014 <_data_lma+0x6af7620>
    3812:	01098a33          	add	s4,s3,a6
    3816:	01450913          	addi	s2,a0,20
    381a:	984a                	add	a6,a6,s2
    381c:	000a2783          	lw	a5,0(s4)
    3820:	00082703          	lw	a4,0(a6)
    3824:	0785                	addi	a5,a5,1
    3826:	02f754b3          	divu	s1,a4,a5
    382a:	06f76663          	bltu	a4,a5,3896 <quorem+0xa6>
    382e:	68c1                	lui	a7,0x10
    3830:	834e                	mv	t1,s3
    3832:	8e4a                	mv	t3,s2
    3834:	4e81                	li	t4,0
    3836:	4f01                	li	t5,0
    3838:	18fd                	addi	a7,a7,-1
    383a:	0311                	addi	t1,t1,4
    383c:	ffc32603          	lw	a2,-4(t1)
    3840:	0e11                	addi	t3,t3,4
    3842:	01167733          	and	a4,a2,a7
    3846:	8241                	srli	a2,a2,0x10
    3848:	02970733          	mul	a4,a4,s1
    384c:	02960633          	mul	a2,a2,s1
    3850:	9776                	add	a4,a4,t4
    3852:	01075693          	srli	a3,a4,0x10
    3856:	011777b3          	and	a5,a4,a7
    385a:	40ff07b3          	sub	a5,t5,a5
    385e:	9636                	add	a2,a2,a3
    3860:	ffce2683          	lw	a3,-4(t3)
    3864:	01065e93          	srli	t4,a2,0x10
    3868:	01167633          	and	a2,a2,a7
    386c:	0116f733          	and	a4,a3,a7
    3870:	97ba                	add	a5,a5,a4
    3872:	82c1                	srli	a3,a3,0x10
    3874:	4107d713          	srai	a4,a5,0x10
    3878:	8e91                	sub	a3,a3,a2
    387a:	96ba                	add	a3,a3,a4
    387c:	4106df13          	srai	t5,a3,0x10
    3880:	0117f7b3          	and	a5,a5,a7
    3884:	06c2                	slli	a3,a3,0x10
    3886:	8fd5                	or	a5,a5,a3
    3888:	fefe2e23          	sw	a5,-4(t3)
    388c:	fa6a77e3          	bgeu	s4,t1,383a <quorem+0x4a>
    3890:	00082783          	lw	a5,0(a6)
    3894:	cbbd                	beqz	a5,390a <quorem+0x11a>
    3896:	8aaa                	mv	s5,a0
    3898:	797010ef          	jal	ra,582e <__mcmp>
    389c:	04054963          	bltz	a0,38ee <quorem+0xfe>
    38a0:	6641                	lui	a2,0x10
    38a2:	0485                	addi	s1,s1,1
    38a4:	85ca                	mv	a1,s2
    38a6:	4501                	li	a0,0
    38a8:	167d                	addi	a2,a2,-1
    38aa:	0991                	addi	s3,s3,4
    38ac:	ffc9a803          	lw	a6,-4(s3)
    38b0:	4198                	lw	a4,0(a1)
    38b2:	0591                	addi	a1,a1,4
    38b4:	00c876b3          	and	a3,a6,a2
    38b8:	8d15                	sub	a0,a0,a3
    38ba:	00c776b3          	and	a3,a4,a2
    38be:	96aa                	add	a3,a3,a0
    38c0:	01075793          	srli	a5,a4,0x10
    38c4:	01085813          	srli	a6,a6,0x10
    38c8:	4106d713          	srai	a4,a3,0x10
    38cc:	410787b3          	sub	a5,a5,a6
    38d0:	97ba                	add	a5,a5,a4
    38d2:	4107d513          	srai	a0,a5,0x10
    38d6:	8ef1                	and	a3,a3,a2
    38d8:	07c2                	slli	a5,a5,0x10
    38da:	8fd5                	or	a5,a5,a3
    38dc:	fef5ae23          	sw	a5,-4(a1)
    38e0:	fd3a75e3          	bgeu	s4,s3,38aa <quorem+0xba>
    38e4:	00241793          	slli	a5,s0,0x2
    38e8:	97ca                	add	a5,a5,s2
    38ea:	4398                	lw	a4,0(a5)
    38ec:	c71d                	beqz	a4,391a <quorem+0x12a>
    38ee:	8526                	mv	a0,s1
    38f0:	40f2                	lw	ra,28(sp)
    38f2:	4462                	lw	s0,24(sp)
    38f4:	44d2                	lw	s1,20(sp)
    38f6:	4942                	lw	s2,16(sp)
    38f8:	49b2                	lw	s3,12(sp)
    38fa:	4a22                	lw	s4,8(sp)
    38fc:	4a92                	lw	s5,4(sp)
    38fe:	6105                	addi	sp,sp,32
    3900:	8082                	ret
    3902:	00082783          	lw	a5,0(a6)
    3906:	e789                	bnez	a5,3910 <quorem+0x120>
    3908:	147d                	addi	s0,s0,-1
    390a:	1871                	addi	a6,a6,-4
    390c:	ff096be3          	bltu	s2,a6,3902 <quorem+0x112>
    3910:	c900                	sw	s0,16(a0)
    3912:	b751                	j	3896 <quorem+0xa6>
    3914:	4398                	lw	a4,0(a5)
    3916:	e709                	bnez	a4,3920 <quorem+0x130>
    3918:	147d                	addi	s0,s0,-1
    391a:	17f1                	addi	a5,a5,-4
    391c:	fef96ce3          	bltu	s2,a5,3914 <quorem+0x124>
    3920:	008aa823          	sw	s0,16(s5)
    3924:	b7e9                	j	38ee <quorem+0xfe>
    3926:	4501                	li	a0,0
    3928:	b7e1                	j	38f0 <quorem+0x100>

0000392a <_dtoa_r>:
    392a:	7175                	addi	sp,sp,-144
    392c:	d83e                	sw	a5,48(sp)
    392e:	515c                	lw	a5,36(a0)
    3930:	c522                	sw	s0,136(sp)
    3932:	c326                	sw	s1,132(sp)
    3934:	c14a                	sw	s2,128(sp)
    3936:	dece                	sw	s3,124(sp)
    3938:	dcd2                	sw	s4,120(sp)
    393a:	d4e2                	sw	s8,104(sp)
    393c:	c706                	sw	ra,140(sp)
    393e:	dad6                	sw	s5,116(sp)
    3940:	d8da                	sw	s6,112(sp)
    3942:	d6de                	sw	s7,108(sp)
    3944:	d2e6                	sw	s9,100(sp)
    3946:	d0ea                	sw	s10,96(sp)
    3948:	ceee                	sw	s11,92(sp)
    394a:	c236                	sw	a3,4(sp)
    394c:	c63a                	sw	a4,12(sp)
    394e:	ca46                	sw	a7,20(sp)
    3950:	84aa                	mv	s1,a0
    3952:	842e                	mv	s0,a1
    3954:	8932                	mv	s2,a2
    3956:	89c2                	mv	s3,a6
    3958:	8a2e                	mv	s4,a1
    395a:	8c32                	mv	s8,a2
    395c:	ef89                	bnez	a5,3976 <_dtoa_r+0x4c>
    395e:	4541                	li	a0,16
    3960:	00f010ef          	jal	ra,516e <malloc>
    3964:	d0c8                	sw	a0,36(s1)
    3966:	00052223          	sw	zero,4(a0)
    396a:	00052423          	sw	zero,8(a0)
    396e:	00052023          	sw	zero,0(a0)
    3972:	00052623          	sw	zero,12(a0)
    3976:	50dc                	lw	a5,36(s1)
    3978:	438c                	lw	a1,0(a5)
    397a:	cd89                	beqz	a1,3994 <_dtoa_r+0x6a>
    397c:	43d8                	lw	a4,4(a5)
    397e:	4785                	li	a5,1
    3980:	8526                	mv	a0,s1
    3982:	00e797b3          	sll	a5,a5,a4
    3986:	c59c                	sw	a5,8(a1)
    3988:	c1d8                	sw	a4,4(a1)
    398a:	187010ef          	jal	ra,5310 <_Bfree>
    398e:	50dc                	lw	a5,36(s1)
    3990:	0007a023          	sw	zero,0(a5)
    3994:	04095363          	bgez	s2,39da <_dtoa_r+0xb0>
    3998:	4785                	li	a5,1
    399a:	00191c13          	slli	s8,s2,0x1
    399e:	00f9a023          	sw	a5,0(s3)
    39a2:	001c5c13          	srli	s8,s8,0x1
    39a6:	7ff007b7          	lui	a5,0x7ff00
    39aa:	00fc7733          	and	a4,s8,a5
    39ae:	06f71463          	bne	a4,a5,3a16 <_dtoa_r+0xec>
    39b2:	5742                	lw	a4,48(sp)
    39b4:	6789                	lui	a5,0x2
    39b6:	0c32                	slli	s8,s8,0xc
    39b8:	70f78793          	addi	a5,a5,1807 # 270f <_puts_r+0x81>
    39bc:	00cc5c13          	srli	s8,s8,0xc
    39c0:	c31c                	sw	a5,0(a4)
    39c2:	008c6c33          	or	s8,s8,s0
    39c6:	320c05e3          	beqz	s8,44f0 <_dtoa_r+0xbc6>
    39ca:	47d2                	lw	a5,20(sp)
    39cc:	eb91                	bnez	a5,39e0 <_dtoa_r+0xb6>
    39ce:	00005797          	auipc	a5,0x5
    39d2:	d5e78793          	addi	a5,a5,-674 # 872c <tinytens+0x6c>
    39d6:	c03e                	sw	a5,0(sp)
    39d8:	a839                	j	39f6 <_dtoa_r+0xcc>
    39da:	0009a023          	sw	zero,0(s3)
    39de:	b7e1                	j	39a6 <_dtoa_r+0x7c>
    39e0:	00005797          	auipc	a5,0x5
    39e4:	d4c78793          	addi	a5,a5,-692 # 872c <tinytens+0x6c>
    39e8:	c03e                	sw	a5,0(sp)
    39ea:	00005797          	auipc	a5,0x5
    39ee:	d4578793          	addi	a5,a5,-699 # 872f <tinytens+0x6f>
    39f2:	4752                	lw	a4,20(sp)
    39f4:	c31c                	sw	a5,0(a4)
    39f6:	40ba                	lw	ra,140(sp)
    39f8:	442a                	lw	s0,136(sp)
    39fa:	4502                	lw	a0,0(sp)
    39fc:	449a                	lw	s1,132(sp)
    39fe:	490a                	lw	s2,128(sp)
    3a00:	59f6                	lw	s3,124(sp)
    3a02:	5a66                	lw	s4,120(sp)
    3a04:	5ad6                	lw	s5,116(sp)
    3a06:	5b46                	lw	s6,112(sp)
    3a08:	5bb6                	lw	s7,108(sp)
    3a0a:	5c26                	lw	s8,104(sp)
    3a0c:	5c96                	lw	s9,100(sp)
    3a0e:	5d06                	lw	s10,96(sp)
    3a10:	4df6                	lw	s11,92(sp)
    3a12:	6149                	addi	sp,sp,144
    3a14:	8082                	ret
    3a16:	4601                	li	a2,0
    3a18:	4681                	li	a3,0
    3a1a:	8522                	mv	a0,s0
    3a1c:	85e2                	mv	a1,s8
    3a1e:	ce22                	sw	s0,28(sp)
    3a20:	d462                	sw	s8,40(sp)
    3a22:	1e3030ef          	jal	ra,7404 <__eqdf2>
    3a26:	e105                	bnez	a0,3a46 <_dtoa_r+0x11c>
    3a28:	5742                	lw	a4,48(sp)
    3a2a:	4785                	li	a5,1
    3a2c:	c31c                	sw	a5,0(a4)
    3a2e:	00005797          	auipc	a5,0x5
    3a32:	bd278793          	addi	a5,a5,-1070 # 8600 <__clz_tab+0x118>
    3a36:	c03e                	sw	a5,0(sp)
    3a38:	47d2                	lw	a5,20(sp)
    3a3a:	dfd5                	beqz	a5,39f6 <_dtoa_r+0xcc>
    3a3c:	00005797          	auipc	a5,0x5
    3a40:	bc578793          	addi	a5,a5,-1083 # 8601 <__clz_tab+0x119>
    3a44:	b77d                	j	39f2 <_dtoa_r+0xc8>
    3a46:	00b8                	addi	a4,sp,72
    3a48:	00f4                	addi	a3,sp,76
    3a4a:	8662                	mv	a2,s8
    3a4c:	85a2                	mv	a1,s0
    3a4e:	8526                	mv	a0,s1
    3a50:	014c5913          	srli	s2,s8,0x14
    3a54:	7f9010ef          	jal	ra,5a4c <__d2b>
    3a58:	7ff97913          	andi	s2,s2,2047
    3a5c:	89aa                	mv	s3,a0
    3a5e:	4aa6                	lw	s5,72(sp)
    3a60:	10090d63          	beqz	s2,3b7a <_dtoa_r+0x250>
    3a64:	57a2                	lw	a5,40(sp)
    3a66:	4572                	lw	a0,28(sp)
    3a68:	c0190913          	addi	s2,s2,-1023
    3a6c:	00c79593          	slli	a1,a5,0xc
    3a70:	81b1                	srli	a1,a1,0xc
    3a72:	3ff007b7          	lui	a5,0x3ff00
    3a76:	8ddd                	or	a1,a1,a5
    3a78:	dc02                	sw	zero,56(sp)
    3a7a:	00005797          	auipc	a5,0x5
    3a7e:	c6e78793          	addi	a5,a5,-914 # 86e8 <tinytens+0x28>
    3a82:	4390                	lw	a2,0(a5)
    3a84:	43d4                	lw	a3,4(a5)
    3a86:	34d030ef          	jal	ra,75d2 <__subdf3>
    3a8a:	00005797          	auipc	a5,0x5
    3a8e:	c6678793          	addi	a5,a5,-922 # 86f0 <tinytens+0x30>
    3a92:	4390                	lw	a2,0(a5)
    3a94:	43d4                	lw	a3,4(a5)
    3a96:	fbafd0ef          	jal	ra,1250 <__muldf3>
    3a9a:	00005797          	auipc	a5,0x5
    3a9e:	c5e78793          	addi	a5,a5,-930 # 86f8 <tinytens+0x38>
    3aa2:	4390                	lw	a2,0(a5)
    3aa4:	43d4                	lw	a3,4(a5)
    3aa6:	47b020ef          	jal	ra,6720 <__adddf3>
    3aaa:	8b2a                	mv	s6,a0
    3aac:	854a                	mv	a0,s2
    3aae:	8bae                	mv	s7,a1
    3ab0:	c51fd0ef          	jal	ra,1700 <__floatsidf>
    3ab4:	00005797          	auipc	a5,0x5
    3ab8:	c4c78793          	addi	a5,a5,-948 # 8700 <tinytens+0x40>
    3abc:	4390                	lw	a2,0(a5)
    3abe:	43d4                	lw	a3,4(a5)
    3ac0:	f90fd0ef          	jal	ra,1250 <__muldf3>
    3ac4:	862a                	mv	a2,a0
    3ac6:	86ae                	mv	a3,a1
    3ac8:	855a                	mv	a0,s6
    3aca:	85de                	mv	a1,s7
    3acc:	455020ef          	jal	ra,6720 <__adddf3>
    3ad0:	8b2a                	mv	s6,a0
    3ad2:	8bae                	mv	s7,a1
    3ad4:	278040ef          	jal	ra,7d4c <__fixdfsi>
    3ad8:	842a                	mv	s0,a0
    3ada:	4601                	li	a2,0
    3adc:	4681                	li	a3,0
    3ade:	855a                	mv	a0,s6
    3ae0:	85de                	mv	a1,s7
    3ae2:	23b030ef          	jal	ra,751c <__ledf2>
    3ae6:	00055b63          	bgez	a0,3afc <_dtoa_r+0x1d2>
    3aea:	8522                	mv	a0,s0
    3aec:	c15fd0ef          	jal	ra,1700 <__floatsidf>
    3af0:	865a                	mv	a2,s6
    3af2:	86de                	mv	a3,s7
    3af4:	111030ef          	jal	ra,7404 <__eqdf2>
    3af8:	c111                	beqz	a0,3afc <_dtoa_r+0x1d2>
    3afa:	147d                	addi	s0,s0,-1
    3afc:	4705                	li	a4,1
    3afe:	47d9                	li	a5,22
    3b00:	d63a                	sw	a4,44(sp)
    3b02:	0287e363          	bltu	a5,s0,3b28 <_dtoa_r+0x1fe>
    3b06:	00341713          	slli	a4,s0,0x3
    3b0a:	00005797          	auipc	a5,0x5
    3b0e:	cbe78793          	addi	a5,a5,-834 # 87c8 <__mprec_tens>
    3b12:	97ba                	add	a5,a5,a4
    3b14:	4390                	lw	a2,0(a5)
    3b16:	43d4                	lw	a3,4(a5)
    3b18:	4572                	lw	a0,28(sp)
    3b1a:	55a2                	lw	a1,40(sp)
    3b1c:	201030ef          	jal	ra,751c <__ledf2>
    3b20:	00055363          	bgez	a0,3b26 <_dtoa_r+0x1fc>
    3b24:	147d                	addi	s0,s0,-1
    3b26:	d602                	sw	zero,44(sp)
    3b28:	412a8933          	sub	s2,s5,s2
    3b2c:	fff90b93          	addi	s7,s2,-1
    3b30:	4b01                	li	s6,0
    3b32:	000bd663          	bgez	s7,3b3e <_dtoa_r+0x214>
    3b36:	4b05                	li	s6,1
    3b38:	412b0b33          	sub	s6,s6,s2
    3b3c:	4b81                	li	s7,0
    3b3e:	06044e63          	bltz	s0,3bba <_dtoa_r+0x290>
    3b42:	9ba2                	add	s7,s7,s0
    3b44:	cc22                	sw	s0,24(sp)
    3b46:	4a81                	li	s5,0
    3b48:	4712                	lw	a4,4(sp)
    3b4a:	47a5                	li	a5,9
    3b4c:	14e7e563          	bltu	a5,a4,3c96 <_dtoa_r+0x36c>
    3b50:	4795                	li	a5,5
    3b52:	4c85                	li	s9,1
    3b54:	00e7d663          	bge	a5,a4,3b60 <_dtoa_r+0x236>
    3b58:	ffc70793          	addi	a5,a4,-4
    3b5c:	c23e                	sw	a5,4(sp)
    3b5e:	4c81                	li	s9,0
    3b60:	4712                	lw	a4,4(sp)
    3b62:	478d                	li	a5,3
    3b64:	10f70e63          	beq	a4,a5,3c80 <_dtoa_r+0x356>
    3b68:	04e7cf63          	blt	a5,a4,3bc6 <_dtoa_r+0x29c>
    3b6c:	4789                	li	a5,2
    3b6e:	c802                	sw	zero,16(sp)
    3b70:	06f70d63          	beq	a4,a5,3bea <_dtoa_r+0x2c0>
    3b74:	4785                	li	a5,1
    3b76:	c83e                	sw	a5,16(sp)
    3b78:	a08d                	j	3bda <_dtoa_r+0x2b0>
    3b7a:	4936                	lw	s2,76(sp)
    3b7c:	02000793          	li	a5,32
    3b80:	9956                	add	s2,s2,s5
    3b82:	43290713          	addi	a4,s2,1074
    3b86:	02e7d563          	bge	a5,a4,3bb0 <_dtoa_r+0x286>
    3b8a:	04000513          	li	a0,64
    3b8e:	8d19                	sub	a0,a0,a4
    3b90:	41290793          	addi	a5,s2,1042
    3b94:	00ac1533          	sll	a0,s8,a0
    3b98:	00f45433          	srl	s0,s0,a5
    3b9c:	8d41                	or	a0,a0,s0
    3b9e:	272040ef          	jal	ra,7e10 <__floatunsidf>
    3ba2:	fe1007b7          	lui	a5,0xfe100
    3ba6:	95be                	add	a1,a1,a5
    3ba8:	4785                	li	a5,1
    3baa:	197d                	addi	s2,s2,-1
    3bac:	dc3e                	sw	a5,56(sp)
    3bae:	b5f1                	j	3a7a <_dtoa_r+0x150>
    3bb0:	40e78533          	sub	a0,a5,a4
    3bb4:	00a41533          	sll	a0,s0,a0
    3bb8:	b7dd                	j	3b9e <_dtoa_r+0x274>
    3bba:	408b0b33          	sub	s6,s6,s0
    3bbe:	40800ab3          	neg	s5,s0
    3bc2:	cc02                	sw	zero,24(sp)
    3bc4:	b751                	j	3b48 <_dtoa_r+0x21e>
    3bc6:	4712                	lw	a4,4(sp)
    3bc8:	4791                	li	a5,4
    3bca:	00f70e63          	beq	a4,a5,3be6 <_dtoa_r+0x2bc>
    3bce:	4705                	li	a4,1
    3bd0:	c83a                	sw	a4,16(sp)
    3bd2:	4712                	lw	a4,4(sp)
    3bd4:	4795                	li	a5,5
    3bd6:	0af70663          	beq	a4,a5,3c82 <_dtoa_r+0x358>
    3bda:	57fd                	li	a5,-1
    3bdc:	c43e                	sw	a5,8(sp)
    3bde:	5dfd                	li	s11,-1
    3be0:	47c9                	li	a5,18
    3be2:	c602                	sw	zero,12(sp)
    3be4:	a819                	j	3bfa <_dtoa_r+0x2d0>
    3be6:	4785                	li	a5,1
    3be8:	c83e                	sw	a5,16(sp)
    3bea:	47b2                	lw	a5,12(sp)
    3bec:	0af04863          	bgtz	a5,3c9c <_dtoa_r+0x372>
    3bf0:	4785                	li	a5,1
    3bf2:	4705                	li	a4,1
    3bf4:	c43e                	sw	a5,8(sp)
    3bf6:	4d85                	li	s11,1
    3bf8:	c63a                	sw	a4,12(sp)
    3bfa:	0244a903          	lw	s2,36(s1)
    3bfe:	4711                	li	a4,4
    3c00:	00092223          	sw	zero,4(s2)
    3c04:	01470693          	addi	a3,a4,20
    3c08:	00492583          	lw	a1,4(s2)
    3c0c:	08d7fc63          	bgeu	a5,a3,3ca4 <_dtoa_r+0x37a>
    3c10:	8526                	mv	a0,s1
    3c12:	672010ef          	jal	ra,5284 <_Balloc>
    3c16:	50dc                	lw	a5,36(s1)
    3c18:	00a92023          	sw	a0,0(s2)
    3c1c:	439c                	lw	a5,0(a5)
    3c1e:	c03e                	sw	a5,0(sp)
    3c20:	47b9                	li	a5,14
    3c22:	1db7e663          	bltu	a5,s11,3dee <_dtoa_r+0x4c4>
    3c26:	1c0c8463          	beqz	s9,3dee <_dtoa_r+0x4c4>
    3c2a:	0a805e63          	blez	s0,3ce6 <_dtoa_r+0x3bc>
    3c2e:	00f47793          	andi	a5,s0,15
    3c32:	00379713          	slli	a4,a5,0x3
    3c36:	40445c93          	srai	s9,s0,0x4
    3c3a:	00005797          	auipc	a5,0x5
    3c3e:	b8e78793          	addi	a5,a5,-1138 # 87c8 <__mprec_tens>
    3c42:	97ba                	add	a5,a5,a4
    3c44:	010cf693          	andi	a3,s9,16
    3c48:	4398                	lw	a4,0(a5)
    3c4a:	4909                	li	s2,2
    3c4c:	43dc                	lw	a5,4(a5)
    3c4e:	c685                	beqz	a3,3c76 <_dtoa_r+0x34c>
    3c50:	00005697          	auipc	a3,0x5
    3c54:	b5068693          	addi	a3,a3,-1200 # 87a0 <__mprec_bigtens>
    3c58:	5290                	lw	a2,32(a3)
    3c5a:	4572                	lw	a0,28(sp)
    3c5c:	52d4                	lw	a3,36(a3)
    3c5e:	55a2                	lw	a1,40(sp)
    3c60:	d03a                	sw	a4,32(sp)
    3c62:	d23e                	sw	a5,36(sp)
    3c64:	1ec030ef          	jal	ra,6e50 <__divdf3>
    3c68:	5702                	lw	a4,32(sp)
    3c6a:	5792                	lw	a5,36(sp)
    3c6c:	00fcfc93          	andi	s9,s9,15
    3c70:	8a2a                	mv	s4,a0
    3c72:	8c2e                	mv	s8,a1
    3c74:	490d                	li	s2,3
    3c76:	00005d17          	auipc	s10,0x5
    3c7a:	b2ad0d13          	addi	s10,s10,-1238 # 87a0 <__mprec_bigtens>
    3c7e:	a889                	j	3cd0 <_dtoa_r+0x3a6>
    3c80:	c802                	sw	zero,16(sp)
    3c82:	47b2                	lw	a5,12(sp)
    3c84:	97a2                	add	a5,a5,s0
    3c86:	c43e                	sw	a5,8(sp)
    3c88:	00178d93          	addi	s11,a5,1
    3c8c:	87ee                	mv	a5,s11
    3c8e:	f7b046e3          	bgtz	s11,3bfa <_dtoa_r+0x2d0>
    3c92:	4785                	li	a5,1
    3c94:	b79d                	j	3bfa <_dtoa_r+0x2d0>
    3c96:	4c85                	li	s9,1
    3c98:	c202                	sw	zero,4(sp)
    3c9a:	bde9                	j	3b74 <_dtoa_r+0x24a>
    3c9c:	47b2                	lw	a5,12(sp)
    3c9e:	c43e                	sw	a5,8(sp)
    3ca0:	8dbe                	mv	s11,a5
    3ca2:	bfa1                	j	3bfa <_dtoa_r+0x2d0>
    3ca4:	0585                	addi	a1,a1,1
    3ca6:	00b92223          	sw	a1,4(s2)
    3caa:	0706                	slli	a4,a4,0x1
    3cac:	bfa1                	j	3c04 <_dtoa_r+0x2da>
    3cae:	001cf693          	andi	a3,s9,1
    3cb2:	ce81                	beqz	a3,3cca <_dtoa_r+0x3a0>
    3cb4:	000d2603          	lw	a2,0(s10)
    3cb8:	004d2683          	lw	a3,4(s10)
    3cbc:	853a                	mv	a0,a4
    3cbe:	85be                	mv	a1,a5
    3cc0:	d90fd0ef          	jal	ra,1250 <__muldf3>
    3cc4:	0905                	addi	s2,s2,1
    3cc6:	872a                	mv	a4,a0
    3cc8:	87ae                	mv	a5,a1
    3cca:	401cdc93          	srai	s9,s9,0x1
    3cce:	0d21                	addi	s10,s10,8
    3cd0:	fc0c9fe3          	bnez	s9,3cae <_dtoa_r+0x384>
    3cd4:	863a                	mv	a2,a4
    3cd6:	86be                	mv	a3,a5
    3cd8:	8552                	mv	a0,s4
    3cda:	85e2                	mv	a1,s8
    3cdc:	174030ef          	jal	ra,6e50 <__divdf3>
    3ce0:	8a2a                	mv	s4,a0
    3ce2:	8c2e                	mv	s8,a1
    3ce4:	a081                	j	3d24 <_dtoa_r+0x3fa>
    3ce6:	4909                	li	s2,2
    3ce8:	cc15                	beqz	s0,3d24 <_dtoa_r+0x3fa>
    3cea:	40800cb3          	neg	s9,s0
    3cee:	00fcf793          	andi	a5,s9,15
    3cf2:	00379713          	slli	a4,a5,0x3
    3cf6:	00005797          	auipc	a5,0x5
    3cfa:	ad278793          	addi	a5,a5,-1326 # 87c8 <__mprec_tens>
    3cfe:	97ba                	add	a5,a5,a4
    3d00:	4390                	lw	a2,0(a5)
    3d02:	43d4                	lw	a3,4(a5)
    3d04:	4572                	lw	a0,28(sp)
    3d06:	55a2                	lw	a1,40(sp)
    3d08:	404cdc93          	srai	s9,s9,0x4
    3d0c:	00005d17          	auipc	s10,0x5
    3d10:	a94d0d13          	addi	s10,s10,-1388 # 87a0 <__mprec_bigtens>
    3d14:	d3cfd0ef          	jal	ra,1250 <__muldf3>
    3d18:	8a2a                	mv	s4,a0
    3d1a:	8c2e                	mv	s8,a1
    3d1c:	4781                	li	a5,0
    3d1e:	120c9c63          	bnez	s9,3e56 <_dtoa_r+0x52c>
    3d22:	ffdd                	bnez	a5,3ce0 <_dtoa_r+0x3b6>
    3d24:	57b2                	lw	a5,44(sp)
    3d26:	14078763          	beqz	a5,3e74 <_dtoa_r+0x54a>
    3d2a:	00005717          	auipc	a4,0x5
    3d2e:	92e70713          	addi	a4,a4,-1746 # 8658 <__clz_tab+0x170>
    3d32:	4310                	lw	a2,0(a4)
    3d34:	4354                	lw	a3,4(a4)
    3d36:	8552                	mv	a0,s4
    3d38:	85e2                	mv	a1,s8
    3d3a:	d052                	sw	s4,32(sp)
    3d3c:	7e0030ef          	jal	ra,751c <__ledf2>
    3d40:	12055a63          	bgez	a0,3e74 <_dtoa_r+0x54a>
    3d44:	120d8b63          	beqz	s11,3e7a <_dtoa_r+0x550>
    3d48:	47a2                	lw	a5,8(sp)
    3d4a:	0af05063          	blez	a5,3dea <_dtoa_r+0x4c0>
    3d4e:	00005717          	auipc	a4,0x5
    3d52:	9ba70713          	addi	a4,a4,-1606 # 8708 <tinytens+0x48>
    3d56:	5782                	lw	a5,32(sp)
    3d58:	4310                	lw	a2,0(a4)
    3d5a:	4354                	lw	a3,4(a4)
    3d5c:	853e                	mv	a0,a5
    3d5e:	85e2                	mv	a1,s8
    3d60:	cf0fd0ef          	jal	ra,1250 <__muldf3>
    3d64:	47a2                	lw	a5,8(sp)
    3d66:	fff40d13          	addi	s10,s0,-1
    3d6a:	8a2a                	mv	s4,a0
    3d6c:	8c2e                	mv	s8,a1
    3d6e:	0905                	addi	s2,s2,1
    3d70:	8762                	mv	a4,s8
    3d72:	854a                	mv	a0,s2
    3d74:	de3e                	sw	a5,60(sp)
    3d76:	da52                	sw	s4,52(sp)
    3d78:	8cba                	mv	s9,a4
    3d7a:	d03a                	sw	a4,32(sp)
    3d7c:	985fd0ef          	jal	ra,1700 <__floatsidf>
    3d80:	5852                	lw	a6,52(sp)
    3d82:	5702                	lw	a4,32(sp)
    3d84:	fcc00937          	lui	s2,0xfcc00
    3d88:	8642                	mv	a2,a6
    3d8a:	86ba                	mv	a3,a4
    3d8c:	cc4fd0ef          	jal	ra,1250 <__muldf3>
    3d90:	00005697          	auipc	a3,0x5
    3d94:	98068693          	addi	a3,a3,-1664 # 8710 <tinytens+0x50>
    3d98:	4290                	lw	a2,0(a3)
    3d9a:	42d4                	lw	a3,4(a3)
    3d9c:	8c52                	mv	s8,s4
    3d9e:	183020ef          	jal	ra,6720 <__adddf3>
    3da2:	57f2                	lw	a5,60(sp)
    3da4:	8a2a                	mv	s4,a0
    3da6:	992e                	add	s2,s2,a1
    3da8:	efe1                	bnez	a5,3e80 <_dtoa_r+0x556>
    3daa:	00005797          	auipc	a5,0x5
    3dae:	96e78793          	addi	a5,a5,-1682 # 8718 <tinytens+0x58>
    3db2:	5852                	lw	a6,52(sp)
    3db4:	5702                	lw	a4,32(sp)
    3db6:	4390                	lw	a2,0(a5)
    3db8:	43d4                	lw	a3,4(a5)
    3dba:	8542                	mv	a0,a6
    3dbc:	85ba                	mv	a1,a4
    3dbe:	015030ef          	jal	ra,75d2 <__subdf3>
    3dc2:	8652                	mv	a2,s4
    3dc4:	86ca                	mv	a3,s2
    3dc6:	8c2a                	mv	s8,a0
    3dc8:	8cae                	mv	s9,a1
    3dca:	6a4030ef          	jal	ra,746e <__gedf2>
    3dce:	54a04a63          	bgtz	a0,4322 <_dtoa_r+0x9f8>
    3dd2:	800007b7          	lui	a5,0x80000
    3dd6:	0127c7b3          	xor	a5,a5,s2
    3dda:	8652                	mv	a2,s4
    3ddc:	86be                	mv	a3,a5
    3dde:	8562                	mv	a0,s8
    3de0:	85e6                	mv	a1,s9
    3de2:	73a030ef          	jal	ra,751c <__ledf2>
    3de6:	52054b63          	bltz	a0,431c <_dtoa_r+0x9f2>
    3dea:	4a72                	lw	s4,28(sp)
    3dec:	5c22                	lw	s8,40(sp)
    3dee:	47b6                	lw	a5,76(sp)
    3df0:	3007c763          	bltz	a5,40fe <_dtoa_r+0x7d4>
    3df4:	4739                	li	a4,14
    3df6:	30874463          	blt	a4,s0,40fe <_dtoa_r+0x7d4>
    3dfa:	00341713          	slli	a4,s0,0x3
    3dfe:	00005797          	auipc	a5,0x5
    3e02:	9ca78793          	addi	a5,a5,-1590 # 87c8 <__mprec_tens>
    3e06:	97ba                	add	a5,a5,a4
    3e08:	0007ab03          	lw	s6,0(a5)
    3e0c:	0047ab83          	lw	s7,4(a5)
    3e10:	47b2                	lw	a5,12(sp)
    3e12:	2007d263          	bgez	a5,4016 <_dtoa_r+0x6ec>
    3e16:	21b04063          	bgtz	s11,4016 <_dtoa_r+0x6ec>
    3e1a:	500d9163          	bnez	s11,431c <_dtoa_r+0x9f2>
    3e1e:	00005797          	auipc	a5,0x5
    3e22:	8fa78793          	addi	a5,a5,-1798 # 8718 <tinytens+0x58>
    3e26:	4390                	lw	a2,0(a5)
    3e28:	43d4                	lw	a3,4(a5)
    3e2a:	855a                	mv	a0,s6
    3e2c:	85de                	mv	a1,s7
    3e2e:	c22fd0ef          	jal	ra,1250 <__muldf3>
    3e32:	8652                	mv	a2,s4
    3e34:	86e2                	mv	a3,s8
    3e36:	638030ef          	jal	ra,746e <__gedf2>
    3e3a:	4a81                	li	s5,0
    3e3c:	4901                	li	s2,0
    3e3e:	4a055763          	bgez	a0,42ec <_dtoa_r+0x9c2>
    3e42:	4782                	lw	a5,0(sp)
    3e44:	4702                	lw	a4,0(sp)
    3e46:	0405                	addi	s0,s0,1
    3e48:	00178a13          	addi	s4,a5,1
    3e4c:	03100793          	li	a5,49
    3e50:	00f70023          	sb	a5,0(a4)
    3e54:	a145                	j	42f4 <_dtoa_r+0x9ca>
    3e56:	001cf713          	andi	a4,s9,1
    3e5a:	cb09                	beqz	a4,3e6c <_dtoa_r+0x542>
    3e5c:	000d2603          	lw	a2,0(s10)
    3e60:	004d2683          	lw	a3,4(s10)
    3e64:	0905                	addi	s2,s2,1
    3e66:	beafd0ef          	jal	ra,1250 <__muldf3>
    3e6a:	4785                	li	a5,1
    3e6c:	401cdc93          	srai	s9,s9,0x1
    3e70:	0d21                	addi	s10,s10,8
    3e72:	b575                	j	3d1e <_dtoa_r+0x3f4>
    3e74:	8d22                	mv	s10,s0
    3e76:	87ee                	mv	a5,s11
    3e78:	bde5                	j	3d70 <_dtoa_r+0x446>
    3e7a:	8d22                	mv	s10,s0
    3e7c:	4781                	li	a5,0
    3e7e:	bdcd                	j	3d70 <_dtoa_r+0x446>
    3e80:	fff78693          	addi	a3,a5,-1
    3e84:	00369613          	slli	a2,a3,0x3
    3e88:	00005697          	auipc	a3,0x5
    3e8c:	94068693          	addi	a3,a3,-1728 # 87c8 <__mprec_tens>
    3e90:	96b2                	add	a3,a3,a2
    3e92:	4288                	lw	a0,0(a3)
    3e94:	42cc                	lw	a1,4(a3)
    3e96:	4682                	lw	a3,0(sp)
    3e98:	97b6                	add	a5,a5,a3
    3e9a:	da3e                	sw	a5,52(sp)
    3e9c:	47c2                	lw	a5,16(sp)
    3e9e:	c3e9                	beqz	a5,3f60 <_dtoa_r+0x636>
    3ea0:	00004797          	auipc	a5,0x4
    3ea4:	7b078793          	addi	a5,a5,1968 # 8650 <__clz_tab+0x168>
    3ea8:	862a                	mv	a2,a0
    3eaa:	86ae                	mv	a3,a1
    3eac:	4388                	lw	a0,0(a5)
    3eae:	43cc                	lw	a1,4(a5)
    3eb0:	de4a                	sw	s2,60(sp)
    3eb2:	d052                	sw	s4,32(sp)
    3eb4:	79d020ef          	jal	ra,6e50 <__divdf3>
    3eb8:	5802                	lw	a6,32(sp)
    3eba:	5772                	lw	a4,60(sp)
    3ebc:	00005917          	auipc	s2,0x5
    3ec0:	84c90913          	addi	s2,s2,-1972 # 8708 <tinytens+0x48>
    3ec4:	8642                	mv	a2,a6
    3ec6:	86ba                	mv	a3,a4
    3ec8:	70a030ef          	jal	ra,75d2 <__subdf3>
    3ecc:	4a02                	lw	s4,0(sp)
    3ece:	d02a                	sw	a0,32(sp)
    3ed0:	d22e                	sw	a1,36(sp)
    3ed2:	85e6                	mv	a1,s9
    3ed4:	8562                	mv	a0,s8
    3ed6:	677030ef          	jal	ra,7d4c <__fixdfsi>
    3eda:	de2a                	sw	a0,60(sp)
    3edc:	825fd0ef          	jal	ra,1700 <__floatsidf>
    3ee0:	862a                	mv	a2,a0
    3ee2:	86ae                	mv	a3,a1
    3ee4:	8562                	mv	a0,s8
    3ee6:	85e6                	mv	a1,s9
    3ee8:	6ea030ef          	jal	ra,75d2 <__subdf3>
    3eec:	57f2                	lw	a5,60(sp)
    3eee:	8c2a                	mv	s8,a0
    3ef0:	8cae                	mv	s9,a1
    3ef2:	862a                	mv	a2,a0
    3ef4:	86ae                	mv	a3,a1
    3ef6:	5502                	lw	a0,32(sp)
    3ef8:	5592                	lw	a1,36(sp)
    3efa:	0a05                	addi	s4,s4,1
    3efc:	03078793          	addi	a5,a5,48
    3f00:	fefa0fa3          	sb	a5,-1(s4)
    3f04:	56a030ef          	jal	ra,746e <__gedf2>
    3f08:	0ea04863          	bgtz	a0,3ff8 <_dtoa_r+0x6ce>
    3f0c:	00004797          	auipc	a5,0x4
    3f10:	74c78793          	addi	a5,a5,1868 # 8658 <__clz_tab+0x170>
    3f14:	4388                	lw	a0,0(a5)
    3f16:	43cc                	lw	a1,4(a5)
    3f18:	8662                	mv	a2,s8
    3f1a:	86e6                	mv	a3,s9
    3f1c:	6b6030ef          	jal	ra,75d2 <__subdf3>
    3f20:	862a                	mv	a2,a0
    3f22:	86ae                	mv	a3,a1
    3f24:	5502                	lw	a0,32(sp)
    3f26:	5592                	lw	a1,36(sp)
    3f28:	546030ef          	jal	ra,746e <__gedf2>
    3f2c:	18a04263          	bgtz	a0,40b0 <_dtoa_r+0x786>
    3f30:	57d2                	lw	a5,52(sp)
    3f32:	eafa0ce3          	beq	s4,a5,3dea <_dtoa_r+0x4c0>
    3f36:	00092603          	lw	a2,0(s2)
    3f3a:	00492683          	lw	a3,4(s2)
    3f3e:	5502                	lw	a0,32(sp)
    3f40:	5592                	lw	a1,36(sp)
    3f42:	b0efd0ef          	jal	ra,1250 <__muldf3>
    3f46:	00092603          	lw	a2,0(s2)
    3f4a:	00492683          	lw	a3,4(s2)
    3f4e:	d02a                	sw	a0,32(sp)
    3f50:	d22e                	sw	a1,36(sp)
    3f52:	8562                	mv	a0,s8
    3f54:	85e6                	mv	a1,s9
    3f56:	afafd0ef          	jal	ra,1250 <__muldf3>
    3f5a:	8c2a                	mv	s8,a0
    3f5c:	8cae                	mv	s9,a1
    3f5e:	bf95                	j	3ed2 <_dtoa_r+0x5a8>
    3f60:	8652                	mv	a2,s4
    3f62:	86ca                	mv	a3,s2
    3f64:	aecfd0ef          	jal	ra,1250 <__muldf3>
    3f68:	5a52                	lw	s4,52(sp)
    3f6a:	4902                	lw	s2,0(sp)
    3f6c:	d02a                	sw	a0,32(sp)
    3f6e:	d22e                	sw	a1,36(sp)
    3f70:	85e6                	mv	a1,s9
    3f72:	8562                	mv	a0,s8
    3f74:	5d9030ef          	jal	ra,7d4c <__fixdfsi>
    3f78:	de2a                	sw	a0,60(sp)
    3f7a:	f86fd0ef          	jal	ra,1700 <__floatsidf>
    3f7e:	862a                	mv	a2,a0
    3f80:	86ae                	mv	a3,a1
    3f82:	8562                	mv	a0,s8
    3f84:	85e6                	mv	a1,s9
    3f86:	64c030ef          	jal	ra,75d2 <__subdf3>
    3f8a:	5772                	lw	a4,60(sp)
    3f8c:	57d2                	lw	a5,52(sp)
    3f8e:	0905                	addi	s2,s2,1
    3f90:	03070713          	addi	a4,a4,48
    3f94:	fee90fa3          	sb	a4,-1(s2)
    3f98:	8c2a                	mv	s8,a0
    3f9a:	8cae                	mv	s9,a1
    3f9c:	06f91263          	bne	s2,a5,4000 <_dtoa_r+0x6d6>
    3fa0:	00004917          	auipc	s2,0x4
    3fa4:	6b090913          	addi	s2,s2,1712 # 8650 <__clz_tab+0x168>
    3fa8:	00092603          	lw	a2,0(s2)
    3fac:	00492683          	lw	a3,4(s2)
    3fb0:	5502                	lw	a0,32(sp)
    3fb2:	5592                	lw	a1,36(sp)
    3fb4:	76c020ef          	jal	ra,6720 <__adddf3>
    3fb8:	862a                	mv	a2,a0
    3fba:	86ae                	mv	a3,a1
    3fbc:	8562                	mv	a0,s8
    3fbe:	85e6                	mv	a1,s9
    3fc0:	4ae030ef          	jal	ra,746e <__gedf2>
    3fc4:	0ea04663          	bgtz	a0,40b0 <_dtoa_r+0x786>
    3fc8:	5602                	lw	a2,32(sp)
    3fca:	5692                	lw	a3,36(sp)
    3fcc:	00092503          	lw	a0,0(s2)
    3fd0:	00492583          	lw	a1,4(s2)
    3fd4:	5fe030ef          	jal	ra,75d2 <__subdf3>
    3fd8:	862a                	mv	a2,a0
    3fda:	86ae                	mv	a3,a1
    3fdc:	8562                	mv	a0,s8
    3fde:	85e6                	mv	a1,s9
    3fe0:	53c030ef          	jal	ra,751c <__ledf2>
    3fe4:	03000793          	li	a5,48
    3fe8:	e00551e3          	bgez	a0,3dea <_dtoa_r+0x4c0>
    3fec:	fffa4703          	lbu	a4,-1(s4)
    3ff0:	fffa0693          	addi	a3,s4,-1
    3ff4:	00f70463          	beq	a4,a5,3ffc <_dtoa_r+0x6d2>
    3ff8:	846a                	mv	s0,s10
    3ffa:	a859                	j	4090 <_dtoa_r+0x766>
    3ffc:	8a36                	mv	s4,a3
    3ffe:	b7fd                	j	3fec <_dtoa_r+0x6c2>
    4000:	00004797          	auipc	a5,0x4
    4004:	70878793          	addi	a5,a5,1800 # 8708 <tinytens+0x48>
    4008:	4390                	lw	a2,0(a5)
    400a:	43d4                	lw	a3,4(a5)
    400c:	a44fd0ef          	jal	ra,1250 <__muldf3>
    4010:	8c2a                	mv	s8,a0
    4012:	8cae                	mv	s9,a1
    4014:	bfb1                	j	3f70 <_dtoa_r+0x646>
    4016:	87e2                	mv	a5,s8
    4018:	8cbe                	mv	s9,a5
    401a:	4782                	lw	a5,0(sp)
    401c:	8c52                	mv	s8,s4
    401e:	00004a97          	auipc	s5,0x4
    4022:	6eaa8a93          	addi	s5,s5,1770 # 8708 <tinytens+0x48>
    4026:	00178913          	addi	s2,a5,1
    402a:	9dbe                	add	s11,s11,a5
    402c:	865a                	mv	a2,s6
    402e:	86de                	mv	a3,s7
    4030:	8562                	mv	a0,s8
    4032:	85e6                	mv	a1,s9
    4034:	61d020ef          	jal	ra,6e50 <__divdf3>
    4038:	515030ef          	jal	ra,7d4c <__fixdfsi>
    403c:	8d2a                	mv	s10,a0
    403e:	ec2fd0ef          	jal	ra,1700 <__floatsidf>
    4042:	865a                	mv	a2,s6
    4044:	86de                	mv	a3,s7
    4046:	a0afd0ef          	jal	ra,1250 <__muldf3>
    404a:	862a                	mv	a2,a0
    404c:	86ae                	mv	a3,a1
    404e:	8562                	mv	a0,s8
    4050:	85e6                	mv	a1,s9
    4052:	580030ef          	jal	ra,75d2 <__subdf3>
    4056:	030d0793          	addi	a5,s10,48
    405a:	fef90fa3          	sb	a5,-1(s2)
    405e:	862a                	mv	a2,a0
    4060:	86ae                	mv	a3,a1
    4062:	8a4a                	mv	s4,s2
    4064:	072d9e63          	bne	s11,s2,40e0 <_dtoa_r+0x7b6>
    4068:	6b8020ef          	jal	ra,6720 <__adddf3>
    406c:	865a                	mv	a2,s6
    406e:	86de                	mv	a3,s7
    4070:	8c2a                	mv	s8,a0
    4072:	8cae                	mv	s9,a1
    4074:	3fa030ef          	jal	ra,746e <__gedf2>
    4078:	02a04b63          	bgtz	a0,40ae <_dtoa_r+0x784>
    407c:	865a                	mv	a2,s6
    407e:	86de                	mv	a3,s7
    4080:	8562                	mv	a0,s8
    4082:	85e6                	mv	a1,s9
    4084:	380030ef          	jal	ra,7404 <__eqdf2>
    4088:	e501                	bnez	a0,4090 <_dtoa_r+0x766>
    408a:	001d7793          	andi	a5,s10,1
    408e:	e385                	bnez	a5,40ae <_dtoa_r+0x784>
    4090:	85ce                	mv	a1,s3
    4092:	8526                	mv	a0,s1
    4094:	27c010ef          	jal	ra,5310 <_Bfree>
    4098:	57c2                	lw	a5,48(sp)
    409a:	000a0023          	sb	zero,0(s4)
    409e:	0405                	addi	s0,s0,1
    40a0:	c380                	sw	s0,0(a5)
    40a2:	47d2                	lw	a5,20(sp)
    40a4:	940789e3          	beqz	a5,39f6 <_dtoa_r+0xcc>
    40a8:	0147a023          	sw	s4,0(a5)
    40ac:	b2a9                	j	39f6 <_dtoa_r+0xcc>
    40ae:	8d22                	mv	s10,s0
    40b0:	03900713          	li	a4,57
    40b4:	fffa4683          	lbu	a3,-1(s4)
    40b8:	fffa0793          	addi	a5,s4,-1
    40bc:	00e69a63          	bne	a3,a4,40d0 <_dtoa_r+0x7a6>
    40c0:	4682                	lw	a3,0(sp)
    40c2:	00f69d63          	bne	a3,a5,40dc <_dtoa_r+0x7b2>
    40c6:	03000713          	li	a4,48
    40ca:	0d05                	addi	s10,s10,1
    40cc:	00e68023          	sb	a4,0(a3)
    40d0:	0007c703          	lbu	a4,0(a5)
    40d4:	0705                	addi	a4,a4,1
    40d6:	00e78023          	sb	a4,0(a5)
    40da:	bf39                	j	3ff8 <_dtoa_r+0x6ce>
    40dc:	8a3e                	mv	s4,a5
    40de:	bfd9                	j	40b4 <_dtoa_r+0x78a>
    40e0:	000aa603          	lw	a2,0(s5)
    40e4:	004aa683          	lw	a3,4(s5)
    40e8:	0905                	addi	s2,s2,1
    40ea:	966fd0ef          	jal	ra,1250 <__muldf3>
    40ee:	4601                	li	a2,0
    40f0:	4681                	li	a3,0
    40f2:	8c2a                	mv	s8,a0
    40f4:	8cae                	mv	s9,a1
    40f6:	30e030ef          	jal	ra,7404 <__eqdf2>
    40fa:	f90d                	bnez	a0,402c <_dtoa_r+0x702>
    40fc:	bf51                	j	4090 <_dtoa_r+0x766>
    40fe:	4742                	lw	a4,16(sp)
    4100:	10070063          	beqz	a4,4200 <_dtoa_r+0x8d6>
    4104:	4692                	lw	a3,4(sp)
    4106:	4705                	li	a4,1
    4108:	0cd74563          	blt	a4,a3,41d2 <_dtoa_r+0x8a8>
    410c:	5762                	lw	a4,56(sp)
    410e:	43378793          	addi	a5,a5,1075
    4112:	e709                	bnez	a4,411c <_dtoa_r+0x7f2>
    4114:	4726                	lw	a4,72(sp)
    4116:	03600793          	li	a5,54
    411a:	8f99                	sub	a5,a5,a4
    411c:	8d56                	mv	s10,s5
    411e:	8cda                	mv	s9,s6
    4120:	4585                	li	a1,1
    4122:	8526                	mv	a0,s1
    4124:	9b3e                	add	s6,s6,a5
    4126:	9bbe                	add	s7,s7,a5
    4128:	41a010ef          	jal	ra,5542 <__i2b>
    412c:	892a                	mv	s2,a0
    412e:	01905e63          	blez	s9,414a <_dtoa_r+0x820>
    4132:	01705c63          	blez	s7,414a <_dtoa_r+0x820>
    4136:	87e6                	mv	a5,s9
    4138:	019bd363          	bge	s7,s9,413e <_dtoa_r+0x814>
    413c:	87de                	mv	a5,s7
    413e:	40fb0b33          	sub	s6,s6,a5
    4142:	40fc8cb3          	sub	s9,s9,a5
    4146:	40fb8bb3          	sub	s7,s7,a5
    414a:	040a8063          	beqz	s5,418a <_dtoa_r+0x860>
    414e:	47c2                	lw	a5,16(sp)
    4150:	cfc5                	beqz	a5,4208 <_dtoa_r+0x8de>
    4152:	03a05463          	blez	s10,417a <_dtoa_r+0x850>
    4156:	85ca                	mv	a1,s2
    4158:	866a                	mv	a2,s10
    415a:	8526                	mv	a0,s1
    415c:	546010ef          	jal	ra,56a2 <__pow5mult>
    4160:	864e                	mv	a2,s3
    4162:	85aa                	mv	a1,a0
    4164:	892a                	mv	s2,a0
    4166:	8526                	mv	a0,s1
    4168:	3f6010ef          	jal	ra,555e <__multiply>
    416c:	ce2a                	sw	a0,28(sp)
    416e:	85ce                	mv	a1,s3
    4170:	8526                	mv	a0,s1
    4172:	19e010ef          	jal	ra,5310 <_Bfree>
    4176:	47f2                	lw	a5,28(sp)
    4178:	89be                	mv	s3,a5
    417a:	41aa8633          	sub	a2,s5,s10
    417e:	c611                	beqz	a2,418a <_dtoa_r+0x860>
    4180:	85ce                	mv	a1,s3
    4182:	8526                	mv	a0,s1
    4184:	51e010ef          	jal	ra,56a2 <__pow5mult>
    4188:	89aa                	mv	s3,a0
    418a:	4585                	li	a1,1
    418c:	8526                	mv	a0,s1
    418e:	3b4010ef          	jal	ra,5542 <__i2b>
    4192:	47e2                	lw	a5,24(sp)
    4194:	8aaa                	mv	s5,a0
    4196:	06f05b63          	blez	a5,420c <_dtoa_r+0x8e2>
    419a:	863e                	mv	a2,a5
    419c:	85aa                	mv	a1,a0
    419e:	8526                	mv	a0,s1
    41a0:	502010ef          	jal	ra,56a2 <__pow5mult>
    41a4:	4712                	lw	a4,4(sp)
    41a6:	4785                	li	a5,1
    41a8:	8aaa                	mv	s5,a0
    41aa:	4d01                	li	s10,0
    41ac:	06e7c863          	blt	a5,a4,421c <_dtoa_r+0x8f2>
    41b0:	4d01                	li	s10,0
    41b2:	060a1263          	bnez	s4,4216 <_dtoa_r+0x8ec>
    41b6:	00cc1793          	slli	a5,s8,0xc
    41ba:	8d52                	mv	s10,s4
    41bc:	efa9                	bnez	a5,4216 <_dtoa_r+0x8ec>
    41be:	7ff005b7          	lui	a1,0x7ff00
    41c2:	00bc7c33          	and	s8,s8,a1
    41c6:	040c0863          	beqz	s8,4216 <_dtoa_r+0x8ec>
    41ca:	0b05                	addi	s6,s6,1
    41cc:	0b85                	addi	s7,s7,1
    41ce:	4d05                	li	s10,1
    41d0:	a099                	j	4216 <_dtoa_r+0x8ec>
    41d2:	fffd8d13          	addi	s10,s11,-1
    41d6:	01aaca63          	blt	s5,s10,41ea <_dtoa_r+0x8c0>
    41da:	41aa8d33          	sub	s10,s5,s10
    41de:	000dde63          	bgez	s11,41fa <_dtoa_r+0x8d0>
    41e2:	41bb0cb3          	sub	s9,s6,s11
    41e6:	4781                	li	a5,0
    41e8:	bf25                	j	4120 <_dtoa_r+0x7f6>
    41ea:	47e2                	lw	a5,24(sp)
    41ec:	415d0ab3          	sub	s5,s10,s5
    41f0:	97d6                	add	a5,a5,s5
    41f2:	cc3e                	sw	a5,24(sp)
    41f4:	8aea                	mv	s5,s10
    41f6:	4d01                	li	s10,0
    41f8:	b7dd                	j	41de <_dtoa_r+0x8b4>
    41fa:	8cda                	mv	s9,s6
    41fc:	87ee                	mv	a5,s11
    41fe:	b70d                	j	4120 <_dtoa_r+0x7f6>
    4200:	8d56                	mv	s10,s5
    4202:	8cda                	mv	s9,s6
    4204:	4901                	li	s2,0
    4206:	b725                	j	412e <_dtoa_r+0x804>
    4208:	8656                	mv	a2,s5
    420a:	bf9d                	j	4180 <_dtoa_r+0x856>
    420c:	4712                	lw	a4,4(sp)
    420e:	4785                	li	a5,1
    4210:	4d01                	li	s10,0
    4212:	f8e7dfe3          	bge	a5,a4,41b0 <_dtoa_r+0x886>
    4216:	47e2                	lw	a5,24(sp)
    4218:	4505                	li	a0,1
    421a:	cf89                	beqz	a5,4234 <_dtoa_r+0x90a>
    421c:	010aa783          	lw	a5,16(s5)
    4220:	078d                	addi	a5,a5,3
    4222:	078a                	slli	a5,a5,0x2
    4224:	97d6                	add	a5,a5,s5
    4226:	43c8                	lw	a0,4(a5)
    4228:	26a010ef          	jal	ra,5492 <__hi0bits>
    422c:	02000793          	li	a5,32
    4230:	40a78533          	sub	a0,a5,a0
    4234:	955e                	add	a0,a0,s7
    4236:	897d                	andi	a0,a0,31
    4238:	c151                	beqz	a0,42bc <_dtoa_r+0x992>
    423a:	02000793          	li	a5,32
    423e:	8f89                	sub	a5,a5,a0
    4240:	4711                	li	a4,4
    4242:	06f75a63          	bge	a4,a5,42b6 <_dtoa_r+0x98c>
    4246:	47f1                	li	a5,28
    4248:	40a78533          	sub	a0,a5,a0
    424c:	9b2a                	add	s6,s6,a0
    424e:	9caa                	add	s9,s9,a0
    4250:	9baa                	add	s7,s7,a0
    4252:	01605863          	blez	s6,4262 <_dtoa_r+0x938>
    4256:	85ce                	mv	a1,s3
    4258:	865a                	mv	a2,s6
    425a:	8526                	mv	a0,s1
    425c:	504010ef          	jal	ra,5760 <__lshift>
    4260:	89aa                	mv	s3,a0
    4262:	01705863          	blez	s7,4272 <_dtoa_r+0x948>
    4266:	85d6                	mv	a1,s5
    4268:	865e                	mv	a2,s7
    426a:	8526                	mv	a0,s1
    426c:	4f4010ef          	jal	ra,5760 <__lshift>
    4270:	8aaa                	mv	s5,a0
    4272:	57b2                	lw	a5,44(sp)
    4274:	c7b1                	beqz	a5,42c0 <_dtoa_r+0x996>
    4276:	85d6                	mv	a1,s5
    4278:	854e                	mv	a0,s3
    427a:	5b4010ef          	jal	ra,582e <__mcmp>
    427e:	04055163          	bgez	a0,42c0 <_dtoa_r+0x996>
    4282:	85ce                	mv	a1,s3
    4284:	4681                	li	a3,0
    4286:	4629                	li	a2,10
    4288:	8526                	mv	a0,s1
    428a:	0ca010ef          	jal	ra,5354 <__multadd>
    428e:	47c2                	lw	a5,16(sp)
    4290:	147d                	addi	s0,s0,-1
    4292:	89aa                	mv	s3,a0
    4294:	26078c63          	beqz	a5,450c <_dtoa_r+0xbe2>
    4298:	85ca                	mv	a1,s2
    429a:	4681                	li	a3,0
    429c:	4629                	li	a2,10
    429e:	8526                	mv	a0,s1
    42a0:	0b4010ef          	jal	ra,5354 <__multadd>
    42a4:	47a2                	lw	a5,8(sp)
    42a6:	892a                	mv	s2,a0
    42a8:	08f04563          	bgtz	a5,4332 <_dtoa_r+0xa08>
    42ac:	4712                	lw	a4,4(sp)
    42ae:	4789                	li	a5,2
    42b0:	08e7d163          	bge	a5,a4,4332 <_dtoa_r+0xa08>
    42b4:	a829                	j	42ce <_dtoa_r+0x9a4>
    42b6:	f8e78ee3          	beq	a5,a4,4252 <_dtoa_r+0x928>
    42ba:	853e                	mv	a0,a5
    42bc:	0571                	addi	a0,a0,28
    42be:	b779                	j	424c <_dtoa_r+0x922>
    42c0:	07b04563          	bgtz	s11,432a <_dtoa_r+0xa00>
    42c4:	4712                	lw	a4,4(sp)
    42c6:	4789                	li	a5,2
    42c8:	06e7d163          	bge	a5,a4,432a <_dtoa_r+0xa00>
    42cc:	c46e                	sw	s11,8(sp)
    42ce:	47a2                	lw	a5,8(sp)
    42d0:	ef91                	bnez	a5,42ec <_dtoa_r+0x9c2>
    42d2:	85d6                	mv	a1,s5
    42d4:	4681                	li	a3,0
    42d6:	4615                	li	a2,5
    42d8:	8526                	mv	a0,s1
    42da:	07a010ef          	jal	ra,5354 <__multadd>
    42de:	8aaa                	mv	s5,a0
    42e0:	85aa                	mv	a1,a0
    42e2:	854e                	mv	a0,s3
    42e4:	54a010ef          	jal	ra,582e <__mcmp>
    42e8:	b4a04de3          	bgtz	a0,3e42 <_dtoa_r+0x518>
    42ec:	47b2                	lw	a5,12(sp)
    42ee:	4a02                	lw	s4,0(sp)
    42f0:	fff7c413          	not	s0,a5
    42f4:	4b01                	li	s6,0
    42f6:	85d6                	mv	a1,s5
    42f8:	8526                	mv	a0,s1
    42fa:	016010ef          	jal	ra,5310 <_Bfree>
    42fe:	d80909e3          	beqz	s2,4090 <_dtoa_r+0x766>
    4302:	000b0863          	beqz	s6,4312 <_dtoa_r+0x9e8>
    4306:	012b0663          	beq	s6,s2,4312 <_dtoa_r+0x9e8>
    430a:	85da                	mv	a1,s6
    430c:	8526                	mv	a0,s1
    430e:	002010ef          	jal	ra,5310 <_Bfree>
    4312:	85ca                	mv	a1,s2
    4314:	8526                	mv	a0,s1
    4316:	7fb000ef          	jal	ra,5310 <_Bfree>
    431a:	bb9d                	j	4090 <_dtoa_r+0x766>
    431c:	4a81                	li	s5,0
    431e:	4901                	li	s2,0
    4320:	b7f1                	j	42ec <_dtoa_r+0x9c2>
    4322:	846a                	mv	s0,s10
    4324:	4a81                	li	s5,0
    4326:	4901                	li	s2,0
    4328:	be29                	j	3e42 <_dtoa_r+0x518>
    432a:	47c2                	lw	a5,16(sp)
    432c:	c46e                	sw	s11,8(sp)
    432e:	1e078663          	beqz	a5,451a <_dtoa_r+0xbf0>
    4332:	01905863          	blez	s9,4342 <_dtoa_r+0xa18>
    4336:	85ca                	mv	a1,s2
    4338:	8666                	mv	a2,s9
    433a:	8526                	mv	a0,s1
    433c:	424010ef          	jal	ra,5760 <__lshift>
    4340:	892a                	mv	s2,a0
    4342:	854a                	mv	a0,s2
    4344:	020d0663          	beqz	s10,4370 <_dtoa_r+0xa46>
    4348:	00492583          	lw	a1,4(s2)
    434c:	8526                	mv	a0,s1
    434e:	737000ef          	jal	ra,5284 <_Balloc>
    4352:	01092603          	lw	a2,16(s2)
    4356:	8b2a                	mv	s6,a0
    4358:	00c90593          	addi	a1,s2,12
    435c:	0609                	addi	a2,a2,2
    435e:	060a                	slli	a2,a2,0x2
    4360:	0531                	addi	a0,a0,12
    4362:	66d000ef          	jal	ra,51ce <memcpy>
    4366:	4605                	li	a2,1
    4368:	85da                	mv	a1,s6
    436a:	8526                	mv	a0,s1
    436c:	3f4010ef          	jal	ra,5760 <__lshift>
    4370:	4782                	lw	a5,0(sp)
    4372:	4722                	lw	a4,8(sp)
    4374:	8b4a                	mv	s6,s2
    4376:	00178c13          	addi	s8,a5,1
    437a:	97ba                	add	a5,a5,a4
    437c:	c63e                	sw	a5,12(sp)
    437e:	001a7793          	andi	a5,s4,1
    4382:	892a                	mv	s2,a0
    4384:	c43e                	sw	a5,8(sp)
    4386:	85d6                	mv	a1,s5
    4388:	854e                	mv	a0,s3
    438a:	c66ff0ef          	jal	ra,37f0 <quorem>
    438e:	85da                	mv	a1,s6
    4390:	8d2a                	mv	s10,a0
    4392:	03050d93          	addi	s11,a0,48
    4396:	854e                	mv	a0,s3
    4398:	496010ef          	jal	ra,582e <__mcmp>
    439c:	864a                	mv	a2,s2
    439e:	8baa                	mv	s7,a0
    43a0:	85d6                	mv	a1,s5
    43a2:	8526                	mv	a0,s1
    43a4:	4bc010ef          	jal	ra,5860 <__mdiff>
    43a8:	4550                	lw	a2,12(a0)
    43aa:	fffc0c93          	addi	s9,s8,-1
    43ae:	8a2a                	mv	s4,a0
    43b0:	4705                	li	a4,1
    43b2:	e611                	bnez	a2,43be <_dtoa_r+0xa94>
    43b4:	85aa                	mv	a1,a0
    43b6:	854e                	mv	a0,s3
    43b8:	476010ef          	jal	ra,582e <__mcmp>
    43bc:	872a                	mv	a4,a0
    43be:	85d2                	mv	a1,s4
    43c0:	8526                	mv	a0,s1
    43c2:	c83a                	sw	a4,16(sp)
    43c4:	74d000ef          	jal	ra,5310 <_Bfree>
    43c8:	4792                	lw	a5,4(sp)
    43ca:	4742                	lw	a4,16(sp)
    43cc:	8a62                	mv	s4,s8
    43ce:	00e7e6b3          	or	a3,a5,a4
    43d2:	47a2                	lw	a5,8(sp)
    43d4:	8edd                	or	a3,a3,a5
    43d6:	ee81                	bnez	a3,43ee <_dtoa_r+0xac4>
    43d8:	03900713          	li	a4,57
    43dc:	04ed8863          	beq	s11,a4,442c <_dtoa_r+0xb02>
    43e0:	01705463          	blez	s7,43e8 <_dtoa_r+0xabe>
    43e4:	031d0d93          	addi	s11,s10,49
    43e8:	01bc8023          	sb	s11,0(s9)
    43ec:	b729                	j	42f6 <_dtoa_r+0x9cc>
    43ee:	000bca63          	bltz	s7,4402 <_dtoa_r+0xad8>
    43f2:	4792                	lw	a5,4(sp)
    43f4:	0177ebb3          	or	s7,a5,s7
    43f8:	47a2                	lw	a5,8(sp)
    43fa:	00fbebb3          	or	s7,s7,a5
    43fe:	040b9563          	bnez	s7,4448 <_dtoa_r+0xb1e>
    4402:	fee053e3          	blez	a4,43e8 <_dtoa_r+0xabe>
    4406:	85ce                	mv	a1,s3
    4408:	4605                	li	a2,1
    440a:	8526                	mv	a0,s1
    440c:	354010ef          	jal	ra,5760 <__lshift>
    4410:	85d6                	mv	a1,s5
    4412:	89aa                	mv	s3,a0
    4414:	41a010ef          	jal	ra,582e <__mcmp>
    4418:	00a04663          	bgtz	a0,4424 <_dtoa_r+0xafa>
    441c:	f571                	bnez	a0,43e8 <_dtoa_r+0xabe>
    441e:	001df713          	andi	a4,s11,1
    4422:	d379                	beqz	a4,43e8 <_dtoa_r+0xabe>
    4424:	03900713          	li	a4,57
    4428:	faed9ee3          	bne	s11,a4,43e4 <_dtoa_r+0xaba>
    442c:	03900793          	li	a5,57
    4430:	00fc8023          	sb	a5,0(s9)
    4434:	03900693          	li	a3,57
    4438:	fffa4783          	lbu	a5,-1(s4)
    443c:	fffa0713          	addi	a4,s4,-1
    4440:	08d78c63          	beq	a5,a3,44d8 <_dtoa_r+0xbae>
    4444:	0785                	addi	a5,a5,1
    4446:	a045                	j	44e6 <_dtoa_r+0xbbc>
    4448:	00e05b63          	blez	a4,445e <_dtoa_r+0xb34>
    444c:	03900713          	li	a4,57
    4450:	fced8ee3          	beq	s11,a4,442c <_dtoa_r+0xb02>
    4454:	001d8793          	addi	a5,s11,1
    4458:	00fc8023          	sb	a5,0(s9)
    445c:	bd69                	j	42f6 <_dtoa_r+0x9cc>
    445e:	47b2                	lw	a5,12(sp)
    4460:	ffbc0fa3          	sb	s11,-1(s8)
    4464:	05878163          	beq	a5,s8,44a6 <_dtoa_r+0xb7c>
    4468:	85ce                	mv	a1,s3
    446a:	4681                	li	a3,0
    446c:	4629                	li	a2,10
    446e:	8526                	mv	a0,s1
    4470:	6e5000ef          	jal	ra,5354 <__multadd>
    4474:	89aa                	mv	s3,a0
    4476:	4681                	li	a3,0
    4478:	4629                	li	a2,10
    447a:	85da                	mv	a1,s6
    447c:	8526                	mv	a0,s1
    447e:	012b1863          	bne	s6,s2,448e <_dtoa_r+0xb64>
    4482:	6d3000ef          	jal	ra,5354 <__multadd>
    4486:	8b2a                	mv	s6,a0
    4488:	892a                	mv	s2,a0
    448a:	0c05                	addi	s8,s8,1
    448c:	bded                	j	4386 <_dtoa_r+0xa5c>
    448e:	6c7000ef          	jal	ra,5354 <__multadd>
    4492:	85ca                	mv	a1,s2
    4494:	8b2a                	mv	s6,a0
    4496:	4681                	li	a3,0
    4498:	4629                	li	a2,10
    449a:	8526                	mv	a0,s1
    449c:	6b9000ef          	jal	ra,5354 <__multadd>
    44a0:	892a                	mv	s2,a0
    44a2:	b7e5                	j	448a <_dtoa_r+0xb60>
    44a4:	4b01                	li	s6,0
    44a6:	85ce                	mv	a1,s3
    44a8:	4605                	li	a2,1
    44aa:	8526                	mv	a0,s1
    44ac:	2b4010ef          	jal	ra,5760 <__lshift>
    44b0:	85d6                	mv	a1,s5
    44b2:	89aa                	mv	s3,a0
    44b4:	37a010ef          	jal	ra,582e <__mcmp>
    44b8:	f6a04ee3          	bgtz	a0,4434 <_dtoa_r+0xb0a>
    44bc:	e501                	bnez	a0,44c4 <_dtoa_r+0xb9a>
    44be:	001df793          	andi	a5,s11,1
    44c2:	fbad                	bnez	a5,4434 <_dtoa_r+0xb0a>
    44c4:	03000793          	li	a5,48
    44c8:	fffa4703          	lbu	a4,-1(s4)
    44cc:	fffa0693          	addi	a3,s4,-1
    44d0:	e2f713e3          	bne	a4,a5,42f6 <_dtoa_r+0x9cc>
    44d4:	8a36                	mv	s4,a3
    44d6:	bfcd                	j	44c8 <_dtoa_r+0xb9e>
    44d8:	4782                	lw	a5,0(sp)
    44da:	00e79963          	bne	a5,a4,44ec <_dtoa_r+0xbc2>
    44de:	4702                	lw	a4,0(sp)
    44e0:	0405                	addi	s0,s0,1
    44e2:	03100793          	li	a5,49
    44e6:	00f70023          	sb	a5,0(a4)
    44ea:	b531                	j	42f6 <_dtoa_r+0x9cc>
    44ec:	8a3a                	mv	s4,a4
    44ee:	b7a9                	j	4438 <_dtoa_r+0xb0e>
    44f0:	4752                	lw	a4,20(sp)
    44f2:	00004797          	auipc	a5,0x4
    44f6:	22e78793          	addi	a5,a5,558 # 8720 <tinytens+0x60>
    44fa:	c03e                	sw	a5,0(sp)
    44fc:	00004797          	auipc	a5,0x4
    4500:	22c78793          	addi	a5,a5,556 # 8728 <tinytens+0x68>
    4504:	ce071763          	bnez	a4,39f2 <_dtoa_r+0xc8>
    4508:	ceeff06f          	j	39f6 <_dtoa_r+0xcc>
    450c:	47a2                	lw	a5,8(sp)
    450e:	00f04663          	bgtz	a5,451a <_dtoa_r+0xbf0>
    4512:	4712                	lw	a4,4(sp)
    4514:	4789                	li	a5,2
    4516:	dae7cce3          	blt	a5,a4,42ce <_dtoa_r+0x9a4>
    451a:	4a02                	lw	s4,0(sp)
    451c:	85d6                	mv	a1,s5
    451e:	854e                	mv	a0,s3
    4520:	ad0ff0ef          	jal	ra,37f0 <quorem>
    4524:	4782                	lw	a5,0(sp)
    4526:	0a05                	addi	s4,s4,1
    4528:	03050d93          	addi	s11,a0,48
    452c:	40fa0733          	sub	a4,s4,a5
    4530:	47a2                	lw	a5,8(sp)
    4532:	ffba0fa3          	sb	s11,-1(s4)
    4536:	f6f757e3          	bge	a4,a5,44a4 <_dtoa_r+0xb7a>
    453a:	85ce                	mv	a1,s3
    453c:	4681                	li	a3,0
    453e:	4629                	li	a2,10
    4540:	8526                	mv	a0,s1
    4542:	613000ef          	jal	ra,5354 <__multadd>
    4546:	89aa                	mv	s3,a0
    4548:	bfd1                	j	451c <_dtoa_r+0xbf2>

0000454a <__sflush_r>:
    454a:	00c5d783          	lhu	a5,12(a1) # 7ff0000c <_eusrstack+0x5fefb00c>
    454e:	1101                	addi	sp,sp,-32
    4550:	cc22                	sw	s0,24(sp)
    4552:	ca26                	sw	s1,20(sp)
    4554:	ce06                	sw	ra,28(sp)
    4556:	c84a                	sw	s2,16(sp)
    4558:	c64e                	sw	s3,12(sp)
    455a:	0087f713          	andi	a4,a5,8
    455e:	84aa                	mv	s1,a0
    4560:	842e                	mv	s0,a1
    4562:	ef79                	bnez	a4,4640 <__sflush_r+0xf6>
    4564:	41d8                	lw	a4,4(a1)
    4566:	00e04d63          	bgtz	a4,4580 <__sflush_r+0x36>
    456a:	41b8                	lw	a4,64(a1)
    456c:	00e04a63          	bgtz	a4,4580 <__sflush_r+0x36>
    4570:	4501                	li	a0,0
    4572:	40f2                	lw	ra,28(sp)
    4574:	4462                	lw	s0,24(sp)
    4576:	44d2                	lw	s1,20(sp)
    4578:	4942                	lw	s2,16(sp)
    457a:	49b2                	lw	s3,12(sp)
    457c:	6105                	addi	sp,sp,32
    457e:	8082                	ret
    4580:	5458                	lw	a4,44(s0)
    4582:	d77d                	beqz	a4,4570 <__sflush_r+0x26>
    4584:	0004a903          	lw	s2,0(s1)
    4588:	01379693          	slli	a3,a5,0x13
    458c:	0004a023          	sw	zero,0(s1)
    4590:	0606de63          	bgez	a3,460c <__sflush_r+0xc2>
    4594:	4870                	lw	a2,84(s0)
    4596:	00c45783          	lhu	a5,12(s0)
    459a:	8b91                	andi	a5,a5,4
    459c:	c799                	beqz	a5,45aa <__sflush_r+0x60>
    459e:	405c                	lw	a5,4(s0)
    45a0:	8e1d                	sub	a2,a2,a5
    45a2:	585c                	lw	a5,52(s0)
    45a4:	c399                	beqz	a5,45aa <__sflush_r+0x60>
    45a6:	403c                	lw	a5,64(s0)
    45a8:	8e1d                	sub	a2,a2,a5
    45aa:	545c                	lw	a5,44(s0)
    45ac:	500c                	lw	a1,32(s0)
    45ae:	4681                	li	a3,0
    45b0:	8526                	mv	a0,s1
    45b2:	9782                	jalr	a5
    45b4:	57fd                	li	a5,-1
    45b6:	00c45703          	lhu	a4,12(s0)
    45ba:	00f51d63          	bne	a0,a5,45d4 <__sflush_r+0x8a>
    45be:	4094                	lw	a3,0(s1)
    45c0:	47f5                	li	a5,29
    45c2:	06d7e963          	bltu	a5,a3,4634 <__sflush_r+0xea>
    45c6:	204007b7          	lui	a5,0x20400
    45ca:	0785                	addi	a5,a5,1
    45cc:	00d7d7b3          	srl	a5,a5,a3
    45d0:	8b85                	andi	a5,a5,1
    45d2:	c3ad                	beqz	a5,4634 <__sflush_r+0xea>
    45d4:	481c                	lw	a5,16(s0)
    45d6:	00042223          	sw	zero,4(s0)
    45da:	c01c                	sw	a5,0(s0)
    45dc:	01371793          	slli	a5,a4,0x13
    45e0:	0007d863          	bgez	a5,45f0 <__sflush_r+0xa6>
    45e4:	57fd                	li	a5,-1
    45e6:	00f51463          	bne	a0,a5,45ee <__sflush_r+0xa4>
    45ea:	409c                	lw	a5,0(s1)
    45ec:	e391                	bnez	a5,45f0 <__sflush_r+0xa6>
    45ee:	c868                	sw	a0,84(s0)
    45f0:	584c                	lw	a1,52(s0)
    45f2:	0124a023          	sw	s2,0(s1)
    45f6:	ddad                	beqz	a1,4570 <__sflush_r+0x26>
    45f8:	04440793          	addi	a5,s0,68
    45fc:	00f58563          	beq	a1,a5,4606 <__sflush_r+0xbc>
    4600:	8526                	mv	a0,s1
    4602:	634010ef          	jal	ra,5c36 <_free_r>
    4606:	02042a23          	sw	zero,52(s0)
    460a:	b79d                	j	4570 <__sflush_r+0x26>
    460c:	500c                	lw	a1,32(s0)
    460e:	4601                	li	a2,0
    4610:	4685                	li	a3,1
    4612:	8526                	mv	a0,s1
    4614:	9702                	jalr	a4
    4616:	57fd                	li	a5,-1
    4618:	862a                	mv	a2,a0
    461a:	f6f51ee3          	bne	a0,a5,4596 <__sflush_r+0x4c>
    461e:	409c                	lw	a5,0(s1)
    4620:	dbbd                	beqz	a5,4596 <__sflush_r+0x4c>
    4622:	4775                	li	a4,29
    4624:	00e78563          	beq	a5,a4,462e <__sflush_r+0xe4>
    4628:	4759                	li	a4,22
    462a:	04e79463          	bne	a5,a4,4672 <__sflush_r+0x128>
    462e:	0124a023          	sw	s2,0(s1)
    4632:	bf3d                	j	4570 <__sflush_r+0x26>
    4634:	04076713          	ori	a4,a4,64
    4638:	00e41623          	sh	a4,12(s0)
    463c:	557d                	li	a0,-1
    463e:	bf15                	j	4572 <__sflush_r+0x28>
    4640:	0105a983          	lw	s3,16(a1)
    4644:	f20986e3          	beqz	s3,4570 <__sflush_r+0x26>
    4648:	0005a903          	lw	s2,0(a1)
    464c:	8b8d                	andi	a5,a5,3
    464e:	0135a023          	sw	s3,0(a1)
    4652:	41390933          	sub	s2,s2,s3
    4656:	4701                	li	a4,0
    4658:	e391                	bnez	a5,465c <__sflush_r+0x112>
    465a:	49d8                	lw	a4,20(a1)
    465c:	c418                	sw	a4,8(s0)
    465e:	f12059e3          	blez	s2,4570 <__sflush_r+0x26>
    4662:	541c                	lw	a5,40(s0)
    4664:	500c                	lw	a1,32(s0)
    4666:	86ca                	mv	a3,s2
    4668:	864e                	mv	a2,s3
    466a:	8526                	mv	a0,s1
    466c:	9782                	jalr	a5
    466e:	00a04963          	bgtz	a0,4680 <__sflush_r+0x136>
    4672:	00c45783          	lhu	a5,12(s0)
    4676:	0407e793          	ori	a5,a5,64
    467a:	00f41623          	sh	a5,12(s0)
    467e:	bf7d                	j	463c <__sflush_r+0xf2>
    4680:	99aa                	add	s3,s3,a0
    4682:	40a90933          	sub	s2,s2,a0
    4686:	bfe1                	j	465e <__sflush_r+0x114>

00004688 <_fflush_r>:
    4688:	499c                	lw	a5,16(a1)
    468a:	c3a5                	beqz	a5,46ea <_fflush_r+0x62>
    468c:	1101                	addi	sp,sp,-32
    468e:	cc22                	sw	s0,24(sp)
    4690:	ce06                	sw	ra,28(sp)
    4692:	842a                	mv	s0,a0
    4694:	c511                	beqz	a0,46a0 <_fflush_r+0x18>
    4696:	4d1c                	lw	a5,24(a0)
    4698:	e781                	bnez	a5,46a0 <_fflush_r+0x18>
    469a:	c62e                	sw	a1,12(sp)
    469c:	2239                	jal	47aa <__sinit>
    469e:	45b2                	lw	a1,12(sp)
    46a0:	00004797          	auipc	a5,0x4
    46a4:	0b078793          	addi	a5,a5,176 # 8750 <__sf_fake_stdin>
    46a8:	00f59c63          	bne	a1,a5,46c0 <_fflush_r+0x38>
    46ac:	404c                	lw	a1,4(s0)
    46ae:	00c59783          	lh	a5,12(a1)
    46b2:	c79d                	beqz	a5,46e0 <_fflush_r+0x58>
    46b4:	8522                	mv	a0,s0
    46b6:	4462                	lw	s0,24(sp)
    46b8:	40f2                	lw	ra,28(sp)
    46ba:	6105                	addi	sp,sp,32
    46bc:	e8fff06f          	j	454a <__sflush_r>
    46c0:	00004797          	auipc	a5,0x4
    46c4:	0b078793          	addi	a5,a5,176 # 8770 <__sf_fake_stdout>
    46c8:	00f59463          	bne	a1,a5,46d0 <_fflush_r+0x48>
    46cc:	440c                	lw	a1,8(s0)
    46ce:	b7c5                	j	46ae <_fflush_r+0x26>
    46d0:	00004797          	auipc	a5,0x4
    46d4:	06078793          	addi	a5,a5,96 # 8730 <__sf_fake_stderr>
    46d8:	fcf59be3          	bne	a1,a5,46ae <_fflush_r+0x26>
    46dc:	444c                	lw	a1,12(s0)
    46de:	bfc1                	j	46ae <_fflush_r+0x26>
    46e0:	40f2                	lw	ra,28(sp)
    46e2:	4462                	lw	s0,24(sp)
    46e4:	4501                	li	a0,0
    46e6:	6105                	addi	sp,sp,32
    46e8:	8082                	ret
    46ea:	4501                	li	a0,0
    46ec:	8082                	ret

000046ee <std>:
    46ee:	1141                	addi	sp,sp,-16
    46f0:	c422                	sw	s0,8(sp)
    46f2:	c606                	sw	ra,12(sp)
    46f4:	842a                	mv	s0,a0
    46f6:	00b51623          	sh	a1,12(a0)
    46fa:	00c51723          	sh	a2,14(a0)
    46fe:	00052023          	sw	zero,0(a0)
    4702:	00052223          	sw	zero,4(a0)
    4706:	00052423          	sw	zero,8(a0)
    470a:	06052223          	sw	zero,100(a0)
    470e:	00052823          	sw	zero,16(a0)
    4712:	00052a23          	sw	zero,20(a0)
    4716:	00052c23          	sw	zero,24(a0)
    471a:	4621                	li	a2,8
    471c:	4581                	li	a1,0
    471e:	05c50513          	addi	a0,a0,92
    4722:	a7ffb0ef          	jal	ra,1a0 <memset>
    4726:	00002797          	auipc	a5,0x2
    472a:	d3078793          	addi	a5,a5,-720 # 6456 <__sread>
    472e:	d05c                	sw	a5,36(s0)
    4730:	00002797          	auipc	a5,0x2
    4734:	d5678793          	addi	a5,a5,-682 # 6486 <__swrite>
    4738:	d41c                	sw	a5,40(s0)
    473a:	00002797          	auipc	a5,0x2
    473e:	d9a78793          	addi	a5,a5,-614 # 64d4 <__sseek>
    4742:	d45c                	sw	a5,44(s0)
    4744:	00002797          	auipc	a5,0x2
    4748:	dc678793          	addi	a5,a5,-570 # 650a <__sclose>
    474c:	d000                	sw	s0,32(s0)
    474e:	d81c                	sw	a5,48(s0)
    4750:	40b2                	lw	ra,12(sp)
    4752:	4422                	lw	s0,8(sp)
    4754:	0141                	addi	sp,sp,16
    4756:	8082                	ret

00004758 <_cleanup_r>:
    4758:	00000597          	auipc	a1,0x0
    475c:	f3058593          	addi	a1,a1,-208 # 4688 <_fflush_r>
    4760:	a2b9                	j	48ae <_fwalk_reent>

00004762 <__sfmoreglue>:
    4762:	1141                	addi	sp,sp,-16
    4764:	c226                	sw	s1,4(sp)
    4766:	06800613          	li	a2,104
    476a:	fff58493          	addi	s1,a1,-1
    476e:	02c484b3          	mul	s1,s1,a2
    4772:	c04a                	sw	s2,0(sp)
    4774:	892e                	mv	s2,a1
    4776:	c422                	sw	s0,8(sp)
    4778:	c606                	sw	ra,12(sp)
    477a:	07448593          	addi	a1,s1,116
    477e:	560010ef          	jal	ra,5cde <_malloc_r>
    4782:	842a                	mv	s0,a0
    4784:	cd01                	beqz	a0,479c <__sfmoreglue+0x3a>
    4786:	00052023          	sw	zero,0(a0)
    478a:	01252223          	sw	s2,4(a0)
    478e:	0531                	addi	a0,a0,12
    4790:	c408                	sw	a0,8(s0)
    4792:	06848613          	addi	a2,s1,104
    4796:	4581                	li	a1,0
    4798:	a09fb0ef          	jal	ra,1a0 <memset>
    479c:	8522                	mv	a0,s0
    479e:	40b2                	lw	ra,12(sp)
    47a0:	4422                	lw	s0,8(sp)
    47a2:	4492                	lw	s1,4(sp)
    47a4:	4902                	lw	s2,0(sp)
    47a6:	0141                	addi	sp,sp,16
    47a8:	8082                	ret

000047aa <__sinit>:
    47aa:	4d1c                	lw	a5,24(a0)
    47ac:	e3ad                	bnez	a5,480e <__sinit+0x64>
    47ae:	1141                	addi	sp,sp,-16
    47b0:	c606                	sw	ra,12(sp)
    47b2:	c422                	sw	s0,8(sp)
    47b4:	00000797          	auipc	a5,0x0
    47b8:	fa478793          	addi	a5,a5,-92 # 4758 <_cleanup_r>
    47bc:	d51c                	sw	a5,40(a0)
    47be:	81018793          	addi	a5,gp,-2032 # 20000200 <_global_impure_ptr>
    47c2:	439c                	lw	a5,0(a5)
    47c4:	04052423          	sw	zero,72(a0)
    47c8:	04052623          	sw	zero,76(a0)
    47cc:	04052823          	sw	zero,80(a0)
    47d0:	00f51463          	bne	a0,a5,47d8 <__sinit+0x2e>
    47d4:	4785                	li	a5,1
    47d6:	cd1c                	sw	a5,24(a0)
    47d8:	842a                	mv	s0,a0
    47da:	281d                	jal	4810 <__sfp>
    47dc:	c048                	sw	a0,4(s0)
    47de:	8522                	mv	a0,s0
    47e0:	2805                	jal	4810 <__sfp>
    47e2:	c408                	sw	a0,8(s0)
    47e4:	8522                	mv	a0,s0
    47e6:	202d                	jal	4810 <__sfp>
    47e8:	c448                	sw	a0,12(s0)
    47ea:	4048                	lw	a0,4(s0)
    47ec:	4601                	li	a2,0
    47ee:	4591                	li	a1,4
    47f0:	3dfd                	jal	46ee <std>
    47f2:	4408                	lw	a0,8(s0)
    47f4:	4605                	li	a2,1
    47f6:	45a5                	li	a1,9
    47f8:	3ddd                	jal	46ee <std>
    47fa:	4448                	lw	a0,12(s0)
    47fc:	4609                	li	a2,2
    47fe:	45c9                	li	a1,18
    4800:	35fd                	jal	46ee <std>
    4802:	4785                	li	a5,1
    4804:	cc1c                	sw	a5,24(s0)
    4806:	40b2                	lw	ra,12(sp)
    4808:	4422                	lw	s0,8(sp)
    480a:	0141                	addi	sp,sp,16
    480c:	8082                	ret
    480e:	8082                	ret

00004810 <__sfp>:
    4810:	1141                	addi	sp,sp,-16
    4812:	81018793          	addi	a5,gp,-2032 # 20000200 <_global_impure_ptr>
    4816:	c226                	sw	s1,4(sp)
    4818:	4384                	lw	s1,0(a5)
    481a:	c04a                	sw	s2,0(sp)
    481c:	c606                	sw	ra,12(sp)
    481e:	4c9c                	lw	a5,24(s1)
    4820:	c422                	sw	s0,8(sp)
    4822:	892a                	mv	s2,a0
    4824:	e399                	bnez	a5,482a <__sfp+0x1a>
    4826:	8526                	mv	a0,s1
    4828:	3749                	jal	47aa <__sinit>
    482a:	04848493          	addi	s1,s1,72
    482e:	4480                	lw	s0,8(s1)
    4830:	40dc                	lw	a5,4(s1)
    4832:	17fd                	addi	a5,a5,-1
    4834:	0007d663          	bgez	a5,4840 <__sfp+0x30>
    4838:	409c                	lw	a5,0(s1)
    483a:	cfb9                	beqz	a5,4898 <__sfp+0x88>
    483c:	4084                	lw	s1,0(s1)
    483e:	bfc5                	j	482e <__sfp+0x1e>
    4840:	00c41703          	lh	a4,12(s0)
    4844:	e739                	bnez	a4,4892 <__sfp+0x82>
    4846:	77c1                	lui	a5,0xffff0
    4848:	0785                	addi	a5,a5,1
    484a:	06042223          	sw	zero,100(s0)
    484e:	00042023          	sw	zero,0(s0)
    4852:	00042223          	sw	zero,4(s0)
    4856:	00042423          	sw	zero,8(s0)
    485a:	c45c                	sw	a5,12(s0)
    485c:	00042823          	sw	zero,16(s0)
    4860:	00042a23          	sw	zero,20(s0)
    4864:	00042c23          	sw	zero,24(s0)
    4868:	4621                	li	a2,8
    486a:	4581                	li	a1,0
    486c:	05c40513          	addi	a0,s0,92
    4870:	931fb0ef          	jal	ra,1a0 <memset>
    4874:	02042a23          	sw	zero,52(s0)
    4878:	02042c23          	sw	zero,56(s0)
    487c:	04042423          	sw	zero,72(s0)
    4880:	04042623          	sw	zero,76(s0)
    4884:	8522                	mv	a0,s0
    4886:	40b2                	lw	ra,12(sp)
    4888:	4422                	lw	s0,8(sp)
    488a:	4492                	lw	s1,4(sp)
    488c:	4902                	lw	s2,0(sp)
    488e:	0141                	addi	sp,sp,16
    4890:	8082                	ret
    4892:	06840413          	addi	s0,s0,104
    4896:	bf71                	j	4832 <__sfp+0x22>
    4898:	4591                	li	a1,4
    489a:	854a                	mv	a0,s2
    489c:	ec7ff0ef          	jal	ra,4762 <__sfmoreglue>
    48a0:	c088                	sw	a0,0(s1)
    48a2:	fd49                	bnez	a0,483c <__sfp+0x2c>
    48a4:	47b1                	li	a5,12
    48a6:	00f92023          	sw	a5,0(s2)
    48aa:	4401                	li	s0,0
    48ac:	bfe1                	j	4884 <__sfp+0x74>

000048ae <_fwalk_reent>:
    48ae:	7179                	addi	sp,sp,-48
    48b0:	d422                	sw	s0,40(sp)
    48b2:	d04a                	sw	s2,32(sp)
    48b4:	cc52                	sw	s4,24(sp)
    48b6:	ca56                	sw	s5,20(sp)
    48b8:	c85a                	sw	s6,16(sp)
    48ba:	c65e                	sw	s7,12(sp)
    48bc:	d606                	sw	ra,44(sp)
    48be:	d226                	sw	s1,36(sp)
    48c0:	ce4e                	sw	s3,28(sp)
    48c2:	8a2a                	mv	s4,a0
    48c4:	8aae                	mv	s5,a1
    48c6:	04850413          	addi	s0,a0,72
    48ca:	4901                	li	s2,0
    48cc:	4b05                	li	s6,1
    48ce:	5bfd                	li	s7,-1
    48d0:	ec09                	bnez	s0,48ea <_fwalk_reent+0x3c>
    48d2:	50b2                	lw	ra,44(sp)
    48d4:	5422                	lw	s0,40(sp)
    48d6:	854a                	mv	a0,s2
    48d8:	5492                	lw	s1,36(sp)
    48da:	5902                	lw	s2,32(sp)
    48dc:	49f2                	lw	s3,28(sp)
    48de:	4a62                	lw	s4,24(sp)
    48e0:	4ad2                	lw	s5,20(sp)
    48e2:	4b42                	lw	s6,16(sp)
    48e4:	4bb2                	lw	s7,12(sp)
    48e6:	6145                	addi	sp,sp,48
    48e8:	8082                	ret
    48ea:	4404                	lw	s1,8(s0)
    48ec:	00442983          	lw	s3,4(s0)
    48f0:	19fd                	addi	s3,s3,-1
    48f2:	0009d463          	bgez	s3,48fa <_fwalk_reent+0x4c>
    48f6:	4000                	lw	s0,0(s0)
    48f8:	bfe1                	j	48d0 <_fwalk_reent+0x22>
    48fa:	00c4d783          	lhu	a5,12(s1)
    48fe:	00fb7b63          	bgeu	s6,a5,4914 <_fwalk_reent+0x66>
    4902:	00e49783          	lh	a5,14(s1)
    4906:	01778763          	beq	a5,s7,4914 <_fwalk_reent+0x66>
    490a:	85a6                	mv	a1,s1
    490c:	8552                	mv	a0,s4
    490e:	9a82                	jalr	s5
    4910:	00a96933          	or	s2,s2,a0
    4914:	06848493          	addi	s1,s1,104
    4918:	bfe1                	j	48f0 <_fwalk_reent+0x42>

0000491a <rshift>:
    491a:	4910                	lw	a2,16(a0)
    491c:	01450693          	addi	a3,a0,20
    4920:	4055d713          	srai	a4,a1,0x5
    4924:	87b6                	mv	a5,a3
    4926:	02c75663          	bge	a4,a2,4952 <rshift+0x38>
    492a:	060a                	slli	a2,a2,0x2
    492c:	070a                	slli	a4,a4,0x2
    492e:	89fd                	andi	a1,a1,31
    4930:	9636                	add	a2,a2,a3
    4932:	9736                	add	a4,a4,a3
    4934:	c9b9                	beqz	a1,498a <rshift+0x70>
    4936:	00470813          	addi	a6,a4,4
    493a:	4318                	lw	a4,0(a4)
    493c:	02000313          	li	t1,32
    4940:	40b30333          	sub	t1,t1,a1
    4944:	00b75733          	srl	a4,a4,a1
    4948:	00c86e63          	bltu	a6,a2,4964 <rshift+0x4a>
    494c:	c398                	sw	a4,0(a5)
    494e:	c311                	beqz	a4,4952 <rshift+0x38>
    4950:	0791                	addi	a5,a5,4
    4952:	40d78733          	sub	a4,a5,a3
    4956:	8709                	srai	a4,a4,0x2
    4958:	c918                	sw	a4,16(a0)
    495a:	00d79463          	bne	a5,a3,4962 <rshift+0x48>
    495e:	00052a23          	sw	zero,20(a0)
    4962:	8082                	ret
    4964:	00082883          	lw	a7,0(a6)
    4968:	0791                	addi	a5,a5,4
    496a:	0811                	addi	a6,a6,4
    496c:	006898b3          	sll	a7,a7,t1
    4970:	00e8e733          	or	a4,a7,a4
    4974:	fee7ae23          	sw	a4,-4(a5) # fffefffc <_eusrstack+0xdffeaffc>
    4978:	ffc82703          	lw	a4,-4(a6)
    497c:	b7e1                	j	4944 <rshift+0x2a>
    497e:	0711                	addi	a4,a4,4
    4980:	ffc72583          	lw	a1,-4(a4)
    4984:	0791                	addi	a5,a5,4
    4986:	feb7ae23          	sw	a1,-4(a5)
    498a:	fec76ae3          	bltu	a4,a2,497e <rshift+0x64>
    498e:	b7d1                	j	4952 <rshift+0x38>

00004990 <__hexdig_fun>:
    4990:	fd050793          	addi	a5,a0,-48
    4994:	0ff7f793          	andi	a5,a5,255
    4998:	4725                	li	a4,9
    499a:	00f76763          	bltu	a4,a5,49a8 <__hexdig_fun+0x18>
    499e:	1501                	addi	a0,a0,-32
    49a0:	0ff57793          	andi	a5,a0,255
    49a4:	853e                	mv	a0,a5
    49a6:	8082                	ret
    49a8:	f9f50793          	addi	a5,a0,-97
    49ac:	0ff7f793          	andi	a5,a5,255
    49b0:	4695                	li	a3,5
    49b2:	00f6e563          	bltu	a3,a5,49bc <__hexdig_fun+0x2c>
    49b6:	fb950513          	addi	a0,a0,-71
    49ba:	b7dd                	j	49a0 <__hexdig_fun+0x10>
    49bc:	fbf50713          	addi	a4,a0,-65
    49c0:	0ff77713          	andi	a4,a4,255
    49c4:	4781                	li	a5,0
    49c6:	fce6efe3          	bltu	a3,a4,49a4 <__hexdig_fun+0x14>
    49ca:	fd950513          	addi	a0,a0,-39
    49ce:	bfc9                	j	49a0 <__hexdig_fun+0x10>

000049d0 <__gethex>:
    49d0:	711d                	addi	sp,sp,-96
    49d2:	c2d6                	sw	s5,68(sp)
    49d4:	8aaa                	mv	s5,a0
    49d6:	8542                	mv	a0,a6
    49d8:	c636                	sw	a3,12(sp)
    49da:	c23a                	sw	a4,4(sp)
    49dc:	ce86                	sw	ra,92(sp)
    49de:	c8ca                	sw	s2,80(sp)
    49e0:	c4d2                	sw	s4,72(sp)
    49e2:	c0da                	sw	s6,64(sp)
    49e4:	de5e                	sw	s7,60(sp)
    49e6:	8b3e                	mv	s6,a5
    49e8:	d66e                	sw	s11,44(sp)
    49ea:	8932                	mv	s2,a2
    49ec:	8dae                	mv	s11,a1
    49ee:	cca2                	sw	s0,88(sp)
    49f0:	caa6                	sw	s1,84(sp)
    49f2:	c6ce                	sw	s3,76(sp)
    49f4:	dc62                	sw	s8,56(sp)
    49f6:	da66                	sw	s9,52(sp)
    49f8:	d86a                	sw	s10,48(sp)
    49fa:	2da9                	jal	5054 <__localeconv_l>
    49fc:	00052b83          	lw	s7,0(a0)
    4a00:	855e                	mv	a0,s7
    4a02:	dcdfd0ef          	jal	ra,27ce <strlen>
    4a06:	00ab87b3          	add	a5,s7,a0
    4a0a:	000da683          	lw	a3,0(s11)
    4a0e:	fff7c783          	lbu	a5,-1(a5)
    4a12:	5779                	li	a4,-2
    4a14:	8f15                	sub	a4,a4,a3
    4a16:	c83e                	sw	a5,16(sp)
    4a18:	8a2a                	mv	s4,a0
    4a1a:	00268793          	addi	a5,a3,2
    4a1e:	03000693          	li	a3,48
    4a22:	00f70633          	add	a2,a4,a5
    4a26:	84be                	mv	s1,a5
    4a28:	0785                	addi	a5,a5,1
    4a2a:	fff7c503          	lbu	a0,-1(a5)
    4a2e:	c432                	sw	a2,8(sp)
    4a30:	fed509e3          	beq	a0,a3,4a22 <__gethex+0x52>
    4a34:	3fb1                	jal	4990 <__hexdig_fun>
    4a36:	10051b63          	bnez	a0,4b4c <__gethex+0x17c>
    4a3a:	8652                	mv	a2,s4
    4a3c:	85de                	mv	a1,s7
    4a3e:	8526                	mv	a0,s1
    4a40:	2d1010ef          	jal	ra,6510 <strncmp>
    4a44:	10051963          	bnez	a0,4b56 <__gethex+0x186>
    4a48:	01448c33          	add	s8,s1,s4
    4a4c:	000c4503          	lbu	a0,0(s8)
    4a50:	3781                	jal	4990 <__hexdig_fun>
    4a52:	10050363          	beqz	a0,4b58 <__gethex+0x188>
    4a56:	84e2                	mv	s1,s8
    4a58:	03000793          	li	a5,48
    4a5c:	0004c503          	lbu	a0,0(s1)
    4a60:	00f50a63          	beq	a0,a5,4a74 <__gethex+0xa4>
    4a64:	3735                	jal	4990 <__hexdig_fun>
    4a66:	4785                	li	a5,1
    4a68:	00153993          	seqz	s3,a0
    4a6c:	8ce2                	mv	s9,s8
    4a6e:	c43e                	sw	a5,8(sp)
    4a70:	8c26                	mv	s8,s1
    4a72:	a021                	j	4a7a <__gethex+0xaa>
    4a74:	0485                	addi	s1,s1,1
    4a76:	b7dd                	j	4a5c <__gethex+0x8c>
    4a78:	0c05                	addi	s8,s8,1
    4a7a:	000c4503          	lbu	a0,0(s8)
    4a7e:	3f09                	jal	4990 <__hexdig_fun>
    4a80:	fd65                	bnez	a0,4a78 <__gethex+0xa8>
    4a82:	8652                	mv	a2,s4
    4a84:	85de                	mv	a1,s7
    4a86:	8562                	mv	a0,s8
    4a88:	289010ef          	jal	ra,6510 <strncmp>
    4a8c:	e909                	bnez	a0,4a9e <__gethex+0xce>
    4a8e:	000c9b63          	bnez	s9,4aa4 <__gethex+0xd4>
    4a92:	9c52                	add	s8,s8,s4
    4a94:	8ce2                	mv	s9,s8
    4a96:	000c4503          	lbu	a0,0(s8)
    4a9a:	3ddd                	jal	4990 <__hexdig_fun>
    4a9c:	e95d                	bnez	a0,4b52 <__gethex+0x182>
    4a9e:	4401                	li	s0,0
    4aa0:	000c8563          	beqz	s9,4aaa <__gethex+0xda>
    4aa4:	418c8433          	sub	s0,s9,s8
    4aa8:	040a                	slli	s0,s0,0x2
    4aaa:	000c4783          	lbu	a5,0(s8)
    4aae:	05000713          	li	a4,80
    4ab2:	00e78763          	beq	a5,a4,4ac0 <__gethex+0xf0>
    4ab6:	07000613          	li	a2,112
    4aba:	8ce2                	mv	s9,s8
    4abc:	06c79063          	bne	a5,a2,4b1c <__gethex+0x14c>
    4ac0:	001c4783          	lbu	a5,1(s8)
    4ac4:	02b00713          	li	a4,43
    4ac8:	08e78b63          	beq	a5,a4,4b5e <__gethex+0x18e>
    4acc:	02d00713          	li	a4,45
    4ad0:	08e78b63          	beq	a5,a4,4b66 <__gethex+0x196>
    4ad4:	001c0c93          	addi	s9,s8,1
    4ad8:	4d01                	li	s10,0
    4ada:	000cc503          	lbu	a0,0(s9)
    4ade:	eb3ff0ef          	jal	ra,4990 <__hexdig_fun>
    4ae2:	fff50793          	addi	a5,a0,-1
    4ae6:	0ff7f793          	andi	a5,a5,255
    4aea:	45e1                	li	a1,24
    4aec:	08f5e463          	bltu	a1,a5,4b74 <__gethex+0x1a4>
    4af0:	ff050793          	addi	a5,a0,-16
    4af4:	0c85                	addi	s9,s9,1
    4af6:	000cc503          	lbu	a0,0(s9)
    4afa:	ca3e                	sw	a5,20(sp)
    4afc:	e95ff0ef          	jal	ra,4990 <__hexdig_fun>
    4b00:	fff50593          	addi	a1,a0,-1
    4b04:	0ff5f593          	andi	a1,a1,255
    4b08:	4861                	li	a6,24
    4b0a:	47d2                	lw	a5,20(sp)
    4b0c:	48a9                	li	a7,10
    4b0e:	04b87e63          	bgeu	a6,a1,4b6a <__gethex+0x19a>
    4b12:	000d0463          	beqz	s10,4b1a <__gethex+0x14a>
    4b16:	40f007b3          	neg	a5,a5
    4b1a:	943e                	add	s0,s0,a5
    4b1c:	019da023          	sw	s9,0(s11)
    4b20:	04098c63          	beqz	s3,4b78 <__gethex+0x1a8>
    4b24:	47a2                	lw	a5,8(sp)
    4b26:	4481                	li	s1,0
    4b28:	e391                	bnez	a5,4b2c <__gethex+0x15c>
    4b2a:	4499                	li	s1,6
    4b2c:	40f6                	lw	ra,92(sp)
    4b2e:	4466                	lw	s0,88(sp)
    4b30:	8526                	mv	a0,s1
    4b32:	4946                	lw	s2,80(sp)
    4b34:	44d6                	lw	s1,84(sp)
    4b36:	49b6                	lw	s3,76(sp)
    4b38:	4a26                	lw	s4,72(sp)
    4b3a:	4a96                	lw	s5,68(sp)
    4b3c:	4b06                	lw	s6,64(sp)
    4b3e:	5bf2                	lw	s7,60(sp)
    4b40:	5c62                	lw	s8,56(sp)
    4b42:	5cd2                	lw	s9,52(sp)
    4b44:	5d42                	lw	s10,48(sp)
    4b46:	5db2                	lw	s11,44(sp)
    4b48:	6125                	addi	sp,sp,96
    4b4a:	8082                	ret
    4b4c:	4981                	li	s3,0
    4b4e:	4c81                	li	s9,0
    4b50:	b705                	j	4a70 <__gethex+0xa0>
    4b52:	0c05                	addi	s8,s8,1
    4b54:	b789                	j	4a96 <__gethex+0xc6>
    4b56:	8c26                	mv	s8,s1
    4b58:	4401                	li	s0,0
    4b5a:	4985                	li	s3,1
    4b5c:	b7b9                	j	4aaa <__gethex+0xda>
    4b5e:	4d01                	li	s10,0
    4b60:	002c0c93          	addi	s9,s8,2
    4b64:	bf9d                	j	4ada <__gethex+0x10a>
    4b66:	4d05                	li	s10,1
    4b68:	bfe5                	j	4b60 <__gethex+0x190>
    4b6a:	031787b3          	mul	a5,a5,a7
    4b6e:	97aa                	add	a5,a5,a0
    4b70:	17c1                	addi	a5,a5,-16
    4b72:	b749                	j	4af4 <__gethex+0x124>
    4b74:	8ce2                	mv	s9,s8
    4b76:	b75d                	j	4b1c <__gethex+0x14c>
    4b78:	409c07b3          	sub	a5,s8,s1
    4b7c:	17fd                	addi	a5,a5,-1
    4b7e:	4581                	li	a1,0
    4b80:	471d                	li	a4,7
    4b82:	0af74463          	blt	a4,a5,4c2a <__gethex+0x25a>
    4b86:	8556                	mv	a0,s5
    4b88:	2df5                	jal	5284 <_Balloc>
    4b8a:	4605                	li	a2,1
    4b8c:	01450993          	addi	s3,a0,20
    4b90:	414607b3          	sub	a5,a2,s4
    4b94:	8daa                	mv	s11,a0
    4b96:	8d4e                	mv	s10,s3
    4b98:	4881                	li	a7,0
    4b9a:	4c81                	li	s9,0
    4b9c:	ca3e                	sw	a5,20(sp)
    4b9e:	0984e963          	bltu	s1,s8,4c30 <__gethex+0x260>
    4ba2:	004d0513          	addi	a0,s10,4
    4ba6:	41350533          	sub	a0,a0,s3
    4baa:	8509                	srai	a0,a0,0x2
    4bac:	019d2023          	sw	s9,0(s10)
    4bb0:	00ada823          	sw	a0,16(s11)
    4bb4:	00551493          	slli	s1,a0,0x5
    4bb8:	8566                	mv	a0,s9
    4bba:	0d9000ef          	jal	ra,5492 <__hi0bits>
    4bbe:	00092b83          	lw	s7,0(s2)
    4bc2:	8c89                	sub	s1,s1,a0
    4bc4:	0c9bd863          	bge	s7,s1,4c94 <__gethex+0x2c4>
    4bc8:	417484b3          	sub	s1,s1,s7
    4bcc:	85a6                	mv	a1,s1
    4bce:	856e                	mv	a0,s11
    4bd0:	7fb000ef          	jal	ra,5bca <__any_on>
    4bd4:	8a2a                	mv	s4,a0
    4bd6:	c905                	beqz	a0,4c06 <__gethex+0x236>
    4bd8:	fff48613          	addi	a2,s1,-1
    4bdc:	40565693          	srai	a3,a2,0x5
    4be0:	068a                	slli	a3,a3,0x2
    4be2:	96ce                	add	a3,a3,s3
    4be4:	4294                	lw	a3,0(a3)
    4be6:	4705                	li	a4,1
    4be8:	00c71733          	sll	a4,a4,a2
    4bec:	8f75                	and	a4,a4,a3
    4bee:	4a05                	li	s4,1
    4bf0:	cb19                	beqz	a4,4c06 <__gethex+0x236>
    4bf2:	00ca5963          	bge	s4,a2,4c04 <__gethex+0x234>
    4bf6:	ffe48593          	addi	a1,s1,-2
    4bfa:	856e                	mv	a0,s11
    4bfc:	7cf000ef          	jal	ra,5bca <__any_on>
    4c00:	4a0d                	li	s4,3
    4c02:	e111                	bnez	a0,4c06 <__gethex+0x236>
    4c04:	4a09                	li	s4,2
    4c06:	85a6                	mv	a1,s1
    4c08:	856e                	mv	a0,s11
    4c0a:	d11ff0ef          	jal	ra,491a <rshift>
    4c0e:	9426                	add	s0,s0,s1
    4c10:	00892703          	lw	a4,8(s2)
    4c14:	08875f63          	bge	a4,s0,4cb2 <__gethex+0x2e2>
    4c18:	85ee                	mv	a1,s11
    4c1a:	8556                	mv	a0,s5
    4c1c:	2dd5                	jal	5310 <_Bfree>
    4c1e:	4792                	lw	a5,4(sp)
    4c20:	0a300493          	li	s1,163
    4c24:	0007a023          	sw	zero,0(a5)
    4c28:	b711                	j	4b2c <__gethex+0x15c>
    4c2a:	0585                	addi	a1,a1,1
    4c2c:	8785                	srai	a5,a5,0x1
    4c2e:	bf91                	j	4b82 <__gethex+0x1b2>
    4c30:	fffc0793          	addi	a5,s8,-1
    4c34:	c43e                	sw	a5,8(sp)
    4c36:	fffc4603          	lbu	a2,-1(s8)
    4c3a:	47c2                	lw	a5,16(sp)
    4c3c:	02f60963          	beq	a2,a5,4c6e <__gethex+0x29e>
    4c40:	02000793          	li	a5,32
    4c44:	00f89763          	bne	a7,a5,4c52 <__gethex+0x282>
    4c48:	019d2023          	sw	s9,0(s10)
    4c4c:	4881                	li	a7,0
    4c4e:	0d11                	addi	s10,s10,4
    4c50:	4c81                	li	s9,0
    4c52:	fffc4503          	lbu	a0,-1(s8)
    4c56:	cc46                	sw	a7,24(sp)
    4c58:	d39ff0ef          	jal	ra,4990 <__hexdig_fun>
    4c5c:	48e2                	lw	a7,24(sp)
    4c5e:	893d                	andi	a0,a0,15
    4c60:	4322                	lw	t1,8(sp)
    4c62:	01151533          	sll	a0,a0,a7
    4c66:	00acecb3          	or	s9,s9,a0
    4c6a:	0891                	addi	a7,a7,4
    4c6c:	a015                	j	4c90 <__gethex+0x2c0>
    4c6e:	4752                	lw	a4,20(sp)
    4c70:	fffc0793          	addi	a5,s8,-1
    4c74:	00e78333          	add	t1,a5,a4
    4c78:	fc9364e3          	bltu	t1,s1,4c40 <__gethex+0x270>
    4c7c:	851a                	mv	a0,t1
    4c7e:	8652                	mv	a2,s4
    4c80:	85de                	mv	a1,s7
    4c82:	ce46                	sw	a7,28(sp)
    4c84:	cc1a                	sw	t1,24(sp)
    4c86:	08b010ef          	jal	ra,6510 <strncmp>
    4c8a:	4362                	lw	t1,24(sp)
    4c8c:	48f2                	lw	a7,28(sp)
    4c8e:	f94d                	bnez	a0,4c40 <__gethex+0x270>
    4c90:	8c1a                	mv	s8,t1
    4c92:	b731                	j	4b9e <__gethex+0x1ce>
    4c94:	4a01                	li	s4,0
    4c96:	f774dde3          	bge	s1,s7,4c10 <__gethex+0x240>
    4c9a:	409b84b3          	sub	s1,s7,s1
    4c9e:	85ee                	mv	a1,s11
    4ca0:	8626                	mv	a2,s1
    4ca2:	8556                	mv	a0,s5
    4ca4:	2bd000ef          	jal	ra,5760 <__lshift>
    4ca8:	8daa                	mv	s11,a0
    4caa:	8c05                	sub	s0,s0,s1
    4cac:	01450993          	addi	s3,a0,20
    4cb0:	b785                	j	4c10 <__gethex+0x240>
    4cb2:	00492703          	lw	a4,4(s2)
    4cb6:	0ee45563          	bge	s0,a4,4da0 <__gethex+0x3d0>
    4cba:	40870433          	sub	s0,a4,s0
    4cbe:	07744563          	blt	s0,s7,4d28 <__gethex+0x358>
    4cc2:	00c92703          	lw	a4,12(s2)
    4cc6:	4689                	li	a3,2
    4cc8:	04d70a63          	beq	a4,a3,4d1c <__gethex+0x34c>
    4ccc:	468d                	li	a3,3
    4cce:	04d70a63          	beq	a4,a3,4d22 <__gethex+0x352>
    4cd2:	4685                	li	a3,1
    4cd4:	02d71b63          	bne	a4,a3,4d0a <__gethex+0x33a>
    4cd8:	028b9963          	bne	s7,s0,4d0a <__gethex+0x33a>
    4cdc:	02eb9163          	bne	s7,a4,4cfe <__gethex+0x32e>
    4ce0:	00492703          	lw	a4,4(s2)
    4ce4:	47b2                	lw	a5,12(sp)
    4ce6:	06200493          	li	s1,98
    4cea:	c398                	sw	a4,0(a5)
    4cec:	4705                	li	a4,1
    4cee:	4792                	lw	a5,4(sp)
    4cf0:	00eda823          	sw	a4,16(s11)
    4cf4:	00e9a023          	sw	a4,0(s3)
    4cf8:	01b7a023          	sw	s11,0(a5)
    4cfc:	bd05                	j	4b2c <__gethex+0x15c>
    4cfe:	fffb8593          	addi	a1,s7,-1
    4d02:	856e                	mv	a0,s11
    4d04:	6c7000ef          	jal	ra,5bca <__any_on>
    4d08:	fd61                	bnez	a0,4ce0 <__gethex+0x310>
    4d0a:	85ee                	mv	a1,s11
    4d0c:	8556                	mv	a0,s5
    4d0e:	2509                	jal	5310 <_Bfree>
    4d10:	4792                	lw	a5,4(sp)
    4d12:	05000493          	li	s1,80
    4d16:	0007a023          	sw	zero,0(a5)
    4d1a:	bd09                	j	4b2c <__gethex+0x15c>
    4d1c:	fe0b17e3          	bnez	s6,4d0a <__gethex+0x33a>
    4d20:	b7c1                	j	4ce0 <__gethex+0x310>
    4d22:	fa0b1fe3          	bnez	s6,4ce0 <__gethex+0x310>
    4d26:	b7d5                	j	4d0a <__gethex+0x33a>
    4d28:	fff40493          	addi	s1,s0,-1
    4d2c:	060a1863          	bnez	s4,4d9c <__gethex+0x3cc>
    4d30:	c491                	beqz	s1,4d3c <__gethex+0x36c>
    4d32:	85a6                	mv	a1,s1
    4d34:	856e                	mv	a0,s11
    4d36:	695000ef          	jal	ra,5bca <__any_on>
    4d3a:	8a2a                	mv	s4,a0
    4d3c:	4054d713          	srai	a4,s1,0x5
    4d40:	070a                	slli	a4,a4,0x2
    4d42:	974e                	add	a4,a4,s3
    4d44:	4318                	lw	a4,0(a4)
    4d46:	4585                	li	a1,1
    4d48:	009595b3          	sll	a1,a1,s1
    4d4c:	8df9                	and	a1,a1,a4
    4d4e:	c199                	beqz	a1,4d54 <__gethex+0x384>
    4d50:	002a6a13          	ori	s4,s4,2
    4d54:	85a2                	mv	a1,s0
    4d56:	856e                	mv	a0,s11
    4d58:	408b8bb3          	sub	s7,s7,s0
    4d5c:	bbfff0ef          	jal	ra,491a <rshift>
    4d60:	00492403          	lw	s0,4(s2)
    4d64:	4489                	li	s1,2
    4d66:	080a0b63          	beqz	s4,4dfc <__gethex+0x42c>
    4d6a:	00c92703          	lw	a4,12(s2)
    4d6e:	4689                	li	a3,2
    4d70:	02d70a63          	beq	a4,a3,4da4 <__gethex+0x3d4>
    4d74:	468d                	li	a3,3
    4d76:	02d70a63          	beq	a4,a3,4daa <__gethex+0x3da>
    4d7a:	4685                	li	a3,1
    4d7c:	00d71d63          	bne	a4,a3,4d96 <__gethex+0x3c6>
    4d80:	002a7713          	andi	a4,s4,2
    4d84:	cb09                	beqz	a4,4d96 <__gethex+0x3c6>
    4d86:	0009a703          	lw	a4,0(s3)
    4d8a:	00ea6a33          	or	s4,s4,a4
    4d8e:	001a7a13          	andi	s4,s4,1
    4d92:	000a1e63          	bnez	s4,4dae <__gethex+0x3de>
    4d96:	0104e493          	ori	s1,s1,16
    4d9a:	a08d                	j	4dfc <__gethex+0x42c>
    4d9c:	4a05                	li	s4,1
    4d9e:	bf79                	j	4d3c <__gethex+0x36c>
    4da0:	4485                	li	s1,1
    4da2:	b7d1                	j	4d66 <__gethex+0x396>
    4da4:	4705                	li	a4,1
    4da6:	41670b33          	sub	s6,a4,s6
    4daa:	fe0b06e3          	beqz	s6,4d96 <__gethex+0x3c6>
    4dae:	010da983          	lw	s3,16(s11)
    4db2:	014d8713          	addi	a4,s11,20
    4db6:	55fd                	li	a1,-1
    4db8:	00299a13          	slli	s4,s3,0x2
    4dbc:	01470633          	add	a2,a4,s4
    4dc0:	4314                	lw	a3,0(a4)
    4dc2:	04b68363          	beq	a3,a1,4e08 <__gethex+0x438>
    4dc6:	0685                	addi	a3,a3,1
    4dc8:	c314                	sw	a3,0(a4)
    4dca:	4689                	li	a3,2
    4dcc:	014d8713          	addi	a4,s11,20
    4dd0:	08d49363          	bne	s1,a3,4e56 <__gethex+0x486>
    4dd4:	00092683          	lw	a3,0(s2)
    4dd8:	16fd                	addi	a3,a3,-1
    4dda:	01769f63          	bne	a3,s7,4df8 <__gethex+0x428>
    4dde:	405bd693          	srai	a3,s7,0x5
    4de2:	068a                	slli	a3,a3,0x2
    4de4:	9736                	add	a4,a4,a3
    4de6:	4318                	lw	a4,0(a4)
    4de8:	4685                	li	a3,1
    4dea:	01769bb3          	sll	s7,a3,s7
    4dee:	00ebfbb3          	and	s7,s7,a4
    4df2:	000b8363          	beqz	s7,4df8 <__gethex+0x428>
    4df6:	4485                	li	s1,1
    4df8:	0204e493          	ori	s1,s1,32
    4dfc:	4792                	lw	a5,4(sp)
    4dfe:	01b7a023          	sw	s11,0(a5)
    4e02:	47b2                	lw	a5,12(sp)
    4e04:	c380                	sw	s0,0(a5)
    4e06:	b31d                	j	4b2c <__gethex+0x15c>
    4e08:	0711                	addi	a4,a4,4
    4e0a:	fe072e23          	sw	zero,-4(a4)
    4e0e:	fac769e3          	bltu	a4,a2,4dc0 <__gethex+0x3f0>
    4e12:	008da703          	lw	a4,8(s11)
    4e16:	02e9c463          	blt	s3,a4,4e3e <__gethex+0x46e>
    4e1a:	004da583          	lw	a1,4(s11)
    4e1e:	8556                	mv	a0,s5
    4e20:	0585                	addi	a1,a1,1
    4e22:	218d                	jal	5284 <_Balloc>
    4e24:	010da603          	lw	a2,16(s11)
    4e28:	00cd8593          	addi	a1,s11,12
    4e2c:	8b2a                	mv	s6,a0
    4e2e:	0609                	addi	a2,a2,2
    4e30:	060a                	slli	a2,a2,0x2
    4e32:	0531                	addi	a0,a0,12
    4e34:	2e69                	jal	51ce <memcpy>
    4e36:	85ee                	mv	a1,s11
    4e38:	8556                	mv	a0,s5
    4e3a:	29d9                	jal	5310 <_Bfree>
    4e3c:	8dda                	mv	s11,s6
    4e3e:	010da703          	lw	a4,16(s11)
    4e42:	00170693          	addi	a3,a4,1
    4e46:	0711                	addi	a4,a4,4
    4e48:	070a                	slli	a4,a4,0x2
    4e4a:	00dda823          	sw	a3,16(s11)
    4e4e:	976e                	add	a4,a4,s11
    4e50:	4685                	li	a3,1
    4e52:	c354                	sw	a3,4(a4)
    4e54:	bf9d                	j	4dca <__gethex+0x3fa>
    4e56:	010da683          	lw	a3,16(s11)
    4e5a:	00d9dc63          	bge	s3,a3,4e72 <__gethex+0x4a2>
    4e5e:	4585                	li	a1,1
    4e60:	856e                	mv	a0,s11
    4e62:	ab9ff0ef          	jal	ra,491a <rshift>
    4e66:	00892703          	lw	a4,8(s2)
    4e6a:	0405                	addi	s0,s0,1
    4e6c:	f88755e3          	bge	a4,s0,4df6 <__gethex+0x426>
    4e70:	b365                	j	4c18 <__gethex+0x248>
    4e72:	01fbfb93          	andi	s7,s7,31
    4e76:	4485                	li	s1,1
    4e78:	f80b80e3          	beqz	s7,4df8 <__gethex+0x428>
    4e7c:	9752                	add	a4,a4,s4
    4e7e:	ffc72503          	lw	a0,-4(a4)
    4e82:	2d01                	jal	5492 <__hi0bits>
    4e84:	02000713          	li	a4,32
    4e88:	41770bb3          	sub	s7,a4,s7
    4e8c:	fd7549e3          	blt	a0,s7,4e5e <__gethex+0x48e>
    4e90:	b7a5                	j	4df8 <__gethex+0x428>

00004e92 <L_shift>:
    4e92:	47a1                	li	a5,8
    4e94:	40c78633          	sub	a2,a5,a2
    4e98:	060a                	slli	a2,a2,0x2
    4e9a:	02000693          	li	a3,32
    4e9e:	8e91                	sub	a3,a3,a2
    4ea0:	415c                	lw	a5,4(a0)
    4ea2:	4118                	lw	a4,0(a0)
    4ea4:	0511                	addi	a0,a0,4
    4ea6:	00d79833          	sll	a6,a5,a3
    4eaa:	01076733          	or	a4,a4,a6
    4eae:	00c7d7b3          	srl	a5,a5,a2
    4eb2:	fee52e23          	sw	a4,-4(a0)
    4eb6:	c11c                	sw	a5,0(a0)
    4eb8:	feb564e3          	bltu	a0,a1,4ea0 <L_shift+0xe>
    4ebc:	8082                	ret

00004ebe <__match>:
    4ebe:	411c                	lw	a5,0(a0)
    4ec0:	4865                	li	a6,25
    4ec2:	0585                	addi	a1,a1,1
    4ec4:	fff5c603          	lbu	a2,-1(a1)
    4ec8:	0785                	addi	a5,a5,1
    4eca:	e601                	bnez	a2,4ed2 <__match+0x14>
    4ecc:	c11c                	sw	a5,0(a0)
    4ece:	4505                	li	a0,1
    4ed0:	8082                	ret
    4ed2:	0007c703          	lbu	a4,0(a5)
    4ed6:	fbf70693          	addi	a3,a4,-65
    4eda:	0ff6f693          	andi	a3,a3,255
    4ede:	00d86463          	bltu	a6,a3,4ee6 <__match+0x28>
    4ee2:	02070713          	addi	a4,a4,32
    4ee6:	fcc70ee3          	beq	a4,a2,4ec2 <__match+0x4>
    4eea:	4501                	li	a0,0
    4eec:	8082                	ret

00004eee <__hexnan>:
    4eee:	715d                	addi	sp,sp,-80
    4ef0:	dc52                	sw	s4,56(sp)
    4ef2:	0005aa03          	lw	s4,0(a1)
    4ef6:	c2a6                	sw	s1,68(sp)
    4ef8:	de4e                	sw	s3,60(sp)
    4efa:	405a5493          	srai	s1,s4,0x5
    4efe:	d85a                	sw	s6,48(sp)
    4f00:	048a                	slli	s1,s1,0x2
    4f02:	c686                	sw	ra,76(sp)
    4f04:	c4a2                	sw	s0,72(sp)
    4f06:	c0ca                	sw	s2,64(sp)
    4f08:	da56                	sw	s5,52(sp)
    4f0a:	d65e                	sw	s7,44(sp)
    4f0c:	d462                	sw	s8,40(sp)
    4f0e:	d266                	sw	s9,36(sp)
    4f10:	d06a                	sw	s10,32(sp)
    4f12:	ce6e                	sw	s11,28(sp)
    4f14:	01fa7a13          	andi	s4,s4,31
    4f18:	8b2a                	mv	s6,a0
    4f1a:	89b2                	mv	s3,a2
    4f1c:	94b2                	add	s1,s1,a2
    4f1e:	000a0363          	beqz	s4,4f24 <__hexnan+0x36>
    4f22:	0491                	addi	s1,s1,4
    4f24:	000b2783          	lw	a5,0(s6)
    4f28:	ffc48913          	addi	s2,s1,-4
    4f2c:	fe04ae23          	sw	zero,-4(s1)
    4f30:	8dca                	mv	s11,s2
    4f32:	844a                	mv	s0,s2
    4f34:	4601                	li	a2,0
    4f36:	4a81                	li	s5,0
    4f38:	4b81                	li	s7,0
    4f3a:	4c21                	li	s8,8
    4f3c:	02000c93          	li	s9,32
    4f40:	4d1d                	li	s10,7
    4f42:	0017c683          	lbu	a3,1(a5)
    4f46:	00178713          	addi	a4,a5,1
    4f4a:	c03a                	sw	a4,0(sp)
    4f4c:	cab1                	beqz	a3,4fa0 <__hexnan+0xb2>
    4f4e:	8536                	mv	a0,a3
    4f50:	c632                	sw	a2,12(sp)
    4f52:	c43e                	sw	a5,8(sp)
    4f54:	c236                	sw	a3,4(sp)
    4f56:	a3bff0ef          	jal	ra,4990 <__hexdig_fun>
    4f5a:	4632                	lw	a2,12(sp)
    4f5c:	e559                	bnez	a0,4fea <__hexnan+0xfc>
    4f5e:	4692                	lw	a3,4(sp)
    4f60:	47a2                	lw	a5,8(sp)
    4f62:	02dce863          	bltu	s9,a3,4f92 <__hexnan+0xa4>
    4f66:	037ad463          	bge	s5,s7,4f8e <__hexnan+0xa0>
    4f6a:	01b47863          	bgeu	s0,s11,4f7a <__hexnan+0x8c>
    4f6e:	00cd4663          	blt	s10,a2,4f7a <__hexnan+0x8c>
    4f72:	85ee                	mv	a1,s11
    4f74:	8522                	mv	a0,s0
    4f76:	f1dff0ef          	jal	ra,4e92 <L_shift>
    4f7a:	4621                	li	a2,8
    4f7c:	0089f963          	bgeu	s3,s0,4f8e <__hexnan+0xa0>
    4f80:	ffc40d93          	addi	s11,s0,-4
    4f84:	fe042e23          	sw	zero,-4(s0)
    4f88:	8ade                	mv	s5,s7
    4f8a:	846e                	mv	s0,s11
    4f8c:	4601                	li	a2,0
    4f8e:	4782                	lw	a5,0(sp)
    4f90:	bf4d                	j	4f42 <__hexnan+0x54>
    4f92:	02900593          	li	a1,41
    4f96:	08b69c63          	bne	a3,a1,502e <__hexnan+0x140>
    4f9a:	0789                	addi	a5,a5,2
    4f9c:	00fb2023          	sw	a5,0(s6)
    4fa0:	080b8763          	beqz	s7,502e <__hexnan+0x140>
    4fa4:	01b47963          	bgeu	s0,s11,4fb6 <__hexnan+0xc8>
    4fa8:	479d                	li	a5,7
    4faa:	00c7c663          	blt	a5,a2,4fb6 <__hexnan+0xc8>
    4fae:	85ee                	mv	a1,s11
    4fb0:	8522                	mv	a0,s0
    4fb2:	ee1ff0ef          	jal	ra,4e92 <L_shift>
    4fb6:	0489fa63          	bgeu	s3,s0,500a <__hexnan+0x11c>
    4fba:	87ce                	mv	a5,s3
    4fbc:	0411                	addi	s0,s0,4
    4fbe:	ffc42703          	lw	a4,-4(s0)
    4fc2:	0791                	addi	a5,a5,4
    4fc4:	fee7ae23          	sw	a4,-4(a5)
    4fc8:	fe897ae3          	bgeu	s2,s0,4fbc <__hexnan+0xce>
    4fcc:	0791                	addi	a5,a5,4
    4fce:	fe07ae23          	sw	zero,-4(a5)
    4fd2:	fef97de3          	bgeu	s2,a5,4fcc <__hexnan+0xde>
    4fd6:	00092783          	lw	a5,0(s2)
    4fda:	e791                	bnez	a5,4fe6 <__hexnan+0xf8>
    4fdc:	05391763          	bne	s2,s3,502a <__hexnan+0x13c>
    4fe0:	4785                	li	a5,1
    4fe2:	00f92023          	sw	a5,0(s2)
    4fe6:	4515                	li	a0,5
    4fe8:	a0a1                	j	5030 <__hexnan+0x142>
    4fea:	0605                	addi	a2,a2,1
    4fec:	0b85                	addi	s7,s7,1
    4fee:	00cc5863          	bge	s8,a2,4ffe <__hexnan+0x110>
    4ff2:	f889fee3          	bgeu	s3,s0,4f8e <__hexnan+0xa0>
    4ff6:	fe042e23          	sw	zero,-4(s0)
    4ffa:	4605                	li	a2,1
    4ffc:	1471                	addi	s0,s0,-4
    4ffe:	401c                	lw	a5,0(s0)
    5000:	893d                	andi	a0,a0,15
    5002:	0792                	slli	a5,a5,0x4
    5004:	8fc9                	or	a5,a5,a0
    5006:	c01c                	sw	a5,0(s0)
    5008:	b759                	j	4f8e <__hexnan+0xa0>
    500a:	fc0a06e3          	beqz	s4,4fd6 <__hexnan+0xe8>
    500e:	02000793          	li	a5,32
    5012:	414787b3          	sub	a5,a5,s4
    5016:	5a7d                	li	s4,-1
    5018:	00fa57b3          	srl	a5,s4,a5
    501c:	ffc4aa03          	lw	s4,-4(s1)
    5020:	00fa7a33          	and	s4,s4,a5
    5024:	ff44ae23          	sw	s4,-4(s1)
    5028:	b77d                	j	4fd6 <__hexnan+0xe8>
    502a:	1971                	addi	s2,s2,-4
    502c:	b76d                	j	4fd6 <__hexnan+0xe8>
    502e:	4511                	li	a0,4
    5030:	40b6                	lw	ra,76(sp)
    5032:	4426                	lw	s0,72(sp)
    5034:	4496                	lw	s1,68(sp)
    5036:	4906                	lw	s2,64(sp)
    5038:	59f2                	lw	s3,60(sp)
    503a:	5a62                	lw	s4,56(sp)
    503c:	5ad2                	lw	s5,52(sp)
    503e:	5b42                	lw	s6,48(sp)
    5040:	5bb2                	lw	s7,44(sp)
    5042:	5c22                	lw	s8,40(sp)
    5044:	5c92                	lw	s9,36(sp)
    5046:	5d02                	lw	s10,32(sp)
    5048:	4df2                	lw	s11,28(sp)
    504a:	6161                	addi	sp,sp,80
    504c:	8082                	ret

0000504e <__locale_ctype_ptr_l>:
    504e:	0ec52503          	lw	a0,236(a0)
    5052:	8082                	ret

00005054 <__localeconv_l>:
    5054:	0f050513          	addi	a0,a0,240
    5058:	8082                	ret

0000505a <_localeconv_r>:
    505a:	80c18793          	addi	a5,gp,-2036 # 200001fc <_impure_ptr>
    505e:	439c                	lw	a5,0(a5)
    5060:	5388                	lw	a0,32(a5)
    5062:	e509                	bnez	a0,506c <_localeconv_r+0x12>
    5064:	1fffb517          	auipc	a0,0x1fffb
    5068:	01c50513          	addi	a0,a0,28 # 20000080 <__global_locale>
    506c:	0f050513          	addi	a0,a0,240
    5070:	8082                	ret

00005072 <__swhatbuf_r>:
    5072:	7119                	addi	sp,sp,-128
    5074:	daa6                	sw	s1,116(sp)
    5076:	84ae                	mv	s1,a1
    5078:	00e59583          	lh	a1,14(a1)
    507c:	dca2                	sw	s0,120(sp)
    507e:	de86                	sw	ra,124(sp)
    5080:	8432                	mv	s0,a2
    5082:	0005dc63          	bgez	a1,509a <__swhatbuf_r+0x28>
    5086:	00c4d783          	lhu	a5,12(s1)
    508a:	0006a023          	sw	zero,0(a3)
    508e:	0807f793          	andi	a5,a5,128
    5092:	e785                	bnez	a5,50ba <__swhatbuf_r+0x48>
    5094:	40000793          	li	a5,1024
    5098:	a01d                	j	50be <__swhatbuf_r+0x4c>
    509a:	0830                	addi	a2,sp,24
    509c:	c636                	sw	a3,12(sp)
    509e:	516010ef          	jal	ra,65b4 <_fstat_r>
    50a2:	46b2                	lw	a3,12(sp)
    50a4:	fe0541e3          	bltz	a0,5086 <__swhatbuf_r+0x14>
    50a8:	4772                	lw	a4,28(sp)
    50aa:	67bd                	lui	a5,0xf
    50ac:	8ff9                	and	a5,a5,a4
    50ae:	7779                	lui	a4,0xffffe
    50b0:	97ba                	add	a5,a5,a4
    50b2:	0017b793          	seqz	a5,a5
    50b6:	c29c                	sw	a5,0(a3)
    50b8:	bff1                	j	5094 <__swhatbuf_r+0x22>
    50ba:	04000793          	li	a5,64
    50be:	c01c                	sw	a5,0(s0)
    50c0:	50f6                	lw	ra,124(sp)
    50c2:	5466                	lw	s0,120(sp)
    50c4:	54d6                	lw	s1,116(sp)
    50c6:	4501                	li	a0,0
    50c8:	6109                	addi	sp,sp,128
    50ca:	8082                	ret

000050cc <__smakebuf_r>:
    50cc:	00c5d783          	lhu	a5,12(a1)
    50d0:	1101                	addi	sp,sp,-32
    50d2:	cc22                	sw	s0,24(sp)
    50d4:	ce06                	sw	ra,28(sp)
    50d6:	ca26                	sw	s1,20(sp)
    50d8:	c84a                	sw	s2,16(sp)
    50da:	8b89                	andi	a5,a5,2
    50dc:	842e                	mv	s0,a1
    50de:	cf89                	beqz	a5,50f8 <__smakebuf_r+0x2c>
    50e0:	04740793          	addi	a5,s0,71
    50e4:	c01c                	sw	a5,0(s0)
    50e6:	c81c                	sw	a5,16(s0)
    50e8:	4785                	li	a5,1
    50ea:	c85c                	sw	a5,20(s0)
    50ec:	40f2                	lw	ra,28(sp)
    50ee:	4462                	lw	s0,24(sp)
    50f0:	44d2                	lw	s1,20(sp)
    50f2:	4942                	lw	s2,16(sp)
    50f4:	6105                	addi	sp,sp,32
    50f6:	8082                	ret
    50f8:	0074                	addi	a3,sp,12
    50fa:	0030                	addi	a2,sp,8
    50fc:	84aa                	mv	s1,a0
    50fe:	f75ff0ef          	jal	ra,5072 <__swhatbuf_r>
    5102:	45a2                	lw	a1,8(sp)
    5104:	892a                	mv	s2,a0
    5106:	8526                	mv	a0,s1
    5108:	3d7000ef          	jal	ra,5cde <_malloc_r>
    510c:	ed01                	bnez	a0,5124 <__smakebuf_r+0x58>
    510e:	00c41783          	lh	a5,12(s0)
    5112:	2007f713          	andi	a4,a5,512
    5116:	fb79                	bnez	a4,50ec <__smakebuf_r+0x20>
    5118:	9bf1                	andi	a5,a5,-4
    511a:	0027e793          	ori	a5,a5,2
    511e:	00f41623          	sh	a5,12(s0)
    5122:	bf7d                	j	50e0 <__smakebuf_r+0x14>
    5124:	fffff797          	auipc	a5,0xfffff
    5128:	63478793          	addi	a5,a5,1588 # 4758 <_cleanup_r>
    512c:	d49c                	sw	a5,40(s1)
    512e:	00c45783          	lhu	a5,12(s0)
    5132:	c008                	sw	a0,0(s0)
    5134:	c808                	sw	a0,16(s0)
    5136:	0807e793          	ori	a5,a5,128
    513a:	00f41623          	sh	a5,12(s0)
    513e:	47a2                	lw	a5,8(sp)
    5140:	c85c                	sw	a5,20(s0)
    5142:	47b2                	lw	a5,12(sp)
    5144:	cf91                	beqz	a5,5160 <__smakebuf_r+0x94>
    5146:	00e41583          	lh	a1,14(s0)
    514a:	8526                	mv	a0,s1
    514c:	494010ef          	jal	ra,65e0 <_isatty_r>
    5150:	c901                	beqz	a0,5160 <__smakebuf_r+0x94>
    5152:	00c45783          	lhu	a5,12(s0)
    5156:	9bf1                	andi	a5,a5,-4
    5158:	0017e793          	ori	a5,a5,1
    515c:	00f41623          	sh	a5,12(s0)
    5160:	00c45783          	lhu	a5,12(s0)
    5164:	00f96933          	or	s2,s2,a5
    5168:	01241623          	sh	s2,12(s0)
    516c:	b741                	j	50ec <__smakebuf_r+0x20>

0000516e <malloc>:
    516e:	80c18793          	addi	a5,gp,-2036 # 200001fc <_impure_ptr>
    5172:	85aa                	mv	a1,a0
    5174:	4388                	lw	a0,0(a5)
    5176:	3690006f          	j	5cde <_malloc_r>

0000517a <__ascii_mbtowc>:
    517a:	e185                	bnez	a1,519a <__ascii_mbtowc+0x20>
    517c:	1141                	addi	sp,sp,-16
    517e:	006c                	addi	a1,sp,12
    5180:	4501                	li	a0,0
    5182:	ca11                	beqz	a2,5196 <__ascii_mbtowc+0x1c>
    5184:	5579                	li	a0,-2
    5186:	ca81                	beqz	a3,5196 <__ascii_mbtowc+0x1c>
    5188:	00064783          	lbu	a5,0(a2) # 10000 <_data_lma+0x760c>
    518c:	c19c                	sw	a5,0(a1)
    518e:	00064503          	lbu	a0,0(a2)
    5192:	00a03533          	snez	a0,a0
    5196:	0141                	addi	sp,sp,16
    5198:	8082                	ret
    519a:	4501                	li	a0,0
    519c:	ca19                	beqz	a2,51b2 <__ascii_mbtowc+0x38>
    519e:	5579                	li	a0,-2
    51a0:	ca89                	beqz	a3,51b2 <__ascii_mbtowc+0x38>
    51a2:	00064783          	lbu	a5,0(a2)
    51a6:	c19c                	sw	a5,0(a1)
    51a8:	00064503          	lbu	a0,0(a2)
    51ac:	00a03533          	snez	a0,a0
    51b0:	8082                	ret
    51b2:	8082                	ret

000051b4 <memchr>:
    51b4:	0ff5f593          	andi	a1,a1,255
    51b8:	962a                	add	a2,a2,a0
    51ba:	00c51463          	bne	a0,a2,51c2 <memchr+0xe>
    51be:	4501                	li	a0,0
    51c0:	8082                	ret
    51c2:	00054783          	lbu	a5,0(a0)
    51c6:	feb78de3          	beq	a5,a1,51c0 <memchr+0xc>
    51ca:	0505                	addi	a0,a0,1
    51cc:	b7fd                	j	51ba <memchr+0x6>

000051ce <memcpy>:
    51ce:	00a5c7b3          	xor	a5,a1,a0
    51d2:	8b8d                	andi	a5,a5,3
    51d4:	00c50733          	add	a4,a0,a2
    51d8:	e781                	bnez	a5,51e0 <memcpy+0x12>
    51da:	478d                	li	a5,3
    51dc:	00c7ee63          	bltu	a5,a2,51f8 <memcpy+0x2a>
    51e0:	87aa                	mv	a5,a0
    51e2:	0ae57063          	bgeu	a0,a4,5282 <memcpy+0xb4>
    51e6:	0005c683          	lbu	a3,0(a1)
    51ea:	0785                	addi	a5,a5,1
    51ec:	0585                	addi	a1,a1,1
    51ee:	fed78fa3          	sb	a3,-1(a5)
    51f2:	fee7eae3          	bltu	a5,a4,51e6 <memcpy+0x18>
    51f6:	8082                	ret
    51f8:	00357693          	andi	a3,a0,3
    51fc:	87aa                	mv	a5,a0
    51fe:	ca91                	beqz	a3,5212 <memcpy+0x44>
    5200:	0005c683          	lbu	a3,0(a1)
    5204:	0785                	addi	a5,a5,1
    5206:	0585                	addi	a1,a1,1
    5208:	fed78fa3          	sb	a3,-1(a5)
    520c:	0037f693          	andi	a3,a5,3
    5210:	b7fd                	j	51fe <memcpy+0x30>
    5212:	ffc77693          	andi	a3,a4,-4
    5216:	fe068613          	addi	a2,a3,-32
    521a:	06c7f063          	bgeu	a5,a2,527a <memcpy+0xac>
    521e:	0005a383          	lw	t2,0(a1)
    5222:	0045a283          	lw	t0,4(a1)
    5226:	0085af83          	lw	t6,8(a1)
    522a:	00c5af03          	lw	t5,12(a1)
    522e:	0105ae83          	lw	t4,16(a1)
    5232:	0145ae03          	lw	t3,20(a1)
    5236:	0185a303          	lw	t1,24(a1)
    523a:	01c5a883          	lw	a7,28(a1)
    523e:	02458593          	addi	a1,a1,36
    5242:	0077a023          	sw	t2,0(a5)
    5246:	ffc5a803          	lw	a6,-4(a1)
    524a:	0057a223          	sw	t0,4(a5)
    524e:	01f7a423          	sw	t6,8(a5)
    5252:	01e7a623          	sw	t5,12(a5)
    5256:	01d7a823          	sw	t4,16(a5)
    525a:	01c7aa23          	sw	t3,20(a5)
    525e:	0067ac23          	sw	t1,24(a5)
    5262:	0117ae23          	sw	a7,28(a5)
    5266:	02478793          	addi	a5,a5,36
    526a:	ff07ae23          	sw	a6,-4(a5)
    526e:	b775                	j	521a <memcpy+0x4c>
    5270:	4190                	lw	a2,0(a1)
    5272:	0791                	addi	a5,a5,4
    5274:	0591                	addi	a1,a1,4
    5276:	fec7ae23          	sw	a2,-4(a5)
    527a:	fed7ebe3          	bltu	a5,a3,5270 <memcpy+0xa2>
    527e:	f6e7e4e3          	bltu	a5,a4,51e6 <memcpy+0x18>
    5282:	8082                	ret

00005284 <_Balloc>:
    5284:	515c                	lw	a5,36(a0)
    5286:	1141                	addi	sp,sp,-16
    5288:	c422                	sw	s0,8(sp)
    528a:	c04a                	sw	s2,0(sp)
    528c:	c606                	sw	ra,12(sp)
    528e:	c226                	sw	s1,4(sp)
    5290:	842a                	mv	s0,a0
    5292:	892e                	mv	s2,a1
    5294:	ef89                	bnez	a5,52ae <_Balloc+0x2a>
    5296:	4541                	li	a0,16
    5298:	ed7ff0ef          	jal	ra,516e <malloc>
    529c:	d048                	sw	a0,36(s0)
    529e:	00052223          	sw	zero,4(a0)
    52a2:	00052423          	sw	zero,8(a0)
    52a6:	00052023          	sw	zero,0(a0)
    52aa:	00052623          	sw	zero,12(a0)
    52ae:	5044                	lw	s1,36(s0)
    52b0:	44dc                	lw	a5,12(s1)
    52b2:	c79d                	beqz	a5,52e0 <_Balloc+0x5c>
    52b4:	5058                	lw	a4,36(s0)
    52b6:	00291793          	slli	a5,s2,0x2
    52ba:	4758                	lw	a4,12(a4)
    52bc:	97ba                	add	a5,a5,a4
    52be:	4388                	lw	a0,0(a5)
    52c0:	e129                	bnez	a0,5302 <_Balloc+0x7e>
    52c2:	4485                	li	s1,1
    52c4:	012494b3          	sll	s1,s1,s2
    52c8:	00548613          	addi	a2,s1,5
    52cc:	060a                	slli	a2,a2,0x2
    52ce:	4585                	li	a1,1
    52d0:	8522                	mv	a0,s0
    52d2:	13f000ef          	jal	ra,5c10 <_calloc_r>
    52d6:	cd19                	beqz	a0,52f4 <_Balloc+0x70>
    52d8:	01252223          	sw	s2,4(a0)
    52dc:	c504                	sw	s1,8(a0)
    52de:	a025                	j	5306 <_Balloc+0x82>
    52e0:	02100613          	li	a2,33
    52e4:	4591                	li	a1,4
    52e6:	8522                	mv	a0,s0
    52e8:	129000ef          	jal	ra,5c10 <_calloc_r>
    52ec:	505c                	lw	a5,36(s0)
    52ee:	c4c8                	sw	a0,12(s1)
    52f0:	47dc                	lw	a5,12(a5)
    52f2:	f3e9                	bnez	a5,52b4 <_Balloc+0x30>
    52f4:	4501                	li	a0,0
    52f6:	40b2                	lw	ra,12(sp)
    52f8:	4422                	lw	s0,8(sp)
    52fa:	4492                	lw	s1,4(sp)
    52fc:	4902                	lw	s2,0(sp)
    52fe:	0141                	addi	sp,sp,16
    5300:	8082                	ret
    5302:	4118                	lw	a4,0(a0)
    5304:	c398                	sw	a4,0(a5)
    5306:	00052823          	sw	zero,16(a0)
    530a:	00052623          	sw	zero,12(a0)
    530e:	b7e5                	j	52f6 <_Balloc+0x72>

00005310 <_Bfree>:
    5310:	515c                	lw	a5,36(a0)
    5312:	1101                	addi	sp,sp,-32
    5314:	cc22                	sw	s0,24(sp)
    5316:	ce06                	sw	ra,28(sp)
    5318:	842a                	mv	s0,a0
    531a:	ef99                	bnez	a5,5338 <_Bfree+0x28>
    531c:	4541                	li	a0,16
    531e:	c62e                	sw	a1,12(sp)
    5320:	e4fff0ef          	jal	ra,516e <malloc>
    5324:	45b2                	lw	a1,12(sp)
    5326:	d048                	sw	a0,36(s0)
    5328:	00052223          	sw	zero,4(a0)
    532c:	00052423          	sw	zero,8(a0)
    5330:	00052023          	sw	zero,0(a0)
    5334:	00052623          	sw	zero,12(a0)
    5338:	c991                	beqz	a1,534c <_Bfree+0x3c>
    533a:	5054                	lw	a3,36(s0)
    533c:	41dc                	lw	a5,4(a1)
    533e:	00279713          	slli	a4,a5,0x2
    5342:	46dc                	lw	a5,12(a3)
    5344:	97ba                	add	a5,a5,a4
    5346:	4398                	lw	a4,0(a5)
    5348:	c198                	sw	a4,0(a1)
    534a:	c38c                	sw	a1,0(a5)
    534c:	40f2                	lw	ra,28(sp)
    534e:	4462                	lw	s0,24(sp)
    5350:	6105                	addi	sp,sp,32
    5352:	8082                	ret

00005354 <__multadd>:
    5354:	7179                	addi	sp,sp,-48
    5356:	ce4e                	sw	s3,28(sp)
    5358:	89aa                	mv	s3,a0
    535a:	6541                	lui	a0,0x10
    535c:	d422                	sw	s0,40(sp)
    535e:	d226                	sw	s1,36(sp)
    5360:	842e                	mv	s0,a1
    5362:	4984                	lw	s1,16(a1)
    5364:	d606                	sw	ra,44(sp)
    5366:	d04a                	sw	s2,32(sp)
    5368:	05d1                	addi	a1,a1,20
    536a:	4801                	li	a6,0
    536c:	157d                	addi	a0,a0,-1
    536e:	419c                	lw	a5,0(a1)
    5370:	0591                	addi	a1,a1,4
    5372:	0805                	addi	a6,a6,1
    5374:	00a7f733          	and	a4,a5,a0
    5378:	02c70733          	mul	a4,a4,a2
    537c:	83c1                	srli	a5,a5,0x10
    537e:	02c787b3          	mul	a5,a5,a2
    5382:	9736                	add	a4,a4,a3
    5384:	01075693          	srli	a3,a4,0x10
    5388:	8f69                	and	a4,a4,a0
    538a:	97b6                	add	a5,a5,a3
    538c:	0107d693          	srli	a3,a5,0x10
    5390:	07c2                	slli	a5,a5,0x10
    5392:	97ba                	add	a5,a5,a4
    5394:	fef5ae23          	sw	a5,-4(a1)
    5398:	fc984be3          	blt	a6,s1,536e <__multadd+0x1a>
    539c:	c2a1                	beqz	a3,53dc <__multadd+0x88>
    539e:	441c                	lw	a5,8(s0)
    53a0:	02f4c763          	blt	s1,a5,53ce <__multadd+0x7a>
    53a4:	404c                	lw	a1,4(s0)
    53a6:	854e                	mv	a0,s3
    53a8:	c636                	sw	a3,12(sp)
    53aa:	0585                	addi	a1,a1,1
    53ac:	ed9ff0ef          	jal	ra,5284 <_Balloc>
    53b0:	4810                	lw	a2,16(s0)
    53b2:	00c40593          	addi	a1,s0,12
    53b6:	892a                	mv	s2,a0
    53b8:	0609                	addi	a2,a2,2
    53ba:	060a                	slli	a2,a2,0x2
    53bc:	0531                	addi	a0,a0,12
    53be:	e11ff0ef          	jal	ra,51ce <memcpy>
    53c2:	85a2                	mv	a1,s0
    53c4:	854e                	mv	a0,s3
    53c6:	f4bff0ef          	jal	ra,5310 <_Bfree>
    53ca:	46b2                	lw	a3,12(sp)
    53cc:	844a                	mv	s0,s2
    53ce:	00448793          	addi	a5,s1,4
    53d2:	078a                	slli	a5,a5,0x2
    53d4:	97a2                	add	a5,a5,s0
    53d6:	c3d4                	sw	a3,4(a5)
    53d8:	0485                	addi	s1,s1,1
    53da:	c804                	sw	s1,16(s0)
    53dc:	8522                	mv	a0,s0
    53de:	50b2                	lw	ra,44(sp)
    53e0:	5422                	lw	s0,40(sp)
    53e2:	5492                	lw	s1,36(sp)
    53e4:	5902                	lw	s2,32(sp)
    53e6:	49f2                	lw	s3,28(sp)
    53e8:	6145                	addi	sp,sp,48
    53ea:	8082                	ret

000053ec <__s2b>:
    53ec:	7179                	addi	sp,sp,-48
    53ee:	00868793          	addi	a5,a3,8
    53f2:	cc52                	sw	s4,24(sp)
    53f4:	8a36                	mv	s4,a3
    53f6:	46a5                	li	a3,9
    53f8:	d422                	sw	s0,40(sp)
    53fa:	d226                	sw	s1,36(sp)
    53fc:	ce4e                	sw	s3,28(sp)
    53fe:	842e                	mv	s0,a1
    5400:	02d7c7b3          	div	a5,a5,a3
    5404:	d606                	sw	ra,44(sp)
    5406:	d04a                	sw	s2,32(sp)
    5408:	ca56                	sw	s5,20(sp)
    540a:	89aa                	mv	s3,a0
    540c:	84b2                	mv	s1,a2
    540e:	4685                	li	a3,1
    5410:	4581                	li	a1,0
    5412:	04f6cc63          	blt	a3,a5,546a <__s2b+0x7e>
    5416:	854e                	mv	a0,s3
    5418:	c63a                	sw	a4,12(sp)
    541a:	e6bff0ef          	jal	ra,5284 <_Balloc>
    541e:	4732                	lw	a4,12(sp)
    5420:	4785                	li	a5,1
    5422:	c91c                	sw	a5,16(a0)
    5424:	c958                	sw	a4,20(a0)
    5426:	47a5                	li	a5,9
    5428:	0497d463          	bge	a5,s1,5470 <__s2b+0x84>
    542c:	00940a93          	addi	s5,s0,9
    5430:	8956                	mv	s2,s5
    5432:	9426                	add	s0,s0,s1
    5434:	0905                	addi	s2,s2,1
    5436:	fff94683          	lbu	a3,-1(s2)
    543a:	85aa                	mv	a1,a0
    543c:	4629                	li	a2,10
    543e:	fd068693          	addi	a3,a3,-48
    5442:	854e                	mv	a0,s3
    5444:	f11ff0ef          	jal	ra,5354 <__multadd>
    5448:	fe8916e3          	bne	s2,s0,5434 <__s2b+0x48>
    544c:	ff848413          	addi	s0,s1,-8
    5450:	9456                	add	s0,s0,s5
    5452:	8926                	mv	s2,s1
    5454:	03494163          	blt	s2,s4,5476 <__s2b+0x8a>
    5458:	50b2                	lw	ra,44(sp)
    545a:	5422                	lw	s0,40(sp)
    545c:	5492                	lw	s1,36(sp)
    545e:	5902                	lw	s2,32(sp)
    5460:	49f2                	lw	s3,28(sp)
    5462:	4a62                	lw	s4,24(sp)
    5464:	4ad2                	lw	s5,20(sp)
    5466:	6145                	addi	sp,sp,48
    5468:	8082                	ret
    546a:	0686                	slli	a3,a3,0x1
    546c:	0585                	addi	a1,a1,1
    546e:	b755                	j	5412 <__s2b+0x26>
    5470:	0429                	addi	s0,s0,10
    5472:	44a5                	li	s1,9
    5474:	bff9                	j	5452 <__s2b+0x66>
    5476:	409907b3          	sub	a5,s2,s1
    547a:	97a2                	add	a5,a5,s0
    547c:	0007c683          	lbu	a3,0(a5)
    5480:	85aa                	mv	a1,a0
    5482:	4629                	li	a2,10
    5484:	fd068693          	addi	a3,a3,-48
    5488:	854e                	mv	a0,s3
    548a:	ecbff0ef          	jal	ra,5354 <__multadd>
    548e:	0905                	addi	s2,s2,1
    5490:	b7d1                	j	5454 <__s2b+0x68>

00005492 <__hi0bits>:
    5492:	7741                	lui	a4,0xffff0
    5494:	8f69                	and	a4,a4,a0
    5496:	87aa                	mv	a5,a0
    5498:	4501                	li	a0,0
    549a:	e319                	bnez	a4,54a0 <__hi0bits+0xe>
    549c:	07c2                	slli	a5,a5,0x10
    549e:	4541                	li	a0,16
    54a0:	ff000737          	lui	a4,0xff000
    54a4:	8f7d                	and	a4,a4,a5
    54a6:	e319                	bnez	a4,54ac <__hi0bits+0x1a>
    54a8:	0521                	addi	a0,a0,8
    54aa:	07a2                	slli	a5,a5,0x8
    54ac:	f0000737          	lui	a4,0xf0000
    54b0:	8f7d                	and	a4,a4,a5
    54b2:	e319                	bnez	a4,54b8 <__hi0bits+0x26>
    54b4:	0511                	addi	a0,a0,4
    54b6:	0792                	slli	a5,a5,0x4
    54b8:	c0000737          	lui	a4,0xc0000
    54bc:	8f7d                	and	a4,a4,a5
    54be:	e319                	bnez	a4,54c4 <__hi0bits+0x32>
    54c0:	0509                	addi	a0,a0,2
    54c2:	078a                	slli	a5,a5,0x2
    54c4:	0007c963          	bltz	a5,54d6 <__hi0bits+0x44>
    54c8:	00179713          	slli	a4,a5,0x1
    54cc:	0505                	addi	a0,a0,1
    54ce:	00074463          	bltz	a4,54d6 <__hi0bits+0x44>
    54d2:	02000513          	li	a0,32
    54d6:	8082                	ret

000054d8 <__lo0bits>:
    54d8:	411c                	lw	a5,0(a0)
    54da:	0077f713          	andi	a4,a5,7
    54de:	c30d                	beqz	a4,5500 <__lo0bits+0x28>
    54e0:	0017f693          	andi	a3,a5,1
    54e4:	4701                	li	a4,0
    54e6:	e699                	bnez	a3,54f4 <__lo0bits+0x1c>
    54e8:	0027f713          	andi	a4,a5,2
    54ec:	c711                	beqz	a4,54f8 <__lo0bits+0x20>
    54ee:	8385                	srli	a5,a5,0x1
    54f0:	c11c                	sw	a5,0(a0)
    54f2:	4705                	li	a4,1
    54f4:	853a                	mv	a0,a4
    54f6:	8082                	ret
    54f8:	8389                	srli	a5,a5,0x2
    54fa:	c11c                	sw	a5,0(a0)
    54fc:	4709                	li	a4,2
    54fe:	bfdd                	j	54f4 <__lo0bits+0x1c>
    5500:	01079693          	slli	a3,a5,0x10
    5504:	82c1                	srli	a3,a3,0x10
    5506:	4701                	li	a4,0
    5508:	e299                	bnez	a3,550e <__lo0bits+0x36>
    550a:	83c1                	srli	a5,a5,0x10
    550c:	4741                	li	a4,16
    550e:	0ff7f693          	andi	a3,a5,255
    5512:	e299                	bnez	a3,5518 <__lo0bits+0x40>
    5514:	0721                	addi	a4,a4,8
    5516:	83a1                	srli	a5,a5,0x8
    5518:	00f7f693          	andi	a3,a5,15
    551c:	e299                	bnez	a3,5522 <__lo0bits+0x4a>
    551e:	0711                	addi	a4,a4,4
    5520:	8391                	srli	a5,a5,0x4
    5522:	0037f693          	andi	a3,a5,3
    5526:	e299                	bnez	a3,552c <__lo0bits+0x54>
    5528:	0709                	addi	a4,a4,2
    552a:	8389                	srli	a5,a5,0x2
    552c:	0017f693          	andi	a3,a5,1
    5530:	e681                	bnez	a3,5538 <__lo0bits+0x60>
    5532:	8385                	srli	a5,a5,0x1
    5534:	0705                	addi	a4,a4,1
    5536:	c399                	beqz	a5,553c <__lo0bits+0x64>
    5538:	c11c                	sw	a5,0(a0)
    553a:	bf6d                	j	54f4 <__lo0bits+0x1c>
    553c:	02000713          	li	a4,32
    5540:	bf55                	j	54f4 <__lo0bits+0x1c>

00005542 <__i2b>:
    5542:	1141                	addi	sp,sp,-16
    5544:	c422                	sw	s0,8(sp)
    5546:	842e                	mv	s0,a1
    5548:	4585                	li	a1,1
    554a:	c606                	sw	ra,12(sp)
    554c:	d39ff0ef          	jal	ra,5284 <_Balloc>
    5550:	c940                	sw	s0,20(a0)
    5552:	40b2                	lw	ra,12(sp)
    5554:	4422                	lw	s0,8(sp)
    5556:	4705                	li	a4,1
    5558:	c918                	sw	a4,16(a0)
    555a:	0141                	addi	sp,sp,16
    555c:	8082                	ret

0000555e <__multiply>:
    555e:	4998                	lw	a4,16(a1)
    5560:	4a1c                	lw	a5,16(a2)
    5562:	7179                	addi	sp,sp,-48
    5564:	d226                	sw	s1,36(sp)
    5566:	d606                	sw	ra,44(sp)
    5568:	d422                	sw	s0,40(sp)
    556a:	d04a                	sw	s2,32(sp)
    556c:	ce4e                	sw	s3,28(sp)
    556e:	84ae                	mv	s1,a1
    5570:	00f75463          	bge	a4,a5,5578 <__multiply+0x1a>
    5574:	84b2                	mv	s1,a2
    5576:	862e                	mv	a2,a1
    5578:	0104a983          	lw	s3,16(s1)
    557c:	01062903          	lw	s2,16(a2)
    5580:	449c                	lw	a5,8(s1)
    5582:	40cc                	lw	a1,4(s1)
    5584:	01298433          	add	s0,s3,s2
    5588:	0087d363          	bge	a5,s0,558e <__multiply+0x30>
    558c:	0585                	addi	a1,a1,1
    558e:	c632                	sw	a2,12(sp)
    5590:	cf5ff0ef          	jal	ra,5284 <_Balloc>
    5594:	4632                	lw	a2,12(sp)
    5596:	01450813          	addi	a6,a0,20 # 10014 <_data_lma+0x7620>
    559a:	00241313          	slli	t1,s0,0x2
    559e:	9342                	add	t1,t1,a6
    55a0:	87c2                	mv	a5,a6
    55a2:	0267ed63          	bltu	a5,t1,55dc <__multiply+0x7e>
    55a6:	01448593          	addi	a1,s1,20
    55aa:	00299893          	slli	a7,s3,0x2
    55ae:	0651                	addi	a2,a2,20
    55b0:	00291e13          	slli	t3,s2,0x2
    55b4:	66c1                	lui	a3,0x10
    55b6:	98ae                	add	a7,a7,a1
    55b8:	9e32                	add	t3,t3,a2
    55ba:	16fd                	addi	a3,a3,-1
    55bc:	03c66463          	bltu	a2,t3,55e4 <__multiply+0x86>
    55c0:	00805663          	blez	s0,55cc <__multiply+0x6e>
    55c4:	1371                	addi	t1,t1,-4
    55c6:	00032783          	lw	a5,0(t1)
    55ca:	cbf1                	beqz	a5,569e <__multiply+0x140>
    55cc:	c900                	sw	s0,16(a0)
    55ce:	50b2                	lw	ra,44(sp)
    55d0:	5422                	lw	s0,40(sp)
    55d2:	5492                	lw	s1,36(sp)
    55d4:	5902                	lw	s2,32(sp)
    55d6:	49f2                	lw	s3,28(sp)
    55d8:	6145                	addi	sp,sp,48
    55da:	8082                	ret
    55dc:	0007a023          	sw	zero,0(a5)
    55e0:	0791                	addi	a5,a5,4
    55e2:	b7c1                	j	55a2 <__multiply+0x44>
    55e4:	00062f83          	lw	t6,0(a2)
    55e8:	00dfffb3          	and	t6,t6,a3
    55ec:	040f8a63          	beqz	t6,5640 <__multiply+0xe2>
    55f0:	8f42                	mv	t5,a6
    55f2:	82ae                	mv	t0,a1
    55f4:	4481                	li	s1,0
    55f6:	0002a703          	lw	a4,0(t0)
    55fa:	000f2383          	lw	t2,0(t5)
    55fe:	0f11                	addi	t5,t5,4
    5600:	00d77eb3          	and	t4,a4,a3
    5604:	03fe8eb3          	mul	t4,t4,t6
    5608:	00d3f7b3          	and	a5,t2,a3
    560c:	0103d393          	srli	t2,t2,0x10
    5610:	0291                	addi	t0,t0,4
    5612:	9ebe                	add	t4,t4,a5
    5614:	01075793          	srli	a5,a4,0x10
    5618:	03f787b3          	mul	a5,a5,t6
    561c:	9ea6                	add	t4,t4,s1
    561e:	010ed713          	srli	a4,t4,0x10
    5622:	00defeb3          	and	t4,t4,a3
    5626:	979e                	add	a5,a5,t2
    5628:	97ba                	add	a5,a5,a4
    562a:	0107d493          	srli	s1,a5,0x10
    562e:	07c2                	slli	a5,a5,0x10
    5630:	01d7e7b3          	or	a5,a5,t4
    5634:	feff2e23          	sw	a5,-4(t5)
    5638:	fb12efe3          	bltu	t0,a7,55f6 <__multiply+0x98>
    563c:	009f2023          	sw	s1,0(t5)
    5640:	00265283          	lhu	t0,2(a2)
    5644:	04028a63          	beqz	t0,5698 <__multiply+0x13a>
    5648:	00082783          	lw	a5,0(a6)
    564c:	8ec2                	mv	t4,a6
    564e:	8f2e                	mv	t5,a1
    5650:	4f81                	li	t6,0
    5652:	000f2703          	lw	a4,0(t5)
    5656:	002ed383          	lhu	t2,2(t4)
    565a:	8ff5                	and	a5,a5,a3
    565c:	8f75                	and	a4,a4,a3
    565e:	02570733          	mul	a4,a4,t0
    5662:	0e91                	addi	t4,t4,4
    5664:	0f11                	addi	t5,t5,4
    5666:	971e                	add	a4,a4,t2
    5668:	977e                	add	a4,a4,t6
    566a:	01071f93          	slli	t6,a4,0x10
    566e:	00ffe7b3          	or	a5,t6,a5
    5672:	fefeae23          	sw	a5,-4(t4)
    5676:	ffef5783          	lhu	a5,-2(t5)
    567a:	000eaf83          	lw	t6,0(t4)
    567e:	8341                	srli	a4,a4,0x10
    5680:	025787b3          	mul	a5,a5,t0
    5684:	00dfffb3          	and	t6,t6,a3
    5688:	97fe                	add	a5,a5,t6
    568a:	97ba                	add	a5,a5,a4
    568c:	0107df93          	srli	t6,a5,0x10
    5690:	fd1f61e3          	bltu	t5,a7,5652 <__multiply+0xf4>
    5694:	00fea023          	sw	a5,0(t4)
    5698:	0611                	addi	a2,a2,4
    569a:	0811                	addi	a6,a6,4
    569c:	b705                	j	55bc <__multiply+0x5e>
    569e:	147d                	addi	s0,s0,-1
    56a0:	b705                	j	55c0 <__multiply+0x62>

000056a2 <__pow5mult>:
    56a2:	1101                	addi	sp,sp,-32
    56a4:	ca26                	sw	s1,20(sp)
    56a6:	c84a                	sw	s2,16(sp)
    56a8:	c64e                	sw	s3,12(sp)
    56aa:	ce06                	sw	ra,28(sp)
    56ac:	cc22                	sw	s0,24(sp)
    56ae:	c452                	sw	s4,8(sp)
    56b0:	00367793          	andi	a5,a2,3
    56b4:	892a                	mv	s2,a0
    56b6:	84b2                	mv	s1,a2
    56b8:	89ae                	mv	s3,a1
    56ba:	cf89                	beqz	a5,56d4 <__pow5mult+0x32>
    56bc:	17fd                	addi	a5,a5,-1
    56be:	00003717          	auipc	a4,0x3
    56c2:	1d270713          	addi	a4,a4,466 # 8890 <p05.3319>
    56c6:	078a                	slli	a5,a5,0x2
    56c8:	97ba                	add	a5,a5,a4
    56ca:	4390                	lw	a2,0(a5)
    56cc:	4681                	li	a3,0
    56ce:	c87ff0ef          	jal	ra,5354 <__multadd>
    56d2:	89aa                	mv	s3,a0
    56d4:	8489                	srai	s1,s1,0x2
    56d6:	cca5                	beqz	s1,574e <__pow5mult+0xac>
    56d8:	02492783          	lw	a5,36(s2)
    56dc:	ef91                	bnez	a5,56f8 <__pow5mult+0x56>
    56de:	4541                	li	a0,16
    56e0:	a8fff0ef          	jal	ra,516e <malloc>
    56e4:	02a92223          	sw	a0,36(s2)
    56e8:	00052223          	sw	zero,4(a0)
    56ec:	00052423          	sw	zero,8(a0)
    56f0:	00052023          	sw	zero,0(a0)
    56f4:	00052623          	sw	zero,12(a0)
    56f8:	02492a03          	lw	s4,36(s2)
    56fc:	008a2403          	lw	s0,8(s4)
    5700:	e819                	bnez	s0,5716 <__pow5mult+0x74>
    5702:	27100593          	li	a1,625
    5706:	854a                	mv	a0,s2
    5708:	e3bff0ef          	jal	ra,5542 <__i2b>
    570c:	00aa2423          	sw	a0,8(s4)
    5710:	842a                	mv	s0,a0
    5712:	00052023          	sw	zero,0(a0)
    5716:	0014f793          	andi	a5,s1,1
    571a:	cf81                	beqz	a5,5732 <__pow5mult+0x90>
    571c:	85ce                	mv	a1,s3
    571e:	8622                	mv	a2,s0
    5720:	854a                	mv	a0,s2
    5722:	e3dff0ef          	jal	ra,555e <__multiply>
    5726:	8a2a                	mv	s4,a0
    5728:	85ce                	mv	a1,s3
    572a:	854a                	mv	a0,s2
    572c:	be5ff0ef          	jal	ra,5310 <_Bfree>
    5730:	89d2                	mv	s3,s4
    5732:	8485                	srai	s1,s1,0x1
    5734:	cc89                	beqz	s1,574e <__pow5mult+0xac>
    5736:	4008                	lw	a0,0(s0)
    5738:	e909                	bnez	a0,574a <__pow5mult+0xa8>
    573a:	8622                	mv	a2,s0
    573c:	85a2                	mv	a1,s0
    573e:	854a                	mv	a0,s2
    5740:	e1fff0ef          	jal	ra,555e <__multiply>
    5744:	c008                	sw	a0,0(s0)
    5746:	00052023          	sw	zero,0(a0)
    574a:	842a                	mv	s0,a0
    574c:	b7e9                	j	5716 <__pow5mult+0x74>
    574e:	40f2                	lw	ra,28(sp)
    5750:	4462                	lw	s0,24(sp)
    5752:	854e                	mv	a0,s3
    5754:	44d2                	lw	s1,20(sp)
    5756:	4942                	lw	s2,16(sp)
    5758:	49b2                	lw	s3,12(sp)
    575a:	4a22                	lw	s4,8(sp)
    575c:	6105                	addi	sp,sp,32
    575e:	8082                	ret

00005760 <__lshift>:
    5760:	7179                	addi	sp,sp,-48
    5762:	d226                	sw	s1,36(sp)
    5764:	84ae                	mv	s1,a1
    5766:	ce4e                	sw	s3,28(sp)
    5768:	0104a983          	lw	s3,16(s1)
    576c:	d422                	sw	s0,40(sp)
    576e:	41cc                	lw	a1,4(a1)
    5770:	40565413          	srai	s0,a2,0x5
    5774:	449c                	lw	a5,8(s1)
    5776:	99a2                	add	s3,s3,s0
    5778:	d04a                	sw	s2,32(sp)
    577a:	ca56                	sw	s5,20(sp)
    577c:	d606                	sw	ra,44(sp)
    577e:	cc52                	sw	s4,24(sp)
    5780:	8aaa                	mv	s5,a0
    5782:	00198913          	addi	s2,s3,1
    5786:	0927c463          	blt	a5,s2,580e <__lshift+0xae>
    578a:	8556                	mv	a0,s5
    578c:	c632                	sw	a2,12(sp)
    578e:	af7ff0ef          	jal	ra,5284 <_Balloc>
    5792:	4632                	lw	a2,12(sp)
    5794:	01450793          	addi	a5,a0,20
    5798:	8a2a                	mv	s4,a0
    579a:	86be                	mv	a3,a5
    579c:	4701                	li	a4,0
    579e:	0691                	addi	a3,a3,4
    57a0:	06874a63          	blt	a4,s0,5814 <__lshift+0xb4>
    57a4:	00045363          	bgez	s0,57aa <__lshift+0x4a>
    57a8:	4401                	li	s0,0
    57aa:	4894                	lw	a3,16(s1)
    57ac:	040a                	slli	s0,s0,0x2
    57ae:	00878733          	add	a4,a5,s0
    57b2:	068a                	slli	a3,a3,0x2
    57b4:	01448793          	addi	a5,s1,20
    57b8:	8a7d                	andi	a2,a2,31
    57ba:	96be                	add	a3,a3,a5
    57bc:	c225                	beqz	a2,581c <__lshift+0xbc>
    57be:	02000813          	li	a6,32
    57c2:	40c80833          	sub	a6,a6,a2
    57c6:	4581                	li	a1,0
    57c8:	4388                	lw	a0,0(a5)
    57ca:	0711                	addi	a4,a4,4
    57cc:	0791                	addi	a5,a5,4
    57ce:	00c51533          	sll	a0,a0,a2
    57d2:	8dc9                	or	a1,a1,a0
    57d4:	feb72e23          	sw	a1,-4(a4)
    57d8:	ffc7a583          	lw	a1,-4(a5)
    57dc:	0105d5b3          	srl	a1,a1,a6
    57e0:	fed7e4e3          	bltu	a5,a3,57c8 <__lshift+0x68>
    57e4:	c30c                	sw	a1,0(a4)
    57e6:	c199                	beqz	a1,57ec <__lshift+0x8c>
    57e8:	00298913          	addi	s2,s3,2
    57ec:	197d                	addi	s2,s2,-1
    57ee:	012a2823          	sw	s2,16(s4)
    57f2:	8556                	mv	a0,s5
    57f4:	85a6                	mv	a1,s1
    57f6:	b1bff0ef          	jal	ra,5310 <_Bfree>
    57fa:	50b2                	lw	ra,44(sp)
    57fc:	5422                	lw	s0,40(sp)
    57fe:	8552                	mv	a0,s4
    5800:	5492                	lw	s1,36(sp)
    5802:	5902                	lw	s2,32(sp)
    5804:	49f2                	lw	s3,28(sp)
    5806:	4a62                	lw	s4,24(sp)
    5808:	4ad2                	lw	s5,20(sp)
    580a:	6145                	addi	sp,sp,48
    580c:	8082                	ret
    580e:	0585                	addi	a1,a1,1
    5810:	0786                	slli	a5,a5,0x1
    5812:	bf95                	j	5786 <__lshift+0x26>
    5814:	fe06ae23          	sw	zero,-4(a3) # fffc <_data_lma+0x7608>
    5818:	0705                	addi	a4,a4,1
    581a:	b751                	j	579e <__lshift+0x3e>
    581c:	0791                	addi	a5,a5,4
    581e:	ffc7a603          	lw	a2,-4(a5)
    5822:	0711                	addi	a4,a4,4
    5824:	fec72e23          	sw	a2,-4(a4)
    5828:	fed7eae3          	bltu	a5,a3,581c <__lshift+0xbc>
    582c:	b7c1                	j	57ec <__lshift+0x8c>

0000582e <__mcmp>:
    582e:	491c                	lw	a5,16(a0)
    5830:	4998                	lw	a4,16(a1)
    5832:	8f99                	sub	a5,a5,a4
    5834:	e38d                	bnez	a5,5856 <__mcmp+0x28>
    5836:	070a                	slli	a4,a4,0x2
    5838:	0551                	addi	a0,a0,20
    583a:	05d1                	addi	a1,a1,20
    583c:	00e506b3          	add	a3,a0,a4
    5840:	95ba                	add	a1,a1,a4
    5842:	16f1                	addi	a3,a3,-4
    5844:	15f1                	addi	a1,a1,-4
    5846:	4290                	lw	a2,0(a3)
    5848:	4198                	lw	a4,0(a1)
    584a:	00e60863          	beq	a2,a4,585a <__mcmp+0x2c>
    584e:	57fd                	li	a5,-1
    5850:	00e66363          	bltu	a2,a4,5856 <__mcmp+0x28>
    5854:	4785                	li	a5,1
    5856:	853e                	mv	a0,a5
    5858:	8082                	ret
    585a:	fed564e3          	bltu	a0,a3,5842 <__mcmp+0x14>
    585e:	bfe5                	j	5856 <__mcmp+0x28>

00005860 <__mdiff>:
    5860:	1101                	addi	sp,sp,-32
    5862:	ca26                	sw	s1,20(sp)
    5864:	84ae                	mv	s1,a1
    5866:	c64e                	sw	s3,12(sp)
    5868:	85b2                	mv	a1,a2
    586a:	89aa                	mv	s3,a0
    586c:	8526                	mv	a0,s1
    586e:	cc22                	sw	s0,24(sp)
    5870:	ce06                	sw	ra,28(sp)
    5872:	c84a                	sw	s2,16(sp)
    5874:	8432                	mv	s0,a2
    5876:	fb9ff0ef          	jal	ra,582e <__mcmp>
    587a:	e105                	bnez	a0,589a <__mdiff+0x3a>
    587c:	4581                	li	a1,0
    587e:	854e                	mv	a0,s3
    5880:	a05ff0ef          	jal	ra,5284 <_Balloc>
    5884:	4785                	li	a5,1
    5886:	c91c                	sw	a5,16(a0)
    5888:	00052a23          	sw	zero,20(a0)
    588c:	40f2                	lw	ra,28(sp)
    588e:	4462                	lw	s0,24(sp)
    5890:	44d2                	lw	s1,20(sp)
    5892:	4942                	lw	s2,16(sp)
    5894:	49b2                	lw	s3,12(sp)
    5896:	6105                	addi	sp,sp,32
    5898:	8082                	ret
    589a:	4905                	li	s2,1
    589c:	00054663          	bltz	a0,58a8 <__mdiff+0x48>
    58a0:	87a2                	mv	a5,s0
    58a2:	4901                	li	s2,0
    58a4:	8426                	mv	s0,s1
    58a6:	84be                	mv	s1,a5
    58a8:	404c                	lw	a1,4(s0)
    58aa:	854e                	mv	a0,s3
    58ac:	9d9ff0ef          	jal	ra,5284 <_Balloc>
    58b0:	01042303          	lw	t1,16(s0)
    58b4:	0104a883          	lw	a7,16(s1)
    58b8:	01440613          	addi	a2,s0,20
    58bc:	00231e13          	slli	t3,t1,0x2
    58c0:	01448813          	addi	a6,s1,20
    58c4:	088a                	slli	a7,a7,0x2
    58c6:	6ec1                	lui	t4,0x10
    58c8:	01252623          	sw	s2,12(a0)
    58cc:	9e32                	add	t3,t3,a2
    58ce:	98c2                	add	a7,a7,a6
    58d0:	01450693          	addi	a3,a0,20
    58d4:	4f01                	li	t5,0
    58d6:	1efd                	addi	t4,t4,-1
    58d8:	4218                	lw	a4,0(a2)
    58da:	00082f83          	lw	t6,0(a6)
    58de:	0691                	addi	a3,a3,4
    58e0:	01d775b3          	and	a1,a4,t4
    58e4:	01dff7b3          	and	a5,t6,t4
    58e8:	95fa                	add	a1,a1,t5
    58ea:	8d9d                	sub	a1,a1,a5
    58ec:	010fdf93          	srli	t6,t6,0x10
    58f0:	01075793          	srli	a5,a4,0x10
    58f4:	41f787b3          	sub	a5,a5,t6
    58f8:	4105d713          	srai	a4,a1,0x10
    58fc:	97ba                	add	a5,a5,a4
    58fe:	4107df13          	srai	t5,a5,0x10
    5902:	01d5f5b3          	and	a1,a1,t4
    5906:	07c2                	slli	a5,a5,0x10
    5908:	8fcd                	or	a5,a5,a1
    590a:	0811                	addi	a6,a6,4
    590c:	fef6ae23          	sw	a5,-4(a3)
    5910:	0611                	addi	a2,a2,4
    5912:	fd1863e3          	bltu	a6,a7,58d8 <__mdiff+0x78>
    5916:	65c1                	lui	a1,0x10
    5918:	15fd                	addi	a1,a1,-1
    591a:	01c66863          	bltu	a2,t3,592a <__mdiff+0xca>
    591e:	16f1                	addi	a3,a3,-4
    5920:	429c                	lw	a5,0(a3)
    5922:	c795                	beqz	a5,594e <__mdiff+0xee>
    5924:	00652823          	sw	t1,16(a0)
    5928:	b795                	j	588c <__mdiff+0x2c>
    592a:	421c                	lw	a5,0(a2)
    592c:	0691                	addi	a3,a3,4
    592e:	0611                	addi	a2,a2,4
    5930:	00b7f733          	and	a4,a5,a1
    5934:	977a                	add	a4,a4,t5
    5936:	41075813          	srai	a6,a4,0x10
    593a:	83c1                	srli	a5,a5,0x10
    593c:	97c2                	add	a5,a5,a6
    593e:	4107df13          	srai	t5,a5,0x10
    5942:	8f6d                	and	a4,a4,a1
    5944:	07c2                	slli	a5,a5,0x10
    5946:	8fd9                	or	a5,a5,a4
    5948:	fef6ae23          	sw	a5,-4(a3)
    594c:	b7f9                	j	591a <__mdiff+0xba>
    594e:	137d                	addi	t1,t1,-1
    5950:	b7f9                	j	591e <__mdiff+0xbe>

00005952 <__ulp>:
    5952:	7ff007b7          	lui	a5,0x7ff00
    5956:	8dfd                	and	a1,a1,a5
    5958:	fcc007b7          	lui	a5,0xfcc00
    595c:	95be                	add	a1,a1,a5
    595e:	00b05563          	blez	a1,5968 <__ulp+0x16>
    5962:	4781                	li	a5,0
    5964:	853e                	mv	a0,a5
    5966:	8082                	ret
    5968:	40b005b3          	neg	a1,a1
    596c:	4145d793          	srai	a5,a1,0x14
    5970:	474d                	li	a4,19
    5972:	00f74763          	blt	a4,a5,5980 <__ulp+0x2e>
    5976:	000805b7          	lui	a1,0x80
    597a:	40f5d5b3          	sra	a1,a1,a5
    597e:	b7d5                	j	5962 <__ulp+0x10>
    5980:	fec78713          	addi	a4,a5,-20 # fcbfffec <_eusrstack+0xdcbfafec>
    5984:	46f9                	li	a3,30
    5986:	4581                	li	a1,0
    5988:	4785                	li	a5,1
    598a:	fce6cde3          	blt	a3,a4,5964 <__ulp+0x12>
    598e:	800007b7          	lui	a5,0x80000
    5992:	00e7d7b3          	srl	a5,a5,a4
    5996:	b7f9                	j	5964 <__ulp+0x12>

00005998 <__b2d>:
    5998:	7179                	addi	sp,sp,-48
    599a:	d226                	sw	s1,36(sp)
    599c:	4904                	lw	s1,16(a0)
    599e:	ce4e                	sw	s3,28(sp)
    59a0:	01450993          	addi	s3,a0,20
    59a4:	048a                	slli	s1,s1,0x2
    59a6:	94ce                	add	s1,s1,s3
    59a8:	d422                	sw	s0,40(sp)
    59aa:	ffc4a403          	lw	s0,-4(s1)
    59ae:	d04a                	sw	s2,32(sp)
    59b0:	c62e                	sw	a1,12(sp)
    59b2:	8522                	mv	a0,s0
    59b4:	d606                	sw	ra,44(sp)
    59b6:	addff0ef          	jal	ra,5492 <__hi0bits>
    59ba:	45b2                	lw	a1,12(sp)
    59bc:	02000793          	li	a5,32
    59c0:	8f89                	sub	a5,a5,a0
    59c2:	c19c                	sw	a5,0(a1)
    59c4:	47a9                	li	a5,10
    59c6:	ffc48913          	addi	s2,s1,-4
    59ca:	02a7cd63          	blt	a5,a0,5a04 <__b2d+0x6c>
    59ce:	47ad                	li	a5,11
    59d0:	8f89                	sub	a5,a5,a0
    59d2:	3ff00737          	lui	a4,0x3ff00
    59d6:	00f456b3          	srl	a3,s0,a5
    59da:	8ed9                	or	a3,a3,a4
    59dc:	4701                	li	a4,0
    59de:	0129f463          	bgeu	s3,s2,59e6 <__b2d+0x4e>
    59e2:	ff84a703          	lw	a4,-8(s1)
    59e6:	0555                	addi	a0,a0,21
    59e8:	00a41533          	sll	a0,s0,a0
    59ec:	00f757b3          	srl	a5,a4,a5
    59f0:	8fc9                	or	a5,a5,a0
    59f2:	50b2                	lw	ra,44(sp)
    59f4:	5422                	lw	s0,40(sp)
    59f6:	5492                	lw	s1,36(sp)
    59f8:	5902                	lw	s2,32(sp)
    59fa:	49f2                	lw	s3,28(sp)
    59fc:	853e                	mv	a0,a5
    59fe:	85b6                	mv	a1,a3
    5a00:	6145                	addi	sp,sp,48
    5a02:	8082                	ret
    5a04:	4781                	li	a5,0
    5a06:	0129f663          	bgeu	s3,s2,5a12 <__b2d+0x7a>
    5a0a:	ff84a783          	lw	a5,-8(s1)
    5a0e:	ff848913          	addi	s2,s1,-8
    5a12:	1555                	addi	a0,a0,-11
    5a14:	c905                	beqz	a0,5a44 <__b2d+0xac>
    5a16:	02000713          	li	a4,32
    5a1a:	40a70633          	sub	a2,a4,a0
    5a1e:	00c7d733          	srl	a4,a5,a2
    5a22:	00a41433          	sll	s0,s0,a0
    5a26:	8c59                	or	s0,s0,a4
    5a28:	3ff006b7          	lui	a3,0x3ff00
    5a2c:	8ec1                	or	a3,a3,s0
    5a2e:	4701                	li	a4,0
    5a30:	0129f463          	bgeu	s3,s2,5a38 <__b2d+0xa0>
    5a34:	ffc92703          	lw	a4,-4(s2)
    5a38:	00a797b3          	sll	a5,a5,a0
    5a3c:	00c75733          	srl	a4,a4,a2
    5a40:	8fd9                	or	a5,a5,a4
    5a42:	bf45                	j	59f2 <__b2d+0x5a>
    5a44:	3ff006b7          	lui	a3,0x3ff00
    5a48:	8ec1                	or	a3,a3,s0
    5a4a:	b765                	j	59f2 <__b2d+0x5a>

00005a4c <__d2b>:
    5a4c:	7179                	addi	sp,sp,-48
    5a4e:	d422                	sw	s0,40(sp)
    5a50:	842e                	mv	s0,a1
    5a52:	4585                	li	a1,1
    5a54:	d226                	sw	s1,36(sp)
    5a56:	d04a                	sw	s2,32(sp)
    5a58:	84b2                	mv	s1,a2
    5a5a:	ce4e                	sw	s3,28(sp)
    5a5c:	cc52                	sw	s4,24(sp)
    5a5e:	893a                	mv	s2,a4
    5a60:	d606                	sw	ra,44(sp)
    5a62:	8a36                	mv	s4,a3
    5a64:	821ff0ef          	jal	ra,5284 <_Balloc>
    5a68:	00100737          	lui	a4,0x100
    5a6c:	fff70793          	addi	a5,a4,-1 # fffff <_data_lma+0xf760b>
    5a70:	8fe5                	and	a5,a5,s1
    5a72:	80d1                	srli	s1,s1,0x14
    5a74:	7ff4f493          	andi	s1,s1,2047
    5a78:	89aa                	mv	s3,a0
    5a7a:	e0b5                	bnez	s1,5ade <__d2b+0x92>
    5a7c:	c63e                	sw	a5,12(sp)
    5a7e:	c42d                	beqz	s0,5ae8 <__d2b+0x9c>
    5a80:	0028                	addi	a0,sp,8
    5a82:	c422                	sw	s0,8(sp)
    5a84:	a55ff0ef          	jal	ra,54d8 <__lo0bits>
    5a88:	46a2                	lw	a3,8(sp)
    5a8a:	cd21                	beqz	a0,5ae2 <__d2b+0x96>
    5a8c:	4732                	lw	a4,12(sp)
    5a8e:	02000793          	li	a5,32
    5a92:	8f89                	sub	a5,a5,a0
    5a94:	00f717b3          	sll	a5,a4,a5
    5a98:	8fd5                	or	a5,a5,a3
    5a9a:	00a75733          	srl	a4,a4,a0
    5a9e:	00f9aa23          	sw	a5,20(s3)
    5aa2:	c63a                	sw	a4,12(sp)
    5aa4:	4432                	lw	s0,12(sp)
    5aa6:	0089ac23          	sw	s0,24(s3)
    5aaa:	00803433          	snez	s0,s0
    5aae:	0405                	addi	s0,s0,1
    5ab0:	0089a823          	sw	s0,16(s3)
    5ab4:	c4b9                	beqz	s1,5b02 <__d2b+0xb6>
    5ab6:	bcd48493          	addi	s1,s1,-1075
    5aba:	94aa                	add	s1,s1,a0
    5abc:	03500793          	li	a5,53
    5ac0:	009a2023          	sw	s1,0(s4)
    5ac4:	40a78533          	sub	a0,a5,a0
    5ac8:	00a92023          	sw	a0,0(s2)
    5acc:	50b2                	lw	ra,44(sp)
    5ace:	5422                	lw	s0,40(sp)
    5ad0:	854e                	mv	a0,s3
    5ad2:	5492                	lw	s1,36(sp)
    5ad4:	5902                	lw	s2,32(sp)
    5ad6:	49f2                	lw	s3,28(sp)
    5ad8:	4a62                	lw	s4,24(sp)
    5ada:	6145                	addi	sp,sp,48
    5adc:	8082                	ret
    5ade:	8fd9                	or	a5,a5,a4
    5ae0:	bf71                	j	5a7c <__d2b+0x30>
    5ae2:	00d9aa23          	sw	a3,20(s3)
    5ae6:	bf7d                	j	5aa4 <__d2b+0x58>
    5ae8:	0068                	addi	a0,sp,12
    5aea:	9efff0ef          	jal	ra,54d8 <__lo0bits>
    5aee:	47b2                	lw	a5,12(sp)
    5af0:	02050513          	addi	a0,a0,32
    5af4:	4405                	li	s0,1
    5af6:	00f9aa23          	sw	a5,20(s3)
    5afa:	4785                	li	a5,1
    5afc:	00f9a823          	sw	a5,16(s3)
    5b00:	bf55                	j	5ab4 <__d2b+0x68>
    5b02:	00241793          	slli	a5,s0,0x2
    5b06:	bce50513          	addi	a0,a0,-1074
    5b0a:	97ce                	add	a5,a5,s3
    5b0c:	00aa2023          	sw	a0,0(s4)
    5b10:	4b88                	lw	a0,16(a5)
    5b12:	0416                	slli	s0,s0,0x5
    5b14:	97fff0ef          	jal	ra,5492 <__hi0bits>
    5b18:	8c09                	sub	s0,s0,a0
    5b1a:	00892023          	sw	s0,0(s2)
    5b1e:	b77d                	j	5acc <__d2b+0x80>

00005b20 <__ratio>:
    5b20:	7179                	addi	sp,sp,-48
    5b22:	d04a                	sw	s2,32(sp)
    5b24:	892e                	mv	s2,a1
    5b26:	002c                	addi	a1,sp,8
    5b28:	d606                	sw	ra,44(sp)
    5b2a:	d422                	sw	s0,40(sp)
    5b2c:	d226                	sw	s1,36(sp)
    5b2e:	ce4e                	sw	s3,28(sp)
    5b30:	cc52                	sw	s4,24(sp)
    5b32:	8a2a                	mv	s4,a0
    5b34:	e65ff0ef          	jal	ra,5998 <__b2d>
    5b38:	89aa                	mv	s3,a0
    5b3a:	84ae                	mv	s1,a1
    5b3c:	842e                	mv	s0,a1
    5b3e:	854a                	mv	a0,s2
    5b40:	006c                	addi	a1,sp,12
    5b42:	e57ff0ef          	jal	ra,5998 <__b2d>
    5b46:	01092783          	lw	a5,16(s2)
    5b4a:	010a2703          	lw	a4,16(s4)
    5b4e:	46a2                	lw	a3,8(sp)
    5b50:	8f1d                	sub	a4,a4,a5
    5b52:	47b2                	lw	a5,12(sp)
    5b54:	0716                	slli	a4,a4,0x5
    5b56:	8e9d                	sub	a3,a3,a5
    5b58:	00d707b3          	add	a5,a4,a3
    5b5c:	02f05563          	blez	a5,5b86 <__ratio+0x66>
    5b60:	07d2                	slli	a5,a5,0x14
    5b62:	862e                	mv	a2,a1
    5b64:	00978433          	add	s0,a5,s1
    5b68:	8732                	mv	a4,a2
    5b6a:	85a2                	mv	a1,s0
    5b6c:	862a                	mv	a2,a0
    5b6e:	86ba                	mv	a3,a4
    5b70:	854e                	mv	a0,s3
    5b72:	2de010ef          	jal	ra,6e50 <__divdf3>
    5b76:	50b2                	lw	ra,44(sp)
    5b78:	5422                	lw	s0,40(sp)
    5b7a:	5492                	lw	s1,36(sp)
    5b7c:	5902                	lw	s2,32(sp)
    5b7e:	49f2                	lw	s3,28(sp)
    5b80:	4a62                	lw	s4,24(sp)
    5b82:	6145                	addi	sp,sp,48
    5b84:	8082                	ret
    5b86:	fff00737          	lui	a4,0xfff00
    5b8a:	02e787b3          	mul	a5,a5,a4
    5b8e:	00b78633          	add	a2,a5,a1
    5b92:	bfd9                	j	5b68 <__ratio+0x48>

00005b94 <__copybits>:
    5b94:	fff58793          	addi	a5,a1,-1 # 7ffff <_data_lma+0x7760b>
    5b98:	4a18                	lw	a4,16(a2)
    5b9a:	8795                	srai	a5,a5,0x5
    5b9c:	0785                	addi	a5,a5,1
    5b9e:	078a                	slli	a5,a5,0x2
    5ba0:	01460693          	addi	a3,a2,20
    5ba4:	070a                	slli	a4,a4,0x2
    5ba6:	97aa                	add	a5,a5,a0
    5ba8:	9736                	add	a4,a4,a3
    5baa:	00e6e563          	bltu	a3,a4,5bb4 <__copybits+0x20>
    5bae:	00f56a63          	bltu	a0,a5,5bc2 <__copybits+0x2e>
    5bb2:	8082                	ret
    5bb4:	0691                	addi	a3,a3,4
    5bb6:	ffc6a603          	lw	a2,-4(a3) # 3feffffc <_eusrstack+0x1fefaffc>
    5bba:	0511                	addi	a0,a0,4
    5bbc:	fec52e23          	sw	a2,-4(a0)
    5bc0:	b7ed                	j	5baa <__copybits+0x16>
    5bc2:	0511                	addi	a0,a0,4
    5bc4:	fe052e23          	sw	zero,-4(a0)
    5bc8:	b7dd                	j	5bae <__copybits+0x1a>

00005bca <__any_on>:
    5bca:	4914                	lw	a3,16(a0)
    5bcc:	4055d793          	srai	a5,a1,0x5
    5bd0:	01450713          	addi	a4,a0,20
    5bd4:	02f6c763          	blt	a3,a5,5c02 <__any_on+0x38>
    5bd8:	00d7df63          	bge	a5,a3,5bf6 <__any_on+0x2c>
    5bdc:	89fd                	andi	a1,a1,31
    5bde:	cd81                	beqz	a1,5bf6 <__any_on+0x2c>
    5be0:	00279693          	slli	a3,a5,0x2
    5be4:	96ba                	add	a3,a3,a4
    5be6:	4290                	lw	a2,0(a3)
    5be8:	4505                	li	a0,1
    5bea:	00b656b3          	srl	a3,a2,a1
    5bee:	00b695b3          	sll	a1,a3,a1
    5bf2:	00b61e63          	bne	a2,a1,5c0e <__any_on+0x44>
    5bf6:	078a                	slli	a5,a5,0x2
    5bf8:	97ba                	add	a5,a5,a4
    5bfa:	00f76663          	bltu	a4,a5,5c06 <__any_on+0x3c>
    5bfe:	4501                	li	a0,0
    5c00:	8082                	ret
    5c02:	87b6                	mv	a5,a3
    5c04:	bfcd                	j	5bf6 <__any_on+0x2c>
    5c06:	17f1                	addi	a5,a5,-4
    5c08:	4394                	lw	a3,0(a5)
    5c0a:	dae5                	beqz	a3,5bfa <__any_on+0x30>
    5c0c:	4505                	li	a0,1
    5c0e:	8082                	ret

00005c10 <_calloc_r>:
    5c10:	02c58633          	mul	a2,a1,a2
    5c14:	1101                	addi	sp,sp,-32
    5c16:	cc22                	sw	s0,24(sp)
    5c18:	ce06                	sw	ra,28(sp)
    5c1a:	85b2                	mv	a1,a2
    5c1c:	c632                	sw	a2,12(sp)
    5c1e:	20c1                	jal	5cde <_malloc_r>
    5c20:	842a                	mv	s0,a0
    5c22:	c509                	beqz	a0,5c2c <_calloc_r+0x1c>
    5c24:	4632                	lw	a2,12(sp)
    5c26:	4581                	li	a1,0
    5c28:	d78fa0ef          	jal	ra,1a0 <memset>
    5c2c:	8522                	mv	a0,s0
    5c2e:	40f2                	lw	ra,28(sp)
    5c30:	4462                	lw	s0,24(sp)
    5c32:	6105                	addi	sp,sp,32
    5c34:	8082                	ret

00005c36 <_free_r>:
    5c36:	c1dd                	beqz	a1,5cdc <_free_r+0xa6>
    5c38:	ffc5a783          	lw	a5,-4(a1)
    5c3c:	1141                	addi	sp,sp,-16
    5c3e:	c422                	sw	s0,8(sp)
    5c40:	c606                	sw	ra,12(sp)
    5c42:	c226                	sw	s1,4(sp)
    5c44:	ffc58413          	addi	s0,a1,-4
    5c48:	0007d363          	bgez	a5,5c4e <_free_r+0x18>
    5c4c:	943e                	add	s0,s0,a5
    5c4e:	84aa                	mv	s1,a0
    5c50:	233000ef          	jal	ra,6682 <__malloc_lock>
    5c54:	82c18793          	addi	a5,gp,-2004 # 2000021c <__malloc_free_list>
    5c58:	439c                	lw	a5,0(a5)
    5c5a:	ef81                	bnez	a5,5c72 <_free_r+0x3c>
    5c5c:	00042223          	sw	zero,4(s0)
    5c60:	8281a623          	sw	s0,-2004(gp) # 2000021c <__malloc_free_list>
    5c64:	4422                	lw	s0,8(sp)
    5c66:	40b2                	lw	ra,12(sp)
    5c68:	8526                	mv	a0,s1
    5c6a:	4492                	lw	s1,4(sp)
    5c6c:	0141                	addi	sp,sp,16
    5c6e:	2170006f          	j	6684 <__malloc_unlock>
    5c72:	00f47e63          	bgeu	s0,a5,5c8e <_free_r+0x58>
    5c76:	4014                	lw	a3,0(s0)
    5c78:	00d40733          	add	a4,s0,a3
    5c7c:	00e79663          	bne	a5,a4,5c88 <_free_r+0x52>
    5c80:	4398                	lw	a4,0(a5)
    5c82:	43dc                	lw	a5,4(a5)
    5c84:	9736                	add	a4,a4,a3
    5c86:	c018                	sw	a4,0(s0)
    5c88:	c05c                	sw	a5,4(s0)
    5c8a:	bfd9                	j	5c60 <_free_r+0x2a>
    5c8c:	87ba                	mv	a5,a4
    5c8e:	43d8                	lw	a4,4(a5)
    5c90:	c319                	beqz	a4,5c96 <_free_r+0x60>
    5c92:	fee47de3          	bgeu	s0,a4,5c8c <_free_r+0x56>
    5c96:	4394                	lw	a3,0(a5)
    5c98:	00d78633          	add	a2,a5,a3
    5c9c:	00861f63          	bne	a2,s0,5cba <_free_r+0x84>
    5ca0:	4010                	lw	a2,0(s0)
    5ca2:	96b2                	add	a3,a3,a2
    5ca4:	c394                	sw	a3,0(a5)
    5ca6:	00d78633          	add	a2,a5,a3
    5caa:	fac71de3          	bne	a4,a2,5c64 <_free_r+0x2e>
    5cae:	4310                	lw	a2,0(a4)
    5cb0:	4358                	lw	a4,4(a4)
    5cb2:	96b2                	add	a3,a3,a2
    5cb4:	c394                	sw	a3,0(a5)
    5cb6:	c3d8                	sw	a4,4(a5)
    5cb8:	b775                	j	5c64 <_free_r+0x2e>
    5cba:	00c47563          	bgeu	s0,a2,5cc4 <_free_r+0x8e>
    5cbe:	47b1                	li	a5,12
    5cc0:	c09c                	sw	a5,0(s1)
    5cc2:	b74d                	j	5c64 <_free_r+0x2e>
    5cc4:	4010                	lw	a2,0(s0)
    5cc6:	00c406b3          	add	a3,s0,a2
    5cca:	00d71663          	bne	a4,a3,5cd6 <_free_r+0xa0>
    5cce:	4314                	lw	a3,0(a4)
    5cd0:	4358                	lw	a4,4(a4)
    5cd2:	96b2                	add	a3,a3,a2
    5cd4:	c014                	sw	a3,0(s0)
    5cd6:	c058                	sw	a4,4(s0)
    5cd8:	c3c0                	sw	s0,4(a5)
    5cda:	b769                	j	5c64 <_free_r+0x2e>
    5cdc:	8082                	ret

00005cde <_malloc_r>:
    5cde:	1101                	addi	sp,sp,-32
    5ce0:	ca26                	sw	s1,20(sp)
    5ce2:	00358493          	addi	s1,a1,3
    5ce6:	98f1                	andi	s1,s1,-4
    5ce8:	ce06                	sw	ra,28(sp)
    5cea:	cc22                	sw	s0,24(sp)
    5cec:	c84a                	sw	s2,16(sp)
    5cee:	c64e                	sw	s3,12(sp)
    5cf0:	04a1                	addi	s1,s1,8
    5cf2:	47b1                	li	a5,12
    5cf4:	04f4f363          	bgeu	s1,a5,5d3a <_malloc_r+0x5c>
    5cf8:	44b1                	li	s1,12
    5cfa:	04b4e263          	bltu	s1,a1,5d3e <_malloc_r+0x60>
    5cfe:	892a                	mv	s2,a0
    5d00:	183000ef          	jal	ra,6682 <__malloc_lock>
    5d04:	82c18793          	addi	a5,gp,-2004 # 2000021c <__malloc_free_list>
    5d08:	4398                	lw	a4,0(a5)
    5d0a:	843a                	mv	s0,a4
    5d0c:	e039                	bnez	s0,5d52 <_malloc_r+0x74>
    5d0e:	83018793          	addi	a5,gp,-2000 # 20000220 <__malloc_sbrk_start>
    5d12:	439c                	lw	a5,0(a5)
    5d14:	e791                	bnez	a5,5d20 <_malloc_r+0x42>
    5d16:	4581                	li	a1,0
    5d18:	854a                	mv	a0,s2
    5d1a:	2f09                	jal	642c <_sbrk_r>
    5d1c:	82a1a823          	sw	a0,-2000(gp) # 20000220 <__malloc_sbrk_start>
    5d20:	85a6                	mv	a1,s1
    5d22:	854a                	mv	a0,s2
    5d24:	2721                	jal	642c <_sbrk_r>
    5d26:	59fd                	li	s3,-1
    5d28:	07351963          	bne	a0,s3,5d9a <_malloc_r+0xbc>
    5d2c:	47b1                	li	a5,12
    5d2e:	00f92023          	sw	a5,0(s2)
    5d32:	854a                	mv	a0,s2
    5d34:	151000ef          	jal	ra,6684 <__malloc_unlock>
    5d38:	a029                	j	5d42 <_malloc_r+0x64>
    5d3a:	fc04d0e3          	bgez	s1,5cfa <_malloc_r+0x1c>
    5d3e:	47b1                	li	a5,12
    5d40:	c11c                	sw	a5,0(a0)
    5d42:	4501                	li	a0,0
    5d44:	40f2                	lw	ra,28(sp)
    5d46:	4462                	lw	s0,24(sp)
    5d48:	44d2                	lw	s1,20(sp)
    5d4a:	4942                	lw	s2,16(sp)
    5d4c:	49b2                	lw	s3,12(sp)
    5d4e:	6105                	addi	sp,sp,32
    5d50:	8082                	ret
    5d52:	401c                	lw	a5,0(s0)
    5d54:	8f85                	sub	a5,a5,s1
    5d56:	0207cf63          	bltz	a5,5d94 <_malloc_r+0xb6>
    5d5a:	46ad                	li	a3,11
    5d5c:	00f6f663          	bgeu	a3,a5,5d68 <_malloc_r+0x8a>
    5d60:	c01c                	sw	a5,0(s0)
    5d62:	943e                	add	s0,s0,a5
    5d64:	c004                	sw	s1,0(s0)
    5d66:	a031                	j	5d72 <_malloc_r+0x94>
    5d68:	405c                	lw	a5,4(s0)
    5d6a:	02871363          	bne	a4,s0,5d90 <_malloc_r+0xb2>
    5d6e:	82f1a623          	sw	a5,-2004(gp) # 2000021c <__malloc_free_list>
    5d72:	854a                	mv	a0,s2
    5d74:	111000ef          	jal	ra,6684 <__malloc_unlock>
    5d78:	00b40513          	addi	a0,s0,11
    5d7c:	00440793          	addi	a5,s0,4
    5d80:	9961                	andi	a0,a0,-8
    5d82:	40f50733          	sub	a4,a0,a5
    5d86:	df5d                	beqz	a4,5d44 <_malloc_r+0x66>
    5d88:	943a                	add	s0,s0,a4
    5d8a:	8f89                	sub	a5,a5,a0
    5d8c:	c01c                	sw	a5,0(s0)
    5d8e:	bf5d                	j	5d44 <_malloc_r+0x66>
    5d90:	c35c                	sw	a5,4(a4)
    5d92:	b7c5                	j	5d72 <_malloc_r+0x94>
    5d94:	8722                	mv	a4,s0
    5d96:	4040                	lw	s0,4(s0)
    5d98:	bf95                	j	5d0c <_malloc_r+0x2e>
    5d9a:	00350413          	addi	s0,a0,3
    5d9e:	9871                	andi	s0,s0,-4
    5da0:	fc8502e3          	beq	a0,s0,5d64 <_malloc_r+0x86>
    5da4:	40a405b3          	sub	a1,s0,a0
    5da8:	854a                	mv	a0,s2
    5daa:	2549                	jal	642c <_sbrk_r>
    5dac:	fb351ce3          	bne	a0,s3,5d64 <_malloc_r+0x86>
    5db0:	bfb5                	j	5d2c <_malloc_r+0x4e>

00005db2 <__ssputs_r>:
    5db2:	1101                	addi	sp,sp,-32
    5db4:	c84a                	sw	s2,16(sp)
    5db6:	0085a903          	lw	s2,8(a1)
    5dba:	cc22                	sw	s0,24(sp)
    5dbc:	c452                	sw	s4,8(sp)
    5dbe:	c05a                	sw	s6,0(sp)
    5dc0:	ce06                	sw	ra,28(sp)
    5dc2:	ca26                	sw	s1,20(sp)
    5dc4:	c64e                	sw	s3,12(sp)
    5dc6:	c256                	sw	s5,4(sp)
    5dc8:	842e                	mv	s0,a1
    5dca:	8b32                	mv	s6,a2
    5dcc:	8a36                	mv	s4,a3
    5dce:	0926ee63          	bltu	a3,s2,5e6a <__ssputs_r+0xb8>
    5dd2:	00c5d783          	lhu	a5,12(a1)
    5dd6:	4807f713          	andi	a4,a5,1152
    5dda:	c751                	beqz	a4,5e66 <__ssputs_r+0xb4>
    5ddc:	4004                	lw	s1,0(s0)
    5dde:	498c                	lw	a1,16(a1)
    5de0:	4858                	lw	a4,20(s0)
    5de2:	8aaa                	mv	s5,a0
    5de4:	40b489b3          	sub	s3,s1,a1
    5de8:	448d                	li	s1,3
    5dea:	02e484b3          	mul	s1,s1,a4
    5dee:	4709                	li	a4,2
    5df0:	02e4c4b3          	div	s1,s1,a4
    5df4:	00168713          	addi	a4,a3,1
    5df8:	974e                	add	a4,a4,s3
    5dfa:	00e4f363          	bgeu	s1,a4,5e00 <__ssputs_r+0x4e>
    5dfe:	84ba                	mv	s1,a4
    5e00:	4007f793          	andi	a5,a5,1024
    5e04:	c3d9                	beqz	a5,5e8a <__ssputs_r+0xd8>
    5e06:	85a6                	mv	a1,s1
    5e08:	8556                	mv	a0,s5
    5e0a:	ed5ff0ef          	jal	ra,5cde <_malloc_r>
    5e0e:	892a                	mv	s2,a0
    5e10:	e50d                	bnez	a0,5e3a <__ssputs_r+0x88>
    5e12:	47b1                	li	a5,12
    5e14:	00faa023          	sw	a5,0(s5)
    5e18:	00c45783          	lhu	a5,12(s0)
    5e1c:	557d                	li	a0,-1
    5e1e:	0407e793          	ori	a5,a5,64
    5e22:	00f41623          	sh	a5,12(s0)
    5e26:	40f2                	lw	ra,28(sp)
    5e28:	4462                	lw	s0,24(sp)
    5e2a:	44d2                	lw	s1,20(sp)
    5e2c:	4942                	lw	s2,16(sp)
    5e2e:	49b2                	lw	s3,12(sp)
    5e30:	4a22                	lw	s4,8(sp)
    5e32:	4a92                	lw	s5,4(sp)
    5e34:	4b02                	lw	s6,0(sp)
    5e36:	6105                	addi	sp,sp,32
    5e38:	8082                	ret
    5e3a:	480c                	lw	a1,16(s0)
    5e3c:	864e                	mv	a2,s3
    5e3e:	b90ff0ef          	jal	ra,51ce <memcpy>
    5e42:	00c45783          	lhu	a5,12(s0)
    5e46:	b7f7f793          	andi	a5,a5,-1153
    5e4a:	0807e793          	ori	a5,a5,128
    5e4e:	00f41623          	sh	a5,12(s0)
    5e52:	01242823          	sw	s2,16(s0)
    5e56:	c844                	sw	s1,20(s0)
    5e58:	994e                	add	s2,s2,s3
    5e5a:	413484b3          	sub	s1,s1,s3
    5e5e:	01242023          	sw	s2,0(s0)
    5e62:	c404                	sw	s1,8(s0)
    5e64:	8952                	mv	s2,s4
    5e66:	012a7363          	bgeu	s4,s2,5e6c <__ssputs_r+0xba>
    5e6a:	8952                	mv	s2,s4
    5e6c:	4008                	lw	a0,0(s0)
    5e6e:	864a                	mv	a2,s2
    5e70:	85da                	mv	a1,s6
    5e72:	7c6000ef          	jal	ra,6638 <memmove>
    5e76:	441c                	lw	a5,8(s0)
    5e78:	4501                	li	a0,0
    5e7a:	412787b3          	sub	a5,a5,s2
    5e7e:	c41c                	sw	a5,8(s0)
    5e80:	401c                	lw	a5,0(s0)
    5e82:	993e                	add	s2,s2,a5
    5e84:	01242023          	sw	s2,0(s0)
    5e88:	bf79                	j	5e26 <__ssputs_r+0x74>
    5e8a:	8626                	mv	a2,s1
    5e8c:	8556                	mv	a0,s5
    5e8e:	7f8000ef          	jal	ra,6686 <_realloc_r>
    5e92:	892a                	mv	s2,a0
    5e94:	fd5d                	bnez	a0,5e52 <__ssputs_r+0xa0>
    5e96:	480c                	lw	a1,16(s0)
    5e98:	8556                	mv	a0,s5
    5e9a:	d9dff0ef          	jal	ra,5c36 <_free_r>
    5e9e:	bf95                	j	5e12 <__ssputs_r+0x60>

00005ea0 <_svfiprintf_r>:
    5ea0:	00c5d783          	lhu	a5,12(a1)
    5ea4:	7171                	addi	sp,sp,-176
    5ea6:	d326                	sw	s1,164(sp)
    5ea8:	d14a                	sw	s2,160(sp)
    5eaa:	cf4e                	sw	s3,156(sp)
    5eac:	d706                	sw	ra,172(sp)
    5eae:	d522                	sw	s0,168(sp)
    5eb0:	cd52                	sw	s4,152(sp)
    5eb2:	cb56                	sw	s5,148(sp)
    5eb4:	c95a                	sw	s6,144(sp)
    5eb6:	c75e                	sw	s7,140(sp)
    5eb8:	c562                	sw	s8,136(sp)
    5eba:	c366                	sw	s9,132(sp)
    5ebc:	0807f793          	andi	a5,a5,128
    5ec0:	89aa                	mv	s3,a0
    5ec2:	892e                	mv	s2,a1
    5ec4:	84b2                	mv	s1,a2
    5ec6:	c3b9                	beqz	a5,5f0c <_svfiprintf_r+0x6c>
    5ec8:	499c                	lw	a5,16(a1)
    5eca:	e3a9                	bnez	a5,5f0c <_svfiprintf_r+0x6c>
    5ecc:	04000593          	li	a1,64
    5ed0:	c636                	sw	a3,12(sp)
    5ed2:	e0dff0ef          	jal	ra,5cde <_malloc_r>
    5ed6:	00a92023          	sw	a0,0(s2)
    5eda:	00a92823          	sw	a0,16(s2)
    5ede:	46b2                	lw	a3,12(sp)
    5ee0:	e115                	bnez	a0,5f04 <_svfiprintf_r+0x64>
    5ee2:	47b1                	li	a5,12
    5ee4:	00f9a023          	sw	a5,0(s3)
    5ee8:	557d                	li	a0,-1
    5eea:	50ba                	lw	ra,172(sp)
    5eec:	542a                	lw	s0,168(sp)
    5eee:	549a                	lw	s1,164(sp)
    5ef0:	590a                	lw	s2,160(sp)
    5ef2:	49fa                	lw	s3,156(sp)
    5ef4:	4a6a                	lw	s4,152(sp)
    5ef6:	4ada                	lw	s5,148(sp)
    5ef8:	4b4a                	lw	s6,144(sp)
    5efa:	4bba                	lw	s7,140(sp)
    5efc:	4c2a                	lw	s8,136(sp)
    5efe:	4c9a                	lw	s9,132(sp)
    5f00:	614d                	addi	sp,sp,176
    5f02:	8082                	ret
    5f04:	04000793          	li	a5,64
    5f08:	00f92a23          	sw	a5,20(s2)
    5f0c:	02000793          	li	a5,32
    5f10:	02f10ca3          	sb	a5,57(sp)
    5f14:	03000793          	li	a5,48
    5f18:	da02                	sw	zero,52(sp)
    5f1a:	02f10d23          	sb	a5,58(sp)
    5f1e:	ce36                	sw	a3,28(sp)
    5f20:	02500b93          	li	s7,37
    5f24:	00003a97          	auipc	s5,0x3
    5f28:	978a8a93          	addi	s5,s5,-1672 # 889c <p05.3319+0xc>
    5f2c:	4c05                	li	s8,1
    5f2e:	4b29                	li	s6,10
    5f30:	8426                	mv	s0,s1
    5f32:	00044783          	lbu	a5,0(s0)
    5f36:	c399                	beqz	a5,5f3c <_svfiprintf_r+0x9c>
    5f38:	09779d63          	bne	a5,s7,5fd2 <_svfiprintf_r+0x132>
    5f3c:	40940cb3          	sub	s9,s0,s1
    5f40:	000c8e63          	beqz	s9,5f5c <_svfiprintf_r+0xbc>
    5f44:	86e6                	mv	a3,s9
    5f46:	8626                	mv	a2,s1
    5f48:	85ca                	mv	a1,s2
    5f4a:	854e                	mv	a0,s3
    5f4c:	e67ff0ef          	jal	ra,5db2 <__ssputs_r>
    5f50:	57fd                	li	a5,-1
    5f52:	1af50263          	beq	a0,a5,60f6 <_svfiprintf_r+0x256>
    5f56:	56d2                	lw	a3,52(sp)
    5f58:	96e6                	add	a3,a3,s9
    5f5a:	da36                	sw	a3,52(sp)
    5f5c:	00044783          	lbu	a5,0(s0)
    5f60:	18078b63          	beqz	a5,60f6 <_svfiprintf_r+0x256>
    5f64:	57fd                	li	a5,-1
    5f66:	00140493          	addi	s1,s0,1
    5f6a:	d002                	sw	zero,32(sp)
    5f6c:	d602                	sw	zero,44(sp)
    5f6e:	d23e                	sw	a5,36(sp)
    5f70:	d402                	sw	zero,40(sp)
    5f72:	060101a3          	sb	zero,99(sp)
    5f76:	dc82                	sw	zero,120(sp)
    5f78:	0004c583          	lbu	a1,0(s1)
    5f7c:	4615                	li	a2,5
    5f7e:	8556                	mv	a0,s5
    5f80:	a34ff0ef          	jal	ra,51b4 <memchr>
    5f84:	00148413          	addi	s0,s1,1
    5f88:	5782                	lw	a5,32(sp)
    5f8a:	e531                	bnez	a0,5fd6 <_svfiprintf_r+0x136>
    5f8c:	0107f713          	andi	a4,a5,16
    5f90:	c709                	beqz	a4,5f9a <_svfiprintf_r+0xfa>
    5f92:	02000713          	li	a4,32
    5f96:	06e101a3          	sb	a4,99(sp)
    5f9a:	0087f713          	andi	a4,a5,8
    5f9e:	c709                	beqz	a4,5fa8 <_svfiprintf_r+0x108>
    5fa0:	02b00713          	li	a4,43
    5fa4:	06e101a3          	sb	a4,99(sp)
    5fa8:	0004c683          	lbu	a3,0(s1)
    5fac:	02a00713          	li	a4,42
    5fb0:	02e68b63          	beq	a3,a4,5fe6 <_svfiprintf_r+0x146>
    5fb4:	57b2                	lw	a5,44(sp)
    5fb6:	8426                	mv	s0,s1
    5fb8:	4681                	li	a3,0
    5fba:	4625                	li	a2,9
    5fbc:	00044703          	lbu	a4,0(s0)
    5fc0:	00140593          	addi	a1,s0,1
    5fc4:	fd070713          	addi	a4,a4,-48 # ffefffd0 <_eusrstack+0xdfefafd0>
    5fc8:	06e67463          	bgeu	a2,a4,6030 <_svfiprintf_r+0x190>
    5fcc:	c68d                	beqz	a3,5ff6 <_svfiprintf_r+0x156>
    5fce:	d63e                	sw	a5,44(sp)
    5fd0:	a01d                	j	5ff6 <_svfiprintf_r+0x156>
    5fd2:	0405                	addi	s0,s0,1
    5fd4:	bfb9                	j	5f32 <_svfiprintf_r+0x92>
    5fd6:	41550533          	sub	a0,a0,s5
    5fda:	00ac1533          	sll	a0,s8,a0
    5fde:	8fc9                	or	a5,a5,a0
    5fe0:	d03e                	sw	a5,32(sp)
    5fe2:	84a2                	mv	s1,s0
    5fe4:	bf51                	j	5f78 <_svfiprintf_r+0xd8>
    5fe6:	4772                	lw	a4,28(sp)
    5fe8:	00470693          	addi	a3,a4,4
    5fec:	4318                	lw	a4,0(a4)
    5fee:	ce36                	sw	a3,28(sp)
    5ff0:	02074963          	bltz	a4,6022 <_svfiprintf_r+0x182>
    5ff4:	d63a                	sw	a4,44(sp)
    5ff6:	00044703          	lbu	a4,0(s0)
    5ffa:	02e00793          	li	a5,46
    5ffe:	04f71f63          	bne	a4,a5,605c <_svfiprintf_r+0x1bc>
    6002:	00144703          	lbu	a4,1(s0)
    6006:	02a00793          	li	a5,42
    600a:	02f71b63          	bne	a4,a5,6040 <_svfiprintf_r+0x1a0>
    600e:	47f2                	lw	a5,28(sp)
    6010:	0409                	addi	s0,s0,2
    6012:	00478713          	addi	a4,a5,4 # 80000004 <_eusrstack+0x5fffb004>
    6016:	439c                	lw	a5,0(a5)
    6018:	ce3a                	sw	a4,28(sp)
    601a:	0207c163          	bltz	a5,603c <_svfiprintf_r+0x19c>
    601e:	d23e                	sw	a5,36(sp)
    6020:	a835                	j	605c <_svfiprintf_r+0x1bc>
    6022:	40e00733          	neg	a4,a4
    6026:	0027e793          	ori	a5,a5,2
    602a:	d63a                	sw	a4,44(sp)
    602c:	d03e                	sw	a5,32(sp)
    602e:	b7e1                	j	5ff6 <_svfiprintf_r+0x156>
    6030:	036787b3          	mul	a5,a5,s6
    6034:	4685                	li	a3,1
    6036:	842e                	mv	s0,a1
    6038:	97ba                	add	a5,a5,a4
    603a:	b749                	j	5fbc <_svfiprintf_r+0x11c>
    603c:	57fd                	li	a5,-1
    603e:	b7c5                	j	601e <_svfiprintf_r+0x17e>
    6040:	0405                	addi	s0,s0,1
    6042:	d202                	sw	zero,36(sp)
    6044:	4681                	li	a3,0
    6046:	4781                	li	a5,0
    6048:	4625                	li	a2,9
    604a:	00044703          	lbu	a4,0(s0)
    604e:	00140593          	addi	a1,s0,1
    6052:	fd070713          	addi	a4,a4,-48
    6056:	06e67863          	bgeu	a2,a4,60c6 <_svfiprintf_r+0x226>
    605a:	f2f1                	bnez	a3,601e <_svfiprintf_r+0x17e>
    605c:	00044583          	lbu	a1,0(s0)
    6060:	460d                	li	a2,3
    6062:	00003517          	auipc	a0,0x3
    6066:	84250513          	addi	a0,a0,-1982 # 88a4 <p05.3319+0x14>
    606a:	94aff0ef          	jal	ra,51b4 <memchr>
    606e:	cd11                	beqz	a0,608a <_svfiprintf_r+0x1ea>
    6070:	00003797          	auipc	a5,0x3
    6074:	83478793          	addi	a5,a5,-1996 # 88a4 <p05.3319+0x14>
    6078:	8d1d                	sub	a0,a0,a5
    607a:	04000793          	li	a5,64
    607e:	00a797b3          	sll	a5,a5,a0
    6082:	5502                	lw	a0,32(sp)
    6084:	0405                	addi	s0,s0,1
    6086:	8d5d                	or	a0,a0,a5
    6088:	d02a                	sw	a0,32(sp)
    608a:	00044583          	lbu	a1,0(s0)
    608e:	4619                	li	a2,6
    6090:	00003517          	auipc	a0,0x3
    6094:	81850513          	addi	a0,a0,-2024 # 88a8 <p05.3319+0x18>
    6098:	00140493          	addi	s1,s0,1
    609c:	02b10c23          	sb	a1,56(sp)
    60a0:	914ff0ef          	jal	ra,51b4 <memchr>
    60a4:	c135                	beqz	a0,6108 <_svfiprintf_r+0x268>
    60a6:	ffffc797          	auipc	a5,0xffffc
    60aa:	8ba78793          	addi	a5,a5,-1862 # 1960 <_printf_float>
    60ae:	e795                	bnez	a5,60da <_svfiprintf_r+0x23a>
    60b0:	5702                	lw	a4,32(sp)
    60b2:	47f2                	lw	a5,28(sp)
    60b4:	10077713          	andi	a4,a4,256
    60b8:	cf09                	beqz	a4,60d2 <_svfiprintf_r+0x232>
    60ba:	0791                	addi	a5,a5,4
    60bc:	ce3e                	sw	a5,28(sp)
    60be:	57d2                	lw	a5,52(sp)
    60c0:	97d2                	add	a5,a5,s4
    60c2:	da3e                	sw	a5,52(sp)
    60c4:	b5b5                	j	5f30 <_svfiprintf_r+0x90>
    60c6:	036787b3          	mul	a5,a5,s6
    60ca:	4685                	li	a3,1
    60cc:	842e                	mv	s0,a1
    60ce:	97ba                	add	a5,a5,a4
    60d0:	bfad                	j	604a <_svfiprintf_r+0x1aa>
    60d2:	079d                	addi	a5,a5,7
    60d4:	9be1                	andi	a5,a5,-8
    60d6:	07a1                	addi	a5,a5,8
    60d8:	b7d5                	j	60bc <_svfiprintf_r+0x21c>
    60da:	0878                	addi	a4,sp,28
    60dc:	00000697          	auipc	a3,0x0
    60e0:	cd668693          	addi	a3,a3,-810 # 5db2 <__ssputs_r>
    60e4:	864a                	mv	a2,s2
    60e6:	100c                	addi	a1,sp,32
    60e8:	854e                	mv	a0,s3
    60ea:	877fb0ef          	jal	ra,1960 <_printf_float>
    60ee:	57fd                	li	a5,-1
    60f0:	8a2a                	mv	s4,a0
    60f2:	fcf516e3          	bne	a0,a5,60be <_svfiprintf_r+0x21e>
    60f6:	00c95783          	lhu	a5,12(s2)
    60fa:	557d                	li	a0,-1
    60fc:	0407f793          	andi	a5,a5,64
    6100:	de0795e3          	bnez	a5,5eea <_svfiprintf_r+0x4a>
    6104:	5552                	lw	a0,52(sp)
    6106:	b3d5                	j	5eea <_svfiprintf_r+0x4a>
    6108:	0878                	addi	a4,sp,28
    610a:	00000697          	auipc	a3,0x0
    610e:	ca868693          	addi	a3,a3,-856 # 5db2 <__ssputs_r>
    6112:	864a                	mv	a2,s2
    6114:	100c                	addi	a1,sp,32
    6116:	854e                	mv	a0,s3
    6118:	e15fb0ef          	jal	ra,1f2c <_printf_i>
    611c:	bfc9                	j	60ee <_svfiprintf_r+0x24e>

0000611e <__sfputc_r>:
    611e:	461c                	lw	a5,8(a2)
    6120:	17fd                	addi	a5,a5,-1
    6122:	c61c                	sw	a5,8(a2)
    6124:	0007da63          	bgez	a5,6138 <__sfputc_r+0x1a>
    6128:	4e18                	lw	a4,24(a2)
    612a:	00e7c563          	blt	a5,a4,6134 <__sfputc_r+0x16>
    612e:	47a9                	li	a5,10
    6130:	00f59463          	bne	a1,a5,6138 <__sfputc_r+0x1a>
    6134:	ce4fd06f          	j	3618 <__swbuf_r>
    6138:	421c                	lw	a5,0(a2)
    613a:	852e                	mv	a0,a1
    613c:	00178713          	addi	a4,a5,1
    6140:	c218                	sw	a4,0(a2)
    6142:	00b78023          	sb	a1,0(a5)
    6146:	8082                	ret

00006148 <__sfputs_r>:
    6148:	1101                	addi	sp,sp,-32
    614a:	cc22                	sw	s0,24(sp)
    614c:	ca26                	sw	s1,20(sp)
    614e:	c84a                	sw	s2,16(sp)
    6150:	c64e                	sw	s3,12(sp)
    6152:	c452                	sw	s4,8(sp)
    6154:	ce06                	sw	ra,28(sp)
    6156:	892a                	mv	s2,a0
    6158:	89ae                	mv	s3,a1
    615a:	8432                	mv	s0,a2
    615c:	00d604b3          	add	s1,a2,a3
    6160:	5a7d                	li	s4,-1
    6162:	00941463          	bne	s0,s1,616a <__sfputs_r+0x22>
    6166:	4501                	li	a0,0
    6168:	a811                	j	617c <__sfputs_r+0x34>
    616a:	00044583          	lbu	a1,0(s0)
    616e:	864e                	mv	a2,s3
    6170:	854a                	mv	a0,s2
    6172:	fadff0ef          	jal	ra,611e <__sfputc_r>
    6176:	0405                	addi	s0,s0,1
    6178:	ff4515e3          	bne	a0,s4,6162 <__sfputs_r+0x1a>
    617c:	40f2                	lw	ra,28(sp)
    617e:	4462                	lw	s0,24(sp)
    6180:	44d2                	lw	s1,20(sp)
    6182:	4942                	lw	s2,16(sp)
    6184:	49b2                	lw	s3,12(sp)
    6186:	4a22                	lw	s4,8(sp)
    6188:	6105                	addi	sp,sp,32
    618a:	8082                	ret

0000618c <_vfiprintf_r>:
    618c:	7135                	addi	sp,sp,-160
    618e:	cd22                	sw	s0,152(sp)
    6190:	cb26                	sw	s1,148(sp)
    6192:	c94a                	sw	s2,144(sp)
    6194:	c74e                	sw	s3,140(sp)
    6196:	cf06                	sw	ra,156(sp)
    6198:	c552                	sw	s4,136(sp)
    619a:	c356                	sw	s5,132(sp)
    619c:	c15a                	sw	s6,128(sp)
    619e:	dede                	sw	s7,124(sp)
    61a0:	dce2                	sw	s8,120(sp)
    61a2:	dae6                	sw	s9,116(sp)
    61a4:	89aa                	mv	s3,a0
    61a6:	84ae                	mv	s1,a1
    61a8:	8932                	mv	s2,a2
    61aa:	8436                	mv	s0,a3
    61ac:	c509                	beqz	a0,61b6 <_vfiprintf_r+0x2a>
    61ae:	4d1c                	lw	a5,24(a0)
    61b0:	e399                	bnez	a5,61b6 <_vfiprintf_r+0x2a>
    61b2:	df8fe0ef          	jal	ra,47aa <__sinit>
    61b6:	00002797          	auipc	a5,0x2
    61ba:	59a78793          	addi	a5,a5,1434 # 8750 <__sf_fake_stdin>
    61be:	0cf49d63          	bne	s1,a5,6298 <_vfiprintf_r+0x10c>
    61c2:	0049a483          	lw	s1,4(s3)
    61c6:	00c4d783          	lhu	a5,12(s1)
    61ca:	8ba1                	andi	a5,a5,8
    61cc:	cbe5                	beqz	a5,62bc <_vfiprintf_r+0x130>
    61ce:	489c                	lw	a5,16(s1)
    61d0:	c7f5                	beqz	a5,62bc <_vfiprintf_r+0x130>
    61d2:	02000793          	li	a5,32
    61d6:	02f104a3          	sb	a5,41(sp)
    61da:	03000793          	li	a5,48
    61de:	d202                	sw	zero,36(sp)
    61e0:	02f10523          	sb	a5,42(sp)
    61e4:	c622                	sw	s0,12(sp)
    61e6:	02500b93          	li	s7,37
    61ea:	00002a97          	auipc	s5,0x2
    61ee:	6b2a8a93          	addi	s5,s5,1714 # 889c <p05.3319+0xc>
    61f2:	4c05                	li	s8,1
    61f4:	4b29                	li	s6,10
    61f6:	844a                	mv	s0,s2
    61f8:	00044783          	lbu	a5,0(s0)
    61fc:	c399                	beqz	a5,6202 <_vfiprintf_r+0x76>
    61fe:	0f779263          	bne	a5,s7,62e2 <_vfiprintf_r+0x156>
    6202:	41240cb3          	sub	s9,s0,s2
    6206:	000c8e63          	beqz	s9,6222 <_vfiprintf_r+0x96>
    620a:	86e6                	mv	a3,s9
    620c:	864a                	mv	a2,s2
    620e:	85a6                	mv	a1,s1
    6210:	854e                	mv	a0,s3
    6212:	f37ff0ef          	jal	ra,6148 <__sfputs_r>
    6216:	57fd                	li	a5,-1
    6218:	1ef50763          	beq	a0,a5,6406 <_vfiprintf_r+0x27a>
    621c:	5692                	lw	a3,36(sp)
    621e:	96e6                	add	a3,a3,s9
    6220:	d236                	sw	a3,36(sp)
    6222:	00044783          	lbu	a5,0(s0)
    6226:	1e078063          	beqz	a5,6406 <_vfiprintf_r+0x27a>
    622a:	57fd                	li	a5,-1
    622c:	00140913          	addi	s2,s0,1
    6230:	c802                	sw	zero,16(sp)
    6232:	ce02                	sw	zero,28(sp)
    6234:	ca3e                	sw	a5,20(sp)
    6236:	cc02                	sw	zero,24(sp)
    6238:	040109a3          	sb	zero,83(sp)
    623c:	d482                	sw	zero,104(sp)
    623e:	00094583          	lbu	a1,0(s2)
    6242:	4615                	li	a2,5
    6244:	8556                	mv	a0,s5
    6246:	f6ffe0ef          	jal	ra,51b4 <memchr>
    624a:	00190413          	addi	s0,s2,1
    624e:	47c2                	lw	a5,16(sp)
    6250:	e959                	bnez	a0,62e6 <_vfiprintf_r+0x15a>
    6252:	0107f713          	andi	a4,a5,16
    6256:	c709                	beqz	a4,6260 <_vfiprintf_r+0xd4>
    6258:	02000713          	li	a4,32
    625c:	04e109a3          	sb	a4,83(sp)
    6260:	0087f713          	andi	a4,a5,8
    6264:	c709                	beqz	a4,626e <_vfiprintf_r+0xe2>
    6266:	02b00713          	li	a4,43
    626a:	04e109a3          	sb	a4,83(sp)
    626e:	00094683          	lbu	a3,0(s2)
    6272:	02a00713          	li	a4,42
    6276:	08e68063          	beq	a3,a4,62f6 <_vfiprintf_r+0x16a>
    627a:	47f2                	lw	a5,28(sp)
    627c:	844a                	mv	s0,s2
    627e:	4681                	li	a3,0
    6280:	4625                	li	a2,9
    6282:	00044703          	lbu	a4,0(s0)
    6286:	00140593          	addi	a1,s0,1
    628a:	fd070713          	addi	a4,a4,-48
    628e:	0ae67963          	bgeu	a2,a4,6340 <_vfiprintf_r+0x1b4>
    6292:	cab5                	beqz	a3,6306 <_vfiprintf_r+0x17a>
    6294:	ce3e                	sw	a5,28(sp)
    6296:	a885                	j	6306 <_vfiprintf_r+0x17a>
    6298:	00002797          	auipc	a5,0x2
    629c:	4d878793          	addi	a5,a5,1240 # 8770 <__sf_fake_stdout>
    62a0:	00f49563          	bne	s1,a5,62aa <_vfiprintf_r+0x11e>
    62a4:	0089a483          	lw	s1,8(s3)
    62a8:	bf39                	j	61c6 <_vfiprintf_r+0x3a>
    62aa:	00002797          	auipc	a5,0x2
    62ae:	48678793          	addi	a5,a5,1158 # 8730 <__sf_fake_stderr>
    62b2:	f0f49ae3          	bne	s1,a5,61c6 <_vfiprintf_r+0x3a>
    62b6:	00c9a483          	lw	s1,12(s3)
    62ba:	b731                	j	61c6 <_vfiprintf_r+0x3a>
    62bc:	85a6                	mv	a1,s1
    62be:	854e                	mv	a0,s3
    62c0:	c1efd0ef          	jal	ra,36de <__swsetup_r>
    62c4:	d519                	beqz	a0,61d2 <_vfiprintf_r+0x46>
    62c6:	557d                	li	a0,-1
    62c8:	40fa                	lw	ra,156(sp)
    62ca:	446a                	lw	s0,152(sp)
    62cc:	44da                	lw	s1,148(sp)
    62ce:	494a                	lw	s2,144(sp)
    62d0:	49ba                	lw	s3,140(sp)
    62d2:	4a2a                	lw	s4,136(sp)
    62d4:	4a9a                	lw	s5,132(sp)
    62d6:	4b0a                	lw	s6,128(sp)
    62d8:	5bf6                	lw	s7,124(sp)
    62da:	5c66                	lw	s8,120(sp)
    62dc:	5cd6                	lw	s9,116(sp)
    62de:	610d                	addi	sp,sp,160
    62e0:	8082                	ret
    62e2:	0405                	addi	s0,s0,1
    62e4:	bf11                	j	61f8 <_vfiprintf_r+0x6c>
    62e6:	41550533          	sub	a0,a0,s5
    62ea:	00ac1533          	sll	a0,s8,a0
    62ee:	8fc9                	or	a5,a5,a0
    62f0:	c83e                	sw	a5,16(sp)
    62f2:	8922                	mv	s2,s0
    62f4:	b7a9                	j	623e <_vfiprintf_r+0xb2>
    62f6:	4732                	lw	a4,12(sp)
    62f8:	00470693          	addi	a3,a4,4
    62fc:	4318                	lw	a4,0(a4)
    62fe:	c636                	sw	a3,12(sp)
    6300:	02074963          	bltz	a4,6332 <_vfiprintf_r+0x1a6>
    6304:	ce3a                	sw	a4,28(sp)
    6306:	00044703          	lbu	a4,0(s0)
    630a:	02e00793          	li	a5,46
    630e:	04f71f63          	bne	a4,a5,636c <_vfiprintf_r+0x1e0>
    6312:	00144703          	lbu	a4,1(s0)
    6316:	02a00793          	li	a5,42
    631a:	02f71b63          	bne	a4,a5,6350 <_vfiprintf_r+0x1c4>
    631e:	47b2                	lw	a5,12(sp)
    6320:	0409                	addi	s0,s0,2
    6322:	00478713          	addi	a4,a5,4
    6326:	439c                	lw	a5,0(a5)
    6328:	c63a                	sw	a4,12(sp)
    632a:	0207c163          	bltz	a5,634c <_vfiprintf_r+0x1c0>
    632e:	ca3e                	sw	a5,20(sp)
    6330:	a835                	j	636c <_vfiprintf_r+0x1e0>
    6332:	40e00733          	neg	a4,a4
    6336:	0027e793          	ori	a5,a5,2
    633a:	ce3a                	sw	a4,28(sp)
    633c:	c83e                	sw	a5,16(sp)
    633e:	b7e1                	j	6306 <_vfiprintf_r+0x17a>
    6340:	036787b3          	mul	a5,a5,s6
    6344:	4685                	li	a3,1
    6346:	842e                	mv	s0,a1
    6348:	97ba                	add	a5,a5,a4
    634a:	bf25                	j	6282 <_vfiprintf_r+0xf6>
    634c:	57fd                	li	a5,-1
    634e:	b7c5                	j	632e <_vfiprintf_r+0x1a2>
    6350:	0405                	addi	s0,s0,1
    6352:	ca02                	sw	zero,20(sp)
    6354:	4681                	li	a3,0
    6356:	4781                	li	a5,0
    6358:	4625                	li	a2,9
    635a:	00044703          	lbu	a4,0(s0)
    635e:	00140593          	addi	a1,s0,1
    6362:	fd070713          	addi	a4,a4,-48
    6366:	06e67863          	bgeu	a2,a4,63d6 <_vfiprintf_r+0x24a>
    636a:	f2f1                	bnez	a3,632e <_vfiprintf_r+0x1a2>
    636c:	00044583          	lbu	a1,0(s0)
    6370:	460d                	li	a2,3
    6372:	00002517          	auipc	a0,0x2
    6376:	53250513          	addi	a0,a0,1330 # 88a4 <p05.3319+0x14>
    637a:	e3bfe0ef          	jal	ra,51b4 <memchr>
    637e:	cd11                	beqz	a0,639a <_vfiprintf_r+0x20e>
    6380:	00002797          	auipc	a5,0x2
    6384:	52478793          	addi	a5,a5,1316 # 88a4 <p05.3319+0x14>
    6388:	8d1d                	sub	a0,a0,a5
    638a:	04000793          	li	a5,64
    638e:	00a797b3          	sll	a5,a5,a0
    6392:	4542                	lw	a0,16(sp)
    6394:	0405                	addi	s0,s0,1
    6396:	8d5d                	or	a0,a0,a5
    6398:	c82a                	sw	a0,16(sp)
    639a:	00044583          	lbu	a1,0(s0)
    639e:	4619                	li	a2,6
    63a0:	00002517          	auipc	a0,0x2
    63a4:	50850513          	addi	a0,a0,1288 # 88a8 <p05.3319+0x18>
    63a8:	00140913          	addi	s2,s0,1
    63ac:	02b10423          	sb	a1,40(sp)
    63b0:	e05fe0ef          	jal	ra,51b4 <memchr>
    63b4:	c12d                	beqz	a0,6416 <_vfiprintf_r+0x28a>
    63b6:	ffffb797          	auipc	a5,0xffffb
    63ba:	5aa78793          	addi	a5,a5,1450 # 1960 <_printf_float>
    63be:	e795                	bnez	a5,63ea <_vfiprintf_r+0x25e>
    63c0:	4742                	lw	a4,16(sp)
    63c2:	47b2                	lw	a5,12(sp)
    63c4:	10077713          	andi	a4,a4,256
    63c8:	cf09                	beqz	a4,63e2 <_vfiprintf_r+0x256>
    63ca:	0791                	addi	a5,a5,4
    63cc:	c63e                	sw	a5,12(sp)
    63ce:	5792                	lw	a5,36(sp)
    63d0:	97d2                	add	a5,a5,s4
    63d2:	d23e                	sw	a5,36(sp)
    63d4:	b50d                	j	61f6 <_vfiprintf_r+0x6a>
    63d6:	036787b3          	mul	a5,a5,s6
    63da:	4685                	li	a3,1
    63dc:	842e                	mv	s0,a1
    63de:	97ba                	add	a5,a5,a4
    63e0:	bfad                	j	635a <_vfiprintf_r+0x1ce>
    63e2:	079d                	addi	a5,a5,7
    63e4:	9be1                	andi	a5,a5,-8
    63e6:	07a1                	addi	a5,a5,8
    63e8:	b7d5                	j	63cc <_vfiprintf_r+0x240>
    63ea:	0078                	addi	a4,sp,12
    63ec:	00000697          	auipc	a3,0x0
    63f0:	d5c68693          	addi	a3,a3,-676 # 6148 <__sfputs_r>
    63f4:	8626                	mv	a2,s1
    63f6:	080c                	addi	a1,sp,16
    63f8:	854e                	mv	a0,s3
    63fa:	d66fb0ef          	jal	ra,1960 <_printf_float>
    63fe:	57fd                	li	a5,-1
    6400:	8a2a                	mv	s4,a0
    6402:	fcf516e3          	bne	a0,a5,63ce <_vfiprintf_r+0x242>
    6406:	00c4d783          	lhu	a5,12(s1)
    640a:	0407f793          	andi	a5,a5,64
    640e:	ea079ce3          	bnez	a5,62c6 <_vfiprintf_r+0x13a>
    6412:	5512                	lw	a0,36(sp)
    6414:	bd55                	j	62c8 <_vfiprintf_r+0x13c>
    6416:	0078                	addi	a4,sp,12
    6418:	00000697          	auipc	a3,0x0
    641c:	d3068693          	addi	a3,a3,-720 # 6148 <__sfputs_r>
    6420:	8626                	mv	a2,s1
    6422:	080c                	addi	a1,sp,16
    6424:	854e                	mv	a0,s3
    6426:	b07fb0ef          	jal	ra,1f2c <_printf_i>
    642a:	bfd1                	j	63fe <_vfiprintf_r+0x272>

0000642c <_sbrk_r>:
    642c:	1141                	addi	sp,sp,-16
    642e:	c422                	sw	s0,8(sp)
    6430:	842a                	mv	s0,a0
    6432:	852e                	mv	a0,a1
    6434:	8201aa23          	sw	zero,-1996(gp) # 20000224 <errno>
    6438:	c606                	sw	ra,12(sp)
    643a:	f0bf90ef          	jal	ra,344 <_sbrk>
    643e:	57fd                	li	a5,-1
    6440:	00f51763          	bne	a0,a5,644e <_sbrk_r+0x22>
    6444:	83418793          	addi	a5,gp,-1996 # 20000224 <errno>
    6448:	439c                	lw	a5,0(a5)
    644a:	c391                	beqz	a5,644e <_sbrk_r+0x22>
    644c:	c01c                	sw	a5,0(s0)
    644e:	40b2                	lw	ra,12(sp)
    6450:	4422                	lw	s0,8(sp)
    6452:	0141                	addi	sp,sp,16
    6454:	8082                	ret

00006456 <__sread>:
    6456:	1141                	addi	sp,sp,-16
    6458:	c422                	sw	s0,8(sp)
    645a:	842e                	mv	s0,a1
    645c:	00e59583          	lh	a1,14(a1)
    6460:	c606                	sw	ra,12(sp)
    6462:	2cb5                	jal	66de <_read_r>
    6464:	00054963          	bltz	a0,6476 <__sread+0x20>
    6468:	487c                	lw	a5,84(s0)
    646a:	97aa                	add	a5,a5,a0
    646c:	c87c                	sw	a5,84(s0)
    646e:	40b2                	lw	ra,12(sp)
    6470:	4422                	lw	s0,8(sp)
    6472:	0141                	addi	sp,sp,16
    6474:	8082                	ret
    6476:	00c45783          	lhu	a5,12(s0)
    647a:	777d                	lui	a4,0xfffff
    647c:	177d                	addi	a4,a4,-1
    647e:	8ff9                	and	a5,a5,a4
    6480:	00f41623          	sh	a5,12(s0)
    6484:	b7ed                	j	646e <__sread+0x18>

00006486 <__swrite>:
    6486:	00c5d783          	lhu	a5,12(a1)
    648a:	1101                	addi	sp,sp,-32
    648c:	cc22                	sw	s0,24(sp)
    648e:	ca26                	sw	s1,20(sp)
    6490:	c84a                	sw	s2,16(sp)
    6492:	c64e                	sw	s3,12(sp)
    6494:	ce06                	sw	ra,28(sp)
    6496:	1007f793          	andi	a5,a5,256
    649a:	84aa                	mv	s1,a0
    649c:	842e                	mv	s0,a1
    649e:	8932                	mv	s2,a2
    64a0:	89b6                	mv	s3,a3
    64a2:	c791                	beqz	a5,64ae <__swrite+0x28>
    64a4:	00e59583          	lh	a1,14(a1)
    64a8:	4689                	li	a3,2
    64aa:	4601                	li	a2,0
    64ac:	2ab9                	jal	660a <_lseek_r>
    64ae:	00c45783          	lhu	a5,12(s0)
    64b2:	777d                	lui	a4,0xfffff
    64b4:	177d                	addi	a4,a4,-1
    64b6:	8ff9                	and	a5,a5,a4
    64b8:	00f41623          	sh	a5,12(s0)
    64bc:	00e41583          	lh	a1,14(s0)
    64c0:	4462                	lw	s0,24(sp)
    64c2:	40f2                	lw	ra,28(sp)
    64c4:	86ce                	mv	a3,s3
    64c6:	864a                	mv	a2,s2
    64c8:	49b2                	lw	s3,12(sp)
    64ca:	4942                	lw	s2,16(sp)
    64cc:	8526                	mv	a0,s1
    64ce:	44d2                	lw	s1,20(sp)
    64d0:	6105                	addi	sp,sp,32
    64d2:	a069                	j	655c <_write_r>

000064d4 <__sseek>:
    64d4:	1141                	addi	sp,sp,-16
    64d6:	c422                	sw	s0,8(sp)
    64d8:	842e                	mv	s0,a1
    64da:	00e59583          	lh	a1,14(a1)
    64de:	c606                	sw	ra,12(sp)
    64e0:	222d                	jal	660a <_lseek_r>
    64e2:	57fd                	li	a5,-1
    64e4:	00c45703          	lhu	a4,12(s0)
    64e8:	00f51b63          	bne	a0,a5,64fe <__sseek+0x2a>
    64ec:	77fd                	lui	a5,0xfffff
    64ee:	17fd                	addi	a5,a5,-1
    64f0:	8ff9                	and	a5,a5,a4
    64f2:	00f41623          	sh	a5,12(s0)
    64f6:	40b2                	lw	ra,12(sp)
    64f8:	4422                	lw	s0,8(sp)
    64fa:	0141                	addi	sp,sp,16
    64fc:	8082                	ret
    64fe:	6785                	lui	a5,0x1
    6500:	8fd9                	or	a5,a5,a4
    6502:	00f41623          	sh	a5,12(s0)
    6506:	c868                	sw	a0,84(s0)
    6508:	b7fd                	j	64f6 <__sseek+0x22>

0000650a <__sclose>:
    650a:	00e59583          	lh	a1,14(a1)
    650e:	a8b5                	j	658a <_close_r>

00006510 <strncmp>:
    6510:	c605                	beqz	a2,6538 <strncmp+0x28>
    6512:	167d                	addi	a2,a2,-1
    6514:	4701                	li	a4,0
    6516:	00e507b3          	add	a5,a0,a4
    651a:	00e586b3          	add	a3,a1,a4
    651e:	0007c783          	lbu	a5,0(a5) # 1000 <main+0x80>
    6522:	0006c683          	lbu	a3,0(a3)
    6526:	00d79663          	bne	a5,a3,6532 <strncmp+0x22>
    652a:	00c70463          	beq	a4,a2,6532 <strncmp+0x22>
    652e:	0705                	addi	a4,a4,1
    6530:	f3fd                	bnez	a5,6516 <strncmp+0x6>
    6532:	40d78533          	sub	a0,a5,a3
    6536:	8082                	ret
    6538:	4501                	li	a0,0
    653a:	8082                	ret

0000653c <__ascii_wctomb>:
    653c:	cd91                	beqz	a1,6558 <__ascii_wctomb+0x1c>
    653e:	0ff00793          	li	a5,255
    6542:	00c7f763          	bgeu	a5,a2,6550 <__ascii_wctomb+0x14>
    6546:	08a00793          	li	a5,138
    654a:	c11c                	sw	a5,0(a0)
    654c:	557d                	li	a0,-1
    654e:	8082                	ret
    6550:	00c58023          	sb	a2,0(a1)
    6554:	4505                	li	a0,1
    6556:	8082                	ret
    6558:	4501                	li	a0,0
    655a:	8082                	ret

0000655c <_write_r>:
    655c:	1141                	addi	sp,sp,-16
    655e:	c422                	sw	s0,8(sp)
    6560:	842a                	mv	s0,a0
    6562:	852e                	mv	a0,a1
    6564:	85b2                	mv	a1,a2
    6566:	8636                	mv	a2,a3
    6568:	8201aa23          	sw	zero,-1996(gp) # 20000224 <errno>
    656c:	c606                	sw	ra,12(sp)
    656e:	d93f90ef          	jal	ra,300 <_write>
    6572:	57fd                	li	a5,-1
    6574:	00f51763          	bne	a0,a5,6582 <_write_r+0x26>
    6578:	83418793          	addi	a5,gp,-1996 # 20000224 <errno>
    657c:	439c                	lw	a5,0(a5)
    657e:	c391                	beqz	a5,6582 <_write_r+0x26>
    6580:	c01c                	sw	a5,0(s0)
    6582:	40b2                	lw	ra,12(sp)
    6584:	4422                	lw	s0,8(sp)
    6586:	0141                	addi	sp,sp,16
    6588:	8082                	ret

0000658a <_close_r>:
    658a:	1141                	addi	sp,sp,-16
    658c:	c422                	sw	s0,8(sp)
    658e:	842a                	mv	s0,a0
    6590:	852e                	mv	a0,a1
    6592:	8201aa23          	sw	zero,-1996(gp) # 20000224 <errno>
    6596:	c606                	sw	ra,12(sp)
    6598:	60d010ef          	jal	ra,83a4 <_close>
    659c:	57fd                	li	a5,-1
    659e:	00f51763          	bne	a0,a5,65ac <_close_r+0x22>
    65a2:	83418793          	addi	a5,gp,-1996 # 20000224 <errno>
    65a6:	439c                	lw	a5,0(a5)
    65a8:	c391                	beqz	a5,65ac <_close_r+0x22>
    65aa:	c01c                	sw	a5,0(s0)
    65ac:	40b2                	lw	ra,12(sp)
    65ae:	4422                	lw	s0,8(sp)
    65b0:	0141                	addi	sp,sp,16
    65b2:	8082                	ret

000065b4 <_fstat_r>:
    65b4:	1141                	addi	sp,sp,-16
    65b6:	c422                	sw	s0,8(sp)
    65b8:	842a                	mv	s0,a0
    65ba:	852e                	mv	a0,a1
    65bc:	85b2                	mv	a1,a2
    65be:	8201aa23          	sw	zero,-1996(gp) # 20000224 <errno>
    65c2:	c606                	sw	ra,12(sp)
    65c4:	5ed010ef          	jal	ra,83b0 <_fstat>
    65c8:	57fd                	li	a5,-1
    65ca:	00f51763          	bne	a0,a5,65d8 <_fstat_r+0x24>
    65ce:	83418793          	addi	a5,gp,-1996 # 20000224 <errno>
    65d2:	439c                	lw	a5,0(a5)
    65d4:	c391                	beqz	a5,65d8 <_fstat_r+0x24>
    65d6:	c01c                	sw	a5,0(s0)
    65d8:	40b2                	lw	ra,12(sp)
    65da:	4422                	lw	s0,8(sp)
    65dc:	0141                	addi	sp,sp,16
    65de:	8082                	ret

000065e0 <_isatty_r>:
    65e0:	1141                	addi	sp,sp,-16
    65e2:	c422                	sw	s0,8(sp)
    65e4:	842a                	mv	s0,a0
    65e6:	852e                	mv	a0,a1
    65e8:	8201aa23          	sw	zero,-1996(gp) # 20000224 <errno>
    65ec:	c606                	sw	ra,12(sp)
    65ee:	5cf010ef          	jal	ra,83bc <_isatty>
    65f2:	57fd                	li	a5,-1
    65f4:	00f51763          	bne	a0,a5,6602 <_isatty_r+0x22>
    65f8:	83418793          	addi	a5,gp,-1996 # 20000224 <errno>
    65fc:	439c                	lw	a5,0(a5)
    65fe:	c391                	beqz	a5,6602 <_isatty_r+0x22>
    6600:	c01c                	sw	a5,0(s0)
    6602:	40b2                	lw	ra,12(sp)
    6604:	4422                	lw	s0,8(sp)
    6606:	0141                	addi	sp,sp,16
    6608:	8082                	ret

0000660a <_lseek_r>:
    660a:	1141                	addi	sp,sp,-16
    660c:	c422                	sw	s0,8(sp)
    660e:	842a                	mv	s0,a0
    6610:	852e                	mv	a0,a1
    6612:	85b2                	mv	a1,a2
    6614:	8636                	mv	a2,a3
    6616:	8201aa23          	sw	zero,-1996(gp) # 20000224 <errno>
    661a:	c606                	sw	ra,12(sp)
    661c:	5ad010ef          	jal	ra,83c8 <_lseek>
    6620:	57fd                	li	a5,-1
    6622:	00f51763          	bne	a0,a5,6630 <_lseek_r+0x26>
    6626:	83418793          	addi	a5,gp,-1996 # 20000224 <errno>
    662a:	439c                	lw	a5,0(a5)
    662c:	c391                	beqz	a5,6630 <_lseek_r+0x26>
    662e:	c01c                	sw	a5,0(s0)
    6630:	40b2                	lw	ra,12(sp)
    6632:	4422                	lw	s0,8(sp)
    6634:	0141                	addi	sp,sp,16
    6636:	8082                	ret

00006638 <memmove>:
    6638:	04a5f363          	bgeu	a1,a0,667e <memmove+0x46>
    663c:	00c586b3          	add	a3,a1,a2
    6640:	02d57f63          	bgeu	a0,a3,667e <memmove+0x46>
    6644:	fff64593          	not	a1,a2
    6648:	4781                	li	a5,0
    664a:	17fd                	addi	a5,a5,-1
    664c:	00f59363          	bne	a1,a5,6652 <memmove+0x1a>
    6650:	8082                	ret
    6652:	00f68733          	add	a4,a3,a5
    6656:	00074803          	lbu	a6,0(a4) # fffff000 <_eusrstack+0xdfffa000>
    665a:	00c78733          	add	a4,a5,a2
    665e:	972a                	add	a4,a4,a0
    6660:	01070023          	sb	a6,0(a4)
    6664:	b7dd                	j	664a <memmove+0x12>
    6666:	00f58733          	add	a4,a1,a5
    666a:	00074683          	lbu	a3,0(a4)
    666e:	00f50733          	add	a4,a0,a5
    6672:	0785                	addi	a5,a5,1
    6674:	00d70023          	sb	a3,0(a4)
    6678:	fef617e3          	bne	a2,a5,6666 <memmove+0x2e>
    667c:	8082                	ret
    667e:	4781                	li	a5,0
    6680:	bfe5                	j	6678 <memmove+0x40>

00006682 <__malloc_lock>:
    6682:	8082                	ret

00006684 <__malloc_unlock>:
    6684:	8082                	ret

00006686 <_realloc_r>:
    6686:	e581                	bnez	a1,668e <_realloc_r+0x8>
    6688:	85b2                	mv	a1,a2
    668a:	e54ff06f          	j	5cde <_malloc_r>
    668e:	1101                	addi	sp,sp,-32
    6690:	cc22                	sw	s0,24(sp)
    6692:	ce06                	sw	ra,28(sp)
    6694:	ca26                	sw	s1,20(sp)
    6696:	c84a                	sw	s2,16(sp)
    6698:	c64e                	sw	s3,12(sp)
    669a:	8432                	mv	s0,a2
    669c:	ee01                	bnez	a2,66b4 <_realloc_r+0x2e>
    669e:	d98ff0ef          	jal	ra,5c36 <_free_r>
    66a2:	4901                	li	s2,0
    66a4:	40f2                	lw	ra,28(sp)
    66a6:	4462                	lw	s0,24(sp)
    66a8:	854a                	mv	a0,s2
    66aa:	44d2                	lw	s1,20(sp)
    66ac:	4942                	lw	s2,16(sp)
    66ae:	49b2                	lw	s3,12(sp)
    66b0:	6105                	addi	sp,sp,32
    66b2:	8082                	ret
    66b4:	84ae                	mv	s1,a1
    66b6:	89aa                	mv	s3,a0
    66b8:	2891                	jal	670c <_malloc_usable_size_r>
    66ba:	8926                	mv	s2,s1
    66bc:	fe8574e3          	bgeu	a0,s0,66a4 <_realloc_r+0x1e>
    66c0:	85a2                	mv	a1,s0
    66c2:	854e                	mv	a0,s3
    66c4:	e1aff0ef          	jal	ra,5cde <_malloc_r>
    66c8:	892a                	mv	s2,a0
    66ca:	dd69                	beqz	a0,66a4 <_realloc_r+0x1e>
    66cc:	85a6                	mv	a1,s1
    66ce:	8622                	mv	a2,s0
    66d0:	afffe0ef          	jal	ra,51ce <memcpy>
    66d4:	85a6                	mv	a1,s1
    66d6:	854e                	mv	a0,s3
    66d8:	d5eff0ef          	jal	ra,5c36 <_free_r>
    66dc:	b7e1                	j	66a4 <_realloc_r+0x1e>

000066de <_read_r>:
    66de:	1141                	addi	sp,sp,-16
    66e0:	c422                	sw	s0,8(sp)
    66e2:	842a                	mv	s0,a0
    66e4:	852e                	mv	a0,a1
    66e6:	85b2                	mv	a1,a2
    66e8:	8636                	mv	a2,a3
    66ea:	8201aa23          	sw	zero,-1996(gp) # 20000224 <errno>
    66ee:	c606                	sw	ra,12(sp)
    66f0:	4e5010ef          	jal	ra,83d4 <_read>
    66f4:	57fd                	li	a5,-1
    66f6:	00f51763          	bne	a0,a5,6704 <_read_r+0x26>
    66fa:	83418793          	addi	a5,gp,-1996 # 20000224 <errno>
    66fe:	439c                	lw	a5,0(a5)
    6700:	c391                	beqz	a5,6704 <_read_r+0x26>
    6702:	c01c                	sw	a5,0(s0)
    6704:	40b2                	lw	ra,12(sp)
    6706:	4422                	lw	s0,8(sp)
    6708:	0141                	addi	sp,sp,16
    670a:	8082                	ret

0000670c <_malloc_usable_size_r>:
    670c:	ffc5a783          	lw	a5,-4(a1)
    6710:	ffc78513          	addi	a0,a5,-4
    6714:	0007d563          	bgez	a5,671e <_malloc_usable_size_r+0x12>
    6718:	95aa                	add	a1,a1,a0
    671a:	419c                	lw	a5,0(a1)
    671c:	953e                	add	a0,a0,a5
    671e:	8082                	ret

00006720 <__adddf3>:
    6720:	00100837          	lui	a6,0x100
    6724:	1101                	addi	sp,sp,-32
    6726:	187d                	addi	a6,a6,-1
    6728:	00b87733          	and	a4,a6,a1
    672c:	ca26                	sw	s1,20(sp)
    672e:	00d87833          	and	a6,a6,a3
    6732:	0145d493          	srli	s1,a1,0x14
    6736:	0146d313          	srli	t1,a3,0x14
    673a:	00371e13          	slli	t3,a4,0x3
    673e:	c64e                	sw	s3,12(sp)
    6740:	01d55713          	srli	a4,a0,0x1d
    6744:	080e                	slli	a6,a6,0x3
    6746:	01d65793          	srli	a5,a2,0x1d
    674a:	7ff4f493          	andi	s1,s1,2047
    674e:	7ff37313          	andi	t1,t1,2047
    6752:	ce06                	sw	ra,28(sp)
    6754:	cc22                	sw	s0,24(sp)
    6756:	c84a                	sw	s2,16(sp)
    6758:	01f5d993          	srli	s3,a1,0x1f
    675c:	01f6de93          	srli	t4,a3,0x1f
    6760:	01c76733          	or	a4,a4,t3
    6764:	00351f13          	slli	t5,a0,0x3
    6768:	0107e833          	or	a6,a5,a6
    676c:	00361f93          	slli	t6,a2,0x3
    6770:	40648e33          	sub	t3,s1,t1
    6774:	19d98063          	beq	s3,t4,68f4 <__adddf3+0x1d4>
    6778:	13c05663          	blez	t3,68a4 <__adddf3+0x184>
    677c:	1c030463          	beqz	t1,6944 <__adddf3+0x224>
    6780:	008006b7          	lui	a3,0x800
    6784:	7ff00793          	li	a5,2047
    6788:	00d86833          	or	a6,a6,a3
    678c:	36f48f63          	beq	s1,a5,6b0a <__adddf3+0x3ea>
    6790:	03800793          	li	a5,56
    6794:	35c7c063          	blt	a5,t3,6ad4 <__adddf3+0x3b4>
    6798:	47fd                	li	a5,31
    679a:	47c7cd63          	blt	a5,t3,6c14 <__adddf3+0x4f4>
    679e:	02000513          	li	a0,32
    67a2:	41c50533          	sub	a0,a0,t3
    67a6:	01cfd7b3          	srl	a5,t6,t3
    67aa:	00a816b3          	sll	a3,a6,a0
    67ae:	00af9933          	sll	s2,t6,a0
    67b2:	8edd                	or	a3,a3,a5
    67b4:	01203933          	snez	s2,s2
    67b8:	01c857b3          	srl	a5,a6,t3
    67bc:	0126e933          	or	s2,a3,s2
    67c0:	8f1d                	sub	a4,a4,a5
    67c2:	412f0933          	sub	s2,t5,s2
    67c6:	012f37b3          	sltu	a5,t5,s2
    67ca:	40f70633          	sub	a2,a4,a5
    67ce:	00861793          	slli	a5,a2,0x8
    67d2:	2407d463          	bgez	a5,6a1a <__adddf3+0x2fa>
    67d6:	00800737          	lui	a4,0x800
    67da:	177d                	addi	a4,a4,-1
    67dc:	00e67433          	and	s0,a2,a4
    67e0:	2c040c63          	beqz	s0,6ab8 <__adddf3+0x398>
    67e4:	8522                	mv	a0,s0
    67e6:	f8bfa0ef          	jal	ra,1770 <__clzsi2>
    67ea:	ff850713          	addi	a4,a0,-8
    67ee:	02000793          	li	a5,32
    67f2:	8f99                	sub	a5,a5,a4
    67f4:	00f957b3          	srl	a5,s2,a5
    67f8:	00e41633          	sll	a2,s0,a4
    67fc:	8fd1                	or	a5,a5,a2
    67fe:	00e91933          	sll	s2,s2,a4
    6802:	2a974163          	blt	a4,s1,6aa4 <__adddf3+0x384>
    6806:	40970533          	sub	a0,a4,s1
    680a:	00150613          	addi	a2,a0,1
    680e:	477d                	li	a4,31
    6810:	38c74d63          	blt	a4,a2,6baa <__adddf3+0x48a>
    6814:	02000713          	li	a4,32
    6818:	8f11                	sub	a4,a4,a2
    681a:	00c956b3          	srl	a3,s2,a2
    681e:	00e91933          	sll	s2,s2,a4
    6822:	00e79733          	sll	a4,a5,a4
    6826:	8f55                	or	a4,a4,a3
    6828:	01203933          	snez	s2,s2
    682c:	01276933          	or	s2,a4,s2
    6830:	00c7d633          	srl	a2,a5,a2
    6834:	4481                	li	s1,0
    6836:	00797793          	andi	a5,s2,7
    683a:	cf81                	beqz	a5,6852 <__adddf3+0x132>
    683c:	00f97713          	andi	a4,s2,15
    6840:	4791                	li	a5,4
    6842:	00f70863          	beq	a4,a5,6852 <__adddf3+0x132>
    6846:	00490713          	addi	a4,s2,4
    684a:	01273933          	sltu	s2,a4,s2
    684e:	964a                	add	a2,a2,s2
    6850:	893a                	mv	s2,a4
    6852:	00861793          	slli	a5,a2,0x8
    6856:	1c07d663          	bgez	a5,6a22 <__adddf3+0x302>
    685a:	00148513          	addi	a0,s1,1
    685e:	7ff00793          	li	a5,2047
    6862:	85ce                	mv	a1,s3
    6864:	20f50463          	beq	a0,a5,6a6c <__adddf3+0x34c>
    6868:	ff8007b7          	lui	a5,0xff800
    686c:	17fd                	addi	a5,a5,-1
    686e:	8ff1                	and	a5,a5,a2
    6870:	01d79893          	slli	a7,a5,0x1d
    6874:	00395913          	srli	s2,s2,0x3
    6878:	07a6                	slli	a5,a5,0x9
    687a:	0128e8b3          	or	a7,a7,s2
    687e:	83b1                	srli	a5,a5,0xc
    6880:	7ff57513          	andi	a0,a0,2047
    6884:	00c79693          	slli	a3,a5,0xc
    6888:	0552                	slli	a0,a0,0x14
    688a:	40f2                	lw	ra,28(sp)
    688c:	4462                	lw	s0,24(sp)
    688e:	82b1                	srli	a3,a3,0xc
    6890:	05fe                	slli	a1,a1,0x1f
    6892:	8ec9                	or	a3,a3,a0
    6894:	8ecd                	or	a3,a3,a1
    6896:	44d2                	lw	s1,20(sp)
    6898:	4942                	lw	s2,16(sp)
    689a:	49b2                	lw	s3,12(sp)
    689c:	8546                	mv	a0,a7
    689e:	85b6                	mv	a1,a3
    68a0:	6105                	addi	sp,sp,32
    68a2:	8082                	ret
    68a4:	0a0e1e63          	bnez	t3,6960 <__adddf3+0x240>
    68a8:	00148313          	addi	t1,s1,1
    68ac:	7fe37313          	andi	t1,t1,2046
    68b0:	22031763          	bnez	t1,6ade <__adddf3+0x3be>
    68b4:	01e767b3          	or	a5,a4,t5
    68b8:	01f868b3          	or	a7,a6,t6
    68bc:	1a049d63          	bnez	s1,6a76 <__adddf3+0x356>
    68c0:	40078763          	beqz	a5,6cce <__adddf3+0x5ae>
    68c4:	44088663          	beqz	a7,6d10 <__adddf3+0x5f0>
    68c8:	41ff0933          	sub	s2,t5,t6
    68cc:	410707b3          	sub	a5,a4,a6
    68d0:	012f3633          	sltu	a2,t5,s2
    68d4:	40c78633          	sub	a2,a5,a2
    68d8:	00861793          	slli	a5,a2,0x8
    68dc:	4c07d663          	bgez	a5,6da8 <__adddf3+0x688>
    68e0:	41ef8933          	sub	s2,t6,t5
    68e4:	40e807b3          	sub	a5,a6,a4
    68e8:	012fb633          	sltu	a2,t6,s2
    68ec:	40c78633          	sub	a2,a5,a2
    68f0:	89f6                	mv	s3,t4
    68f2:	b791                	j	6836 <__adddf3+0x116>
    68f4:	0fc05063          	blez	t3,69d4 <__adddf3+0x2b4>
    68f8:	0c030063          	beqz	t1,69b8 <__adddf3+0x298>
    68fc:	008006b7          	lui	a3,0x800
    6900:	7ff00793          	li	a5,2047
    6904:	00d86833          	or	a6,a6,a3
    6908:	3af48a63          	beq	s1,a5,6cbc <__adddf3+0x59c>
    690c:	03800793          	li	a5,56
    6910:	13c7cb63          	blt	a5,t3,6a46 <__adddf3+0x326>
    6914:	47fd                	li	a5,31
    6916:	35c7df63          	bge	a5,t3,6c74 <__adddf3+0x554>
    691a:	fe0e0913          	addi	s2,t3,-32
    691e:	02000793          	li	a5,32
    6922:	012856b3          	srl	a3,a6,s2
    6926:	00fe0a63          	beq	t3,a5,693a <__adddf3+0x21a>
    692a:	04000913          	li	s2,64
    692e:	41c90933          	sub	s2,s2,t3
    6932:	01281933          	sll	s2,a6,s2
    6936:	012fefb3          	or	t6,t6,s2
    693a:	01f03933          	snez	s2,t6
    693e:	00d96933          	or	s2,s2,a3
    6942:	a231                	j	6a4e <__adddf3+0x32e>
    6944:	01f867b3          	or	a5,a6,t6
    6948:	1c078a63          	beqz	a5,6b1c <__adddf3+0x3fc>
    694c:	fffe0793          	addi	a5,t3,-1
    6950:	38078c63          	beqz	a5,6ce8 <__adddf3+0x5c8>
    6954:	7ff00693          	li	a3,2047
    6958:	1ade0963          	beq	t3,a3,6b0a <__adddf3+0x3ea>
    695c:	8e3e                	mv	t3,a5
    695e:	bd0d                	j	6790 <__adddf3+0x70>
    6960:	409305b3          	sub	a1,t1,s1
    6964:	22049163          	bnez	s1,6b86 <__adddf3+0x466>
    6968:	01e767b3          	or	a5,a4,t5
    696c:	32078763          	beqz	a5,6c9a <__adddf3+0x57a>
    6970:	fff58793          	addi	a5,a1,-1
    6974:	44078163          	beqz	a5,6db6 <__adddf3+0x696>
    6978:	7ff00693          	li	a3,2047
    697c:	20d58c63          	beq	a1,a3,6b94 <__adddf3+0x474>
    6980:	85be                	mv	a1,a5
    6982:	03800793          	li	a5,56
    6986:	2ab7cc63          	blt	a5,a1,6c3e <__adddf3+0x51e>
    698a:	47fd                	li	a5,31
    698c:	3cb7cf63          	blt	a5,a1,6d6a <__adddf3+0x64a>
    6990:	02000793          	li	a5,32
    6994:	8f8d                	sub	a5,a5,a1
    6996:	00f71933          	sll	s2,a4,a5
    699a:	00bf56b3          	srl	a3,t5,a1
    699e:	00ff17b3          	sll	a5,t5,a5
    69a2:	00d96933          	or	s2,s2,a3
    69a6:	00f037b3          	snez	a5,a5
    69aa:	00b75733          	srl	a4,a4,a1
    69ae:	00f96933          	or	s2,s2,a5
    69b2:	40e80833          	sub	a6,a6,a4
    69b6:	ac41                	j	6c46 <__adddf3+0x526>
    69b8:	01f867b3          	or	a5,a6,t6
    69bc:	34078063          	beqz	a5,6cfc <__adddf3+0x5dc>
    69c0:	fffe0793          	addi	a5,t3,-1
    69c4:	20078a63          	beqz	a5,6bd8 <__adddf3+0x4b8>
    69c8:	7ff00693          	li	a3,2047
    69cc:	2ede0863          	beq	t3,a3,6cbc <__adddf3+0x59c>
    69d0:	8e3e                	mv	t3,a5
    69d2:	bf2d                	j	690c <__adddf3+0x1ec>
    69d4:	140e1e63          	bnez	t3,6b30 <__adddf3+0x410>
    69d8:	00148693          	addi	a3,s1,1
    69dc:	7fe6f793          	andi	a5,a3,2046
    69e0:	34079163          	bnez	a5,6d22 <__adddf3+0x602>
    69e4:	01e767b3          	or	a5,a4,t5
    69e8:	2c049563          	bnez	s1,6cb2 <__adddf3+0x592>
    69ec:	3e078063          	beqz	a5,6dcc <__adddf3+0x6ac>
    69f0:	01f867b3          	or	a5,a6,t6
    69f4:	30078e63          	beqz	a5,6d10 <__adddf3+0x5f0>
    69f8:	01ff0933          	add	s2,t5,t6
    69fc:	010707b3          	add	a5,a4,a6
    6a00:	01e93f33          	sltu	t5,s2,t5
    6a04:	01e78633          	add	a2,a5,t5
    6a08:	00861793          	slli	a5,a2,0x8
    6a0c:	0007d763          	bgez	a5,6a1a <__adddf3+0x2fa>
    6a10:	ff8007b7          	lui	a5,0xff800
    6a14:	17fd                	addi	a5,a5,-1
    6a16:	8e7d                	and	a2,a2,a5
    6a18:	4485                	li	s1,1
    6a1a:	00797793          	andi	a5,s2,7
    6a1e:	e0079fe3          	bnez	a5,683c <__adddf3+0x11c>
    6a22:	01d61793          	slli	a5,a2,0x1d
    6a26:	00395893          	srli	a7,s2,0x3
    6a2a:	00f8e8b3          	or	a7,a7,a5
    6a2e:	00365793          	srli	a5,a2,0x3
    6a32:	7ff00713          	li	a4,2047
    6a36:	04e48d63          	beq	s1,a4,6a90 <__adddf3+0x370>
    6a3a:	07b2                	slli	a5,a5,0xc
    6a3c:	83b1                	srli	a5,a5,0xc
    6a3e:	7ff4f513          	andi	a0,s1,2047
    6a42:	85ce                	mv	a1,s3
    6a44:	b581                	j	6884 <__adddf3+0x164>
    6a46:	01f86933          	or	s2,a6,t6
    6a4a:	01203933          	snez	s2,s2
    6a4e:	997a                	add	s2,s2,t5
    6a50:	01e937b3          	sltu	a5,s2,t5
    6a54:	00e78633          	add	a2,a5,a4
    6a58:	00861793          	slli	a5,a2,0x8
    6a5c:	fa07dfe3          	bgez	a5,6a1a <__adddf3+0x2fa>
    6a60:	0485                	addi	s1,s1,1
    6a62:	7ff00793          	li	a5,2047
    6a66:	18f49663          	bne	s1,a5,6bf2 <__adddf3+0x4d2>
    6a6a:	85ce                	mv	a1,s3
    6a6c:	7ff00513          	li	a0,2047
    6a70:	4781                	li	a5,0
    6a72:	4881                	li	a7,0
    6a74:	bd01                	j	6884 <__adddf3+0x164>
    6a76:	ebc1                	bnez	a5,6b06 <__adddf3+0x3e6>
    6a78:	3a088463          	beqz	a7,6e20 <__adddf3+0x700>
    6a7c:	00361693          	slli	a3,a2,0x3
    6a80:	01d81793          	slli	a5,a6,0x1d
    6a84:	828d                	srli	a3,a3,0x3
    6a86:	00d7e8b3          	or	a7,a5,a3
    6a8a:	89f6                	mv	s3,t4
    6a8c:	00385793          	srli	a5,a6,0x3
    6a90:	00f8e7b3          	or	a5,a7,a5
    6a94:	dbf9                	beqz	a5,6a6a <__adddf3+0x34a>
    6a96:	4581                	li	a1,0
    6a98:	7ff00513          	li	a0,2047
    6a9c:	000807b7          	lui	a5,0x80
    6aa0:	4881                	li	a7,0
    6aa2:	b3cd                	j	6884 <__adddf3+0x164>
    6aa4:	ff800637          	lui	a2,0xff800
    6aa8:	167d                	addi	a2,a2,-1
    6aaa:	8e7d                	and	a2,a2,a5
    6aac:	00797793          	andi	a5,s2,7
    6ab0:	8c99                	sub	s1,s1,a4
    6ab2:	d80795e3          	bnez	a5,683c <__adddf3+0x11c>
    6ab6:	b7b5                	j	6a22 <__adddf3+0x302>
    6ab8:	854a                	mv	a0,s2
    6aba:	cb7fa0ef          	jal	ra,1770 <__clzsi2>
    6abe:	01850713          	addi	a4,a0,24
    6ac2:	47fd                	li	a5,31
    6ac4:	d2e7d5e3          	bge	a5,a4,67ee <__adddf3+0xce>
    6ac8:	ff850613          	addi	a2,a0,-8
    6acc:	00c917b3          	sll	a5,s2,a2
    6ad0:	4901                	li	s2,0
    6ad2:	bb05                	j	6802 <__adddf3+0xe2>
    6ad4:	01f86933          	or	s2,a6,t6
    6ad8:	01203933          	snez	s2,s2
    6adc:	b1dd                	j	67c2 <__adddf3+0xa2>
    6ade:	41ff0933          	sub	s2,t5,t6
    6ae2:	41070633          	sub	a2,a4,a6
    6ae6:	012f3433          	sltu	s0,t5,s2
    6aea:	40860433          	sub	s0,a2,s0
    6aee:	00841793          	slli	a5,s0,0x8
    6af2:	2407cd63          	bltz	a5,6d4c <__adddf3+0x62c>
    6af6:	008968b3          	or	a7,s2,s0
    6afa:	ce0893e3          	bnez	a7,67e0 <__adddf3+0xc0>
    6afe:	4781                	li	a5,0
    6b00:	4981                	li	s3,0
    6b02:	4481                	li	s1,0
    6b04:	bf1d                	j	6a3a <__adddf3+0x31a>
    6b06:	f80898e3          	bnez	a7,6a96 <__adddf3+0x376>
    6b0a:	050e                	slli	a0,a0,0x3
    6b0c:	01d71793          	slli	a5,a4,0x1d
    6b10:	810d                	srli	a0,a0,0x3
    6b12:	00a7e8b3          	or	a7,a5,a0
    6b16:	00375793          	srli	a5,a4,0x3
    6b1a:	bf9d                	j	6a90 <__adddf3+0x370>
    6b1c:	050e                	slli	a0,a0,0x3
    6b1e:	01d71793          	slli	a5,a4,0x1d
    6b22:	810d                	srli	a0,a0,0x3
    6b24:	00a7e8b3          	or	a7,a5,a0
    6b28:	84f2                	mv	s1,t3
    6b2a:	00375793          	srli	a5,a4,0x3
    6b2e:	b711                	j	6a32 <__adddf3+0x312>
    6b30:	40930533          	sub	a0,t1,s1
    6b34:	12048263          	beqz	s1,6c58 <__adddf3+0x538>
    6b38:	008006b7          	lui	a3,0x800
    6b3c:	7ff00793          	li	a5,2047
    6b40:	8f55                	or	a4,a4,a3
    6b42:	2ef30d63          	beq	t1,a5,6e3c <__adddf3+0x71c>
    6b46:	03800793          	li	a5,56
    6b4a:	20a7cb63          	blt	a5,a0,6d60 <__adddf3+0x640>
    6b4e:	47fd                	li	a5,31
    6b50:	2aa7c363          	blt	a5,a0,6df6 <__adddf3+0x6d6>
    6b54:	02000793          	li	a5,32
    6b58:	8f89                	sub	a5,a5,a0
    6b5a:	00f71933          	sll	s2,a4,a5
    6b5e:	00af56b3          	srl	a3,t5,a0
    6b62:	00ff17b3          	sll	a5,t5,a5
    6b66:	00d96933          	or	s2,s2,a3
    6b6a:	00f037b3          	snez	a5,a5
    6b6e:	00a75733          	srl	a4,a4,a0
    6b72:	00f96933          	or	s2,s2,a5
    6b76:	983a                	add	a6,a6,a4
    6b78:	997e                	add	s2,s2,t6
    6b7a:	01f937b3          	sltu	a5,s2,t6
    6b7e:	01078633          	add	a2,a5,a6
    6b82:	849a                	mv	s1,t1
    6b84:	bdd1                	j	6a58 <__adddf3+0x338>
    6b86:	008006b7          	lui	a3,0x800
    6b8a:	7ff00793          	li	a5,2047
    6b8e:	8f55                	or	a4,a4,a3
    6b90:	def319e3          	bne	t1,a5,6982 <__adddf3+0x262>
    6b94:	00361793          	slli	a5,a2,0x3
    6b98:	838d                	srli	a5,a5,0x3
    6b9a:	01d81893          	slli	a7,a6,0x1d
    6b9e:	0117e8b3          	or	a7,a5,a7
    6ba2:	89f6                	mv	s3,t4
    6ba4:	00385793          	srli	a5,a6,0x3
    6ba8:	b5e5                	j	6a90 <__adddf3+0x370>
    6baa:	fe150713          	addi	a4,a0,-31
    6bae:	02000693          	li	a3,32
    6bb2:	00e7d733          	srl	a4,a5,a4
    6bb6:	00d60a63          	beq	a2,a3,6bca <__adddf3+0x4aa>
    6bba:	04000693          	li	a3,64
    6bbe:	40c68633          	sub	a2,a3,a2
    6bc2:	00c79633          	sll	a2,a5,a2
    6bc6:	00c96933          	or	s2,s2,a2
    6bca:	01203933          	snez	s2,s2
    6bce:	00e96933          	or	s2,s2,a4
    6bd2:	4601                	li	a2,0
    6bd4:	4481                	li	s1,0
    6bd6:	b591                	j	6a1a <__adddf3+0x2fa>
    6bd8:	01ff0933          	add	s2,t5,t6
    6bdc:	010707b3          	add	a5,a4,a6
    6be0:	01e93633          	sltu	a2,s2,t5
    6be4:	963e                	add	a2,a2,a5
    6be6:	00861793          	slli	a5,a2,0x8
    6bea:	4485                	li	s1,1
    6bec:	e207d7e3          	bgez	a5,6a1a <__adddf3+0x2fa>
    6bf0:	4489                	li	s1,2
    6bf2:	ff8007b7          	lui	a5,0xff800
    6bf6:	17fd                	addi	a5,a5,-1
    6bf8:	8ff1                	and	a5,a5,a2
    6bfa:	00195713          	srli	a4,s2,0x1
    6bfe:	00197913          	andi	s2,s2,1
    6c02:	01276933          	or	s2,a4,s2
    6c06:	01f79893          	slli	a7,a5,0x1f
    6c0a:	0128e933          	or	s2,a7,s2
    6c0e:	0017d613          	srli	a2,a5,0x1
    6c12:	b115                	j	6836 <__adddf3+0x116>
    6c14:	fe0e0913          	addi	s2,t3,-32
    6c18:	02000793          	li	a5,32
    6c1c:	012856b3          	srl	a3,a6,s2
    6c20:	00fe0a63          	beq	t3,a5,6c34 <__adddf3+0x514>
    6c24:	04000913          	li	s2,64
    6c28:	41c90933          	sub	s2,s2,t3
    6c2c:	01281933          	sll	s2,a6,s2
    6c30:	012fefb3          	or	t6,t6,s2
    6c34:	01f03933          	snez	s2,t6
    6c38:	00d96933          	or	s2,s2,a3
    6c3c:	b659                	j	67c2 <__adddf3+0xa2>
    6c3e:	01e76933          	or	s2,a4,t5
    6c42:	01203933          	snez	s2,s2
    6c46:	412f8933          	sub	s2,t6,s2
    6c4a:	012fb7b3          	sltu	a5,t6,s2
    6c4e:	40f80633          	sub	a2,a6,a5
    6c52:	849a                	mv	s1,t1
    6c54:	89f6                	mv	s3,t4
    6c56:	bea5                	j	67ce <__adddf3+0xae>
    6c58:	01e767b3          	or	a5,a4,t5
    6c5c:	18078263          	beqz	a5,6de0 <__adddf3+0x6c0>
    6c60:	fff50793          	addi	a5,a0,-1
    6c64:	1c078463          	beqz	a5,6e2c <__adddf3+0x70c>
    6c68:	7ff00693          	li	a3,2047
    6c6c:	12d50463          	beq	a0,a3,6d94 <__adddf3+0x674>
    6c70:	853e                	mv	a0,a5
    6c72:	bdd1                	j	6b46 <__adddf3+0x426>
    6c74:	02000793          	li	a5,32
    6c78:	41c787b3          	sub	a5,a5,t3
    6c7c:	00f816b3          	sll	a3,a6,a5
    6c80:	00ff9933          	sll	s2,t6,a5
    6c84:	01cfd633          	srl	a2,t6,t3
    6c88:	8ed1                	or	a3,a3,a2
    6c8a:	01203933          	snez	s2,s2
    6c8e:	01c857b3          	srl	a5,a6,t3
    6c92:	0126e933          	or	s2,a3,s2
    6c96:	973e                	add	a4,a4,a5
    6c98:	bb5d                	j	6a4e <__adddf3+0x32e>
    6c9a:	00361793          	slli	a5,a2,0x3
    6c9e:	838d                	srli	a5,a5,0x3
    6ca0:	01d81893          	slli	a7,a6,0x1d
    6ca4:	0117e8b3          	or	a7,a5,a7
    6ca8:	84ae                	mv	s1,a1
    6caa:	00385793          	srli	a5,a6,0x3
    6cae:	89f6                	mv	s3,t4
    6cb0:	b349                	j	6a32 <__adddf3+0x312>
    6cb2:	c3ed                	beqz	a5,6d94 <__adddf3+0x674>
    6cb4:	01f86933          	or	s2,a6,t6
    6cb8:	dc091fe3          	bnez	s2,6a96 <__adddf3+0x376>
    6cbc:	050e                	slli	a0,a0,0x3
    6cbe:	01d71793          	slli	a5,a4,0x1d
    6cc2:	810d                	srli	a0,a0,0x3
    6cc4:	00f568b3          	or	a7,a0,a5
    6cc8:	00375793          	srli	a5,a4,0x3
    6ccc:	b3d1                	j	6a90 <__adddf3+0x370>
    6cce:	0e088163          	beqz	a7,6db0 <__adddf3+0x690>
    6cd2:	00361693          	slli	a3,a2,0x3
    6cd6:	01d81793          	slli	a5,a6,0x1d
    6cda:	828d                	srli	a3,a3,0x3
    6cdc:	00d7e8b3          	or	a7,a5,a3
    6ce0:	89f6                	mv	s3,t4
    6ce2:	00385793          	srli	a5,a6,0x3
    6ce6:	bb91                	j	6a3a <__adddf3+0x31a>
    6ce8:	41ff0933          	sub	s2,t5,t6
    6cec:	410707b3          	sub	a5,a4,a6
    6cf0:	012f3f33          	sltu	t5,t5,s2
    6cf4:	41e78633          	sub	a2,a5,t5
    6cf8:	4485                	li	s1,1
    6cfa:	bcd1                	j	67ce <__adddf3+0xae>
    6cfc:	050e                	slli	a0,a0,0x3
    6cfe:	01d71793          	slli	a5,a4,0x1d
    6d02:	810d                	srli	a0,a0,0x3
    6d04:	00f568b3          	or	a7,a0,a5
    6d08:	84f2                	mv	s1,t3
    6d0a:	00375793          	srli	a5,a4,0x3
    6d0e:	b315                	j	6a32 <__adddf3+0x312>
    6d10:	050e                	slli	a0,a0,0x3
    6d12:	01d71793          	slli	a5,a4,0x1d
    6d16:	810d                	srli	a0,a0,0x3
    6d18:	00a7e8b3          	or	a7,a5,a0
    6d1c:	00375793          	srli	a5,a4,0x3
    6d20:	bb29                	j	6a3a <__adddf3+0x31a>
    6d22:	7ff00793          	li	a5,2047
    6d26:	d4f682e3          	beq	a3,a5,6a6a <__adddf3+0x34a>
    6d2a:	01ff0933          	add	s2,t5,t6
    6d2e:	01e93633          	sltu	a2,s2,t5
    6d32:	010707b3          	add	a5,a4,a6
    6d36:	97b2                	add	a5,a5,a2
    6d38:	01f79893          	slli	a7,a5,0x1f
    6d3c:	00195913          	srli	s2,s2,0x1
    6d40:	0128e933          	or	s2,a7,s2
    6d44:	0017d613          	srli	a2,a5,0x1
    6d48:	84b6                	mv	s1,a3
    6d4a:	b9c1                	j	6a1a <__adddf3+0x2fa>
    6d4c:	41ef8933          	sub	s2,t6,t5
    6d50:	40e80733          	sub	a4,a6,a4
    6d54:	012fb633          	sltu	a2,t6,s2
    6d58:	40c70433          	sub	s0,a4,a2
    6d5c:	89f6                	mv	s3,t4
    6d5e:	b449                	j	67e0 <__adddf3+0xc0>
    6d60:	01e76933          	or	s2,a4,t5
    6d64:	01203933          	snez	s2,s2
    6d68:	bd01                	j	6b78 <__adddf3+0x458>
    6d6a:	fe058793          	addi	a5,a1,-32
    6d6e:	02000693          	li	a3,32
    6d72:	00f757b3          	srl	a5,a4,a5
    6d76:	00d58a63          	beq	a1,a3,6d8a <__adddf3+0x66a>
    6d7a:	04000693          	li	a3,64
    6d7e:	40b685b3          	sub	a1,a3,a1
    6d82:	00b71733          	sll	a4,a4,a1
    6d86:	00ef6f33          	or	t5,t5,a4
    6d8a:	01e03933          	snez	s2,t5
    6d8e:	00f96933          	or	s2,s2,a5
    6d92:	bd55                	j	6c46 <__adddf3+0x526>
    6d94:	00361793          	slli	a5,a2,0x3
    6d98:	838d                	srli	a5,a5,0x3
    6d9a:	01d81893          	slli	a7,a6,0x1d
    6d9e:	0117e8b3          	or	a7,a5,a7
    6da2:	00385793          	srli	a5,a6,0x3
    6da6:	b1ed                	j	6a90 <__adddf3+0x370>
    6da8:	00c968b3          	or	a7,s2,a2
    6dac:	c60897e3          	bnez	a7,6a1a <__adddf3+0x2fa>
    6db0:	4781                	li	a5,0
    6db2:	4981                	li	s3,0
    6db4:	b159                	j	6a3a <__adddf3+0x31a>
    6db6:	41ef8933          	sub	s2,t6,t5
    6dba:	40e807b3          	sub	a5,a6,a4
    6dbe:	012fb633          	sltu	a2,t6,s2
    6dc2:	40c78633          	sub	a2,a5,a2
    6dc6:	89f6                	mv	s3,t4
    6dc8:	4485                	li	s1,1
    6dca:	b411                	j	67ce <__adddf3+0xae>
    6dcc:	00361693          	slli	a3,a2,0x3
    6dd0:	01d81793          	slli	a5,a6,0x1d
    6dd4:	828d                	srli	a3,a3,0x3
    6dd6:	00d7e8b3          	or	a7,a5,a3
    6dda:	00385793          	srli	a5,a6,0x3
    6dde:	b9b1                	j	6a3a <__adddf3+0x31a>
    6de0:	00361693          	slli	a3,a2,0x3
    6de4:	01d81793          	slli	a5,a6,0x1d
    6de8:	828d                	srli	a3,a3,0x3
    6dea:	00d7e8b3          	or	a7,a5,a3
    6dee:	84aa                	mv	s1,a0
    6df0:	00385793          	srli	a5,a6,0x3
    6df4:	b93d                	j	6a32 <__adddf3+0x312>
    6df6:	fe050793          	addi	a5,a0,-32
    6dfa:	02000693          	li	a3,32
    6dfe:	00f757b3          	srl	a5,a4,a5
    6e02:	00d50a63          	beq	a0,a3,6e16 <__adddf3+0x6f6>
    6e06:	04000693          	li	a3,64
    6e0a:	40a68533          	sub	a0,a3,a0
    6e0e:	00a71733          	sll	a4,a4,a0
    6e12:	00ef6f33          	or	t5,t5,a4
    6e16:	01e03933          	snez	s2,t5
    6e1a:	00f96933          	or	s2,s2,a5
    6e1e:	bba9                	j	6b78 <__adddf3+0x458>
    6e20:	4581                	li	a1,0
    6e22:	7ff00513          	li	a0,2047
    6e26:	000807b7          	lui	a5,0x80
    6e2a:	bca9                	j	6884 <__adddf3+0x164>
    6e2c:	01ff0933          	add	s2,t5,t6
    6e30:	010707b3          	add	a5,a4,a6
    6e34:	01f93633          	sltu	a2,s2,t6
    6e38:	963e                	add	a2,a2,a5
    6e3a:	b375                	j	6be6 <__adddf3+0x4c6>
    6e3c:	00361693          	slli	a3,a2,0x3
    6e40:	01d81793          	slli	a5,a6,0x1d
    6e44:	828d                	srli	a3,a3,0x3
    6e46:	00d7e8b3          	or	a7,a5,a3
    6e4a:	00385793          	srli	a5,a6,0x3
    6e4e:	b189                	j	6a90 <__adddf3+0x370>

00006e50 <__divdf3>:
    6e50:	7139                	addi	sp,sp,-64
    6e52:	0145d793          	srli	a5,a1,0x14
    6e56:	dc22                	sw	s0,56(sp)
    6e58:	d84a                	sw	s2,48(sp)
    6e5a:	d256                	sw	s5,36(sp)
    6e5c:	892a                	mv	s2,a0
    6e5e:	00c59413          	slli	s0,a1,0xc
    6e62:	de06                	sw	ra,60(sp)
    6e64:	da26                	sw	s1,52(sp)
    6e66:	d64e                	sw	s3,44(sp)
    6e68:	d452                	sw	s4,40(sp)
    6e6a:	d05a                	sw	s6,32(sp)
    6e6c:	ce5e                	sw	s7,28(sp)
    6e6e:	7ff7f513          	andi	a0,a5,2047
    6e72:	8031                	srli	s0,s0,0xc
    6e74:	01f5da93          	srli	s5,a1,0x1f
    6e78:	10050b63          	beqz	a0,6f8e <__divdf3+0x13e>
    6e7c:	7ff00793          	li	a5,2047
    6e80:	14f50b63          	beq	a0,a5,6fd6 <__divdf3+0x186>
    6e84:	01d95a13          	srli	s4,s2,0x1d
    6e88:	040e                	slli	s0,s0,0x3
    6e8a:	008a6433          	or	s0,s4,s0
    6e8e:	00800a37          	lui	s4,0x800
    6e92:	01446a33          	or	s4,s0,s4
    6e96:	00391b13          	slli	s6,s2,0x3
    6e9a:	c0150493          	addi	s1,a0,-1023
    6e9e:	4401                	li	s0,0
    6ea0:	4b81                	li	s7,0
    6ea2:	0146d813          	srli	a6,a3,0x14
    6ea6:	00c69913          	slli	s2,a3,0xc
    6eaa:	7ff87813          	andi	a6,a6,2047
    6eae:	88b2                	mv	a7,a2
    6eb0:	00c95913          	srli	s2,s2,0xc
    6eb4:	01f6d993          	srli	s3,a3,0x1f
    6eb8:	08080e63          	beqz	a6,6f54 <__divdf3+0x104>
    6ebc:	7ff00793          	li	a5,2047
    6ec0:	04f80063          	beq	a6,a5,6f00 <__divdf3+0xb0>
    6ec4:	01d65713          	srli	a4,a2,0x1d
    6ec8:	090e                	slli	s2,s2,0x3
    6eca:	01276933          	or	s2,a4,s2
    6ece:	c0180813          	addi	a6,a6,-1023 # ffc01 <_data_lma+0xf720d>
    6ed2:	008007b7          	lui	a5,0x800
    6ed6:	00f96733          	or	a4,s2,a5
    6eda:	00361893          	slli	a7,a2,0x3
    6ede:	410484b3          	sub	s1,s1,a6
    6ee2:	4581                	li	a1,0
    6ee4:	47bd                	li	a5,15
    6ee6:	013ac833          	xor	a6,s5,s3
    6eea:	1a87e463          	bltu	a5,s0,7092 <__divdf3+0x242>
    6eee:	00002797          	auipc	a5,0x2
    6ef2:	ac678793          	addi	a5,a5,-1338 # 89b4 <_ctype_+0x104>
    6ef6:	040a                	slli	s0,s0,0x2
    6ef8:	943e                	add	s0,s0,a5
    6efa:	4010                	lw	a2,0(s0)
    6efc:	963e                	add	a2,a2,a5
    6efe:	8602                	jr	a2
    6f00:	00c96733          	or	a4,s2,a2
    6f04:	80148493          	addi	s1,s1,-2047
    6f08:	10071263          	bnez	a4,700c <__divdf3+0x1bc>
    6f0c:	00246413          	ori	s0,s0,2
    6f10:	4881                	li	a7,0
    6f12:	4589                	li	a1,2
    6f14:	bfc1                	j	6ee4 <__divdf3+0x94>
    6f16:	7ff00613          	li	a2,2047
    6f1a:	4781                	li	a5,0
    6f1c:	4701                	li	a4,0
    6f1e:	07b2                	slli	a5,a5,0xc
    6f20:	50f2                	lw	ra,60(sp)
    6f22:	5462                	lw	s0,56(sp)
    6f24:	0652                	slli	a2,a2,0x14
    6f26:	83b1                	srli	a5,a5,0xc
    6f28:	087e                	slli	a6,a6,0x1f
    6f2a:	8fd1                	or	a5,a5,a2
    6f2c:	0107e7b3          	or	a5,a5,a6
    6f30:	54d2                	lw	s1,52(sp)
    6f32:	5942                	lw	s2,48(sp)
    6f34:	59b2                	lw	s3,44(sp)
    6f36:	5a22                	lw	s4,40(sp)
    6f38:	5a92                	lw	s5,36(sp)
    6f3a:	5b02                	lw	s6,32(sp)
    6f3c:	4bf2                	lw	s7,28(sp)
    6f3e:	853a                	mv	a0,a4
    6f40:	85be                	mv	a1,a5
    6f42:	6121                	addi	sp,sp,64
    6f44:	8082                	ret
    6f46:	4801                	li	a6,0
    6f48:	7ff00613          	li	a2,2047
    6f4c:	000807b7          	lui	a5,0x80
    6f50:	4701                	li	a4,0
    6f52:	b7f1                	j	6f1e <__divdf3+0xce>
    6f54:	00c96733          	or	a4,s2,a2
    6f58:	c74d                	beqz	a4,7002 <__divdf3+0x1b2>
    6f5a:	30090863          	beqz	s2,726a <__divdf3+0x41a>
    6f5e:	854a                	mv	a0,s2
    6f60:	c432                	sw	a2,8(sp)
    6f62:	80ffa0ef          	jal	ra,1770 <__clzsi2>
    6f66:	4622                	lw	a2,8(sp)
    6f68:	ff550713          	addi	a4,a0,-11
    6f6c:	47f5                	li	a5,29
    6f6e:	ff850693          	addi	a3,a0,-8
    6f72:	8f99                	sub	a5,a5,a4
    6f74:	00d91933          	sll	s2,s2,a3
    6f78:	00f657b3          	srl	a5,a2,a5
    6f7c:	0127e733          	or	a4,a5,s2
    6f80:	00d618b3          	sll	a7,a2,a3
    6f84:	9526                	add	a0,a0,s1
    6f86:	3f350493          	addi	s1,a0,1011
    6f8a:	4581                	li	a1,0
    6f8c:	bfa1                	j	6ee4 <__divdf3+0x94>
    6f8e:	01246a33          	or	s4,s0,s2
    6f92:	060a0363          	beqz	s4,6ff8 <__divdf3+0x1a8>
    6f96:	c636                	sw	a3,12(sp)
    6f98:	c432                	sw	a2,8(sp)
    6f9a:	2a040663          	beqz	s0,7246 <__divdf3+0x3f6>
    6f9e:	8522                	mv	a0,s0
    6fa0:	fd0fa0ef          	jal	ra,1770 <__clzsi2>
    6fa4:	4622                	lw	a2,8(sp)
    6fa6:	46b2                	lw	a3,12(sp)
    6fa8:	84aa                	mv	s1,a0
    6faa:	ff550713          	addi	a4,a0,-11
    6fae:	4a75                	li	s4,29
    6fb0:	ff848b13          	addi	s6,s1,-8
    6fb4:	40ea0a33          	sub	s4,s4,a4
    6fb8:	01641433          	sll	s0,s0,s6
    6fbc:	01495a33          	srl	s4,s2,s4
    6fc0:	008a6a33          	or	s4,s4,s0
    6fc4:	01691b33          	sll	s6,s2,s6
    6fc8:	c0d00513          	li	a0,-1011
    6fcc:	409504b3          	sub	s1,a0,s1
    6fd0:	4401                	li	s0,0
    6fd2:	4b81                	li	s7,0
    6fd4:	b5f9                	j	6ea2 <__divdf3+0x52>
    6fd6:	01246a33          	or	s4,s0,s2
    6fda:	000a1863          	bnez	s4,6fea <__divdf3+0x19a>
    6fde:	4421                	li	s0,8
    6fe0:	4b01                	li	s6,0
    6fe2:	7ff00493          	li	s1,2047
    6fe6:	4b89                	li	s7,2
    6fe8:	bd6d                	j	6ea2 <__divdf3+0x52>
    6fea:	8a22                	mv	s4,s0
    6fec:	8b4a                	mv	s6,s2
    6fee:	4431                	li	s0,12
    6ff0:	7ff00493          	li	s1,2047
    6ff4:	4b8d                	li	s7,3
    6ff6:	b575                	j	6ea2 <__divdf3+0x52>
    6ff8:	4411                	li	s0,4
    6ffa:	4b01                	li	s6,0
    6ffc:	4481                	li	s1,0
    6ffe:	4b85                	li	s7,1
    7000:	b54d                	j	6ea2 <__divdf3+0x52>
    7002:	00146413          	ori	s0,s0,1
    7006:	4881                	li	a7,0
    7008:	4585                	li	a1,1
    700a:	bde9                	j	6ee4 <__divdf3+0x94>
    700c:	00346413          	ori	s0,s0,3
    7010:	874a                	mv	a4,s2
    7012:	458d                	li	a1,3
    7014:	bdc1                	j	6ee4 <__divdf3+0x94>
    7016:	2e050a63          	beqz	a0,730a <__divdf3+0x4ba>
    701a:	4785                	li	a5,1
    701c:	8f89                	sub	a5,a5,a0
    701e:	03800693          	li	a3,56
    7022:	32f6dd63          	bge	a3,a5,735c <__divdf3+0x50c>
    7026:	4601                	li	a2,0
    7028:	4781                	li	a5,0
    702a:	4701                	li	a4,0
    702c:	bdcd                	j	6f1e <__divdf3+0xce>
    702e:	86ce                	mv	a3,s3
    7030:	4789                	li	a5,2
    7032:	3af58d63          	beq	a1,a5,73ec <__divdf3+0x59c>
    7036:	478d                	li	a5,3
    7038:	f0f587e3          	beq	a1,a5,6f46 <__divdf3+0xf6>
    703c:	4785                	li	a5,1
    703e:	8836                	mv	a6,a3
    7040:	fef583e3          	beq	a1,a5,7026 <__divdf3+0x1d6>
    7044:	3ff48513          	addi	a0,s1,1023
    7048:	fca057e3          	blez	a0,7016 <__divdf3+0x1c6>
    704c:	0078f793          	andi	a5,a7,7
    7050:	28079663          	bnez	a5,72dc <__divdf3+0x48c>
    7054:	0038d693          	srli	a3,a7,0x3
    7058:	00771793          	slli	a5,a4,0x7
    705c:	0007d863          	bgez	a5,706c <__divdf3+0x21c>
    7060:	ff0007b7          	lui	a5,0xff000
    7064:	17fd                	addi	a5,a5,-1
    7066:	8f7d                	and	a4,a4,a5
    7068:	40048513          	addi	a0,s1,1024
    706c:	7fe00793          	li	a5,2046
    7070:	eaa7c3e3          	blt	a5,a0,6f16 <__divdf3+0xc6>
    7074:	01d71613          	slli	a2,a4,0x1d
    7078:	00971793          	slli	a5,a4,0x9
    707c:	83b1                	srli	a5,a5,0xc
    707e:	00d66733          	or	a4,a2,a3
    7082:	7ff57613          	andi	a2,a0,2047
    7086:	bd61                	j	6f1e <__divdf3+0xce>
    7088:	86d6                	mv	a3,s5
    708a:	8752                	mv	a4,s4
    708c:	88da                	mv	a7,s6
    708e:	85de                	mv	a1,s7
    7090:	b745                	j	7030 <__divdf3+0x1e0>
    7092:	23476163          	bltu	a4,s4,72b4 <__divdf3+0x464>
    7096:	20ea0d63          	beq	s4,a4,72b0 <__divdf3+0x460>
    709a:	86da                	mv	a3,s6
    709c:	14fd                	addi	s1,s1,-1
    709e:	8452                	mv	s0,s4
    70a0:	4b01                	li	s6,0
    70a2:	00871793          	slli	a5,a4,0x8
    70a6:	0188d313          	srli	t1,a7,0x18
    70aa:	00f36333          	or	t1,t1,a5
    70ae:	01035e93          	srli	t4,t1,0x10
    70b2:	03d457b3          	divu	a5,s0,t4
    70b6:	01031f13          	slli	t5,t1,0x10
    70ba:	010f5f13          	srli	t5,t5,0x10
    70be:	0106d593          	srli	a1,a3,0x10
    70c2:	00889e13          	slli	t3,a7,0x8
    70c6:	03d47433          	remu	s0,s0,t4
    70ca:	02ff0733          	mul	a4,t5,a5
    70ce:	0442                	slli	s0,s0,0x10
    70d0:	8dc1                	or	a1,a1,s0
    70d2:	00e5fb63          	bgeu	a1,a4,70e8 <__divdf3+0x298>
    70d6:	959a                	add	a1,a1,t1
    70d8:	fff78613          	addi	a2,a5,-1 # feffffff <_eusrstack+0xdeffafff>
    70dc:	2665ee63          	bltu	a1,t1,7358 <__divdf3+0x508>
    70e0:	26e5fc63          	bgeu	a1,a4,7358 <__divdf3+0x508>
    70e4:	17f9                	addi	a5,a5,-2
    70e6:	959a                	add	a1,a1,t1
    70e8:	8d99                	sub	a1,a1,a4
    70ea:	03d5d733          	divu	a4,a1,t4
    70ee:	06c2                	slli	a3,a3,0x10
    70f0:	82c1                	srli	a3,a3,0x10
    70f2:	03d5f5b3          	remu	a1,a1,t4
    70f6:	02ef0633          	mul	a2,t5,a4
    70fa:	05c2                	slli	a1,a1,0x10
    70fc:	8dd5                	or	a1,a1,a3
    70fe:	00c5fb63          	bgeu	a1,a2,7114 <__divdf3+0x2c4>
    7102:	959a                	add	a1,a1,t1
    7104:	fff70693          	addi	a3,a4,-1 # 7fffff <_data_lma+0x7f760b>
    7108:	2465e663          	bltu	a1,t1,7354 <__divdf3+0x504>
    710c:	24c5f463          	bgeu	a1,a2,7354 <__divdf3+0x504>
    7110:	1779                	addi	a4,a4,-2
    7112:	959a                	add	a1,a1,t1
    7114:	07c2                	slli	a5,a5,0x10
    7116:	6441                	lui	s0,0x10
    7118:	8f5d                	or	a4,a4,a5
    711a:	fff40793          	addi	a5,s0,-1 # ffff <_data_lma+0x760b>
    711e:	00f77533          	and	a0,a4,a5
    7122:	01075893          	srli	a7,a4,0x10
    7126:	010e5f93          	srli	t6,t3,0x10
    712a:	00fe77b3          	and	a5,t3,a5
    712e:	02f502b3          	mul	t0,a0,a5
    7132:	40c586b3          	sub	a3,a1,a2
    7136:	02f883b3          	mul	t2,a7,a5
    713a:	0102d593          	srli	a1,t0,0x10
    713e:	02af8633          	mul	a2,t6,a0
    7142:	961e                	add	a2,a2,t2
    7144:	962e                	add	a2,a2,a1
    7146:	03f88533          	mul	a0,a7,t6
    714a:	00767363          	bgeu	a2,t2,7150 <__divdf3+0x300>
    714e:	9522                	add	a0,a0,s0
    7150:	68c1                	lui	a7,0x10
    7152:	18fd                	addi	a7,a7,-1
    7154:	01065593          	srli	a1,a2,0x10
    7158:	01167633          	and	a2,a2,a7
    715c:	0642                	slli	a2,a2,0x10
    715e:	0112f8b3          	and	a7,t0,a7
    7162:	95aa                	add	a1,a1,a0
    7164:	9646                	add	a2,a2,a7
    7166:	12b6e663          	bltu	a3,a1,7292 <__divdf3+0x442>
    716a:	12b68263          	beq	a3,a1,728e <__divdf3+0x43e>
    716e:	40cb0633          	sub	a2,s6,a2
    7172:	8e8d                	sub	a3,a3,a1
    7174:	00cb3b33          	sltu	s6,s6,a2
    7178:	41668b33          	sub	s6,a3,s6
    717c:	3ff48513          	addi	a0,s1,1023
    7180:	17630c63          	beq	t1,s6,72f8 <__divdf3+0x4a8>
    7184:	03db58b3          	divu	a7,s6,t4
    7188:	01065593          	srli	a1,a2,0x10
    718c:	03db7b33          	remu	s6,s6,t4
    7190:	031f06b3          	mul	a3,t5,a7
    7194:	0b42                	slli	s6,s6,0x10
    7196:	0165eb33          	or	s6,a1,s6
    719a:	00db7b63          	bgeu	s6,a3,71b0 <__divdf3+0x360>
    719e:	9b1a                	add	s6,s6,t1
    71a0:	fff88593          	addi	a1,a7,-1 # ffff <_data_lma+0x760b>
    71a4:	206b6d63          	bltu	s6,t1,73be <__divdf3+0x56e>
    71a8:	20db7b63          	bgeu	s6,a3,73be <__divdf3+0x56e>
    71ac:	18f9                	addi	a7,a7,-2
    71ae:	9b1a                	add	s6,s6,t1
    71b0:	40db0b33          	sub	s6,s6,a3
    71b4:	03db56b3          	divu	a3,s6,t4
    71b8:	0642                	slli	a2,a2,0x10
    71ba:	8241                	srli	a2,a2,0x10
    71bc:	03db7b33          	remu	s6,s6,t4
    71c0:	02df0f33          	mul	t5,t5,a3
    71c4:	0b42                	slli	s6,s6,0x10
    71c6:	01666633          	or	a2,a2,s6
    71ca:	01e67b63          	bgeu	a2,t5,71e0 <__divdf3+0x390>
    71ce:	961a                	add	a2,a2,t1
    71d0:	fff68593          	addi	a1,a3,-1 # 7fffff <_data_lma+0x7f760b>
    71d4:	1e666763          	bltu	a2,t1,73c2 <__divdf3+0x572>
    71d8:	1fe67563          	bgeu	a2,t5,73c2 <__divdf3+0x572>
    71dc:	16f9                	addi	a3,a3,-2
    71de:	961a                	add	a2,a2,t1
    71e0:	08c2                	slli	a7,a7,0x10
    71e2:	00d8e8b3          	or	a7,a7,a3
    71e6:	01089593          	slli	a1,a7,0x10
    71ea:	0108d293          	srli	t0,a7,0x10
    71ee:	81c1                	srli	a1,a1,0x10
    71f0:	02f58eb3          	mul	t4,a1,a5
    71f4:	41e60633          	sub	a2,a2,t5
    71f8:	02bf85b3          	mul	a1,t6,a1
    71fc:	010ed693          	srli	a3,t4,0x10
    7200:	02f287b3          	mul	a5,t0,a5
    7204:	95be                	add	a1,a1,a5
    7206:	96ae                	add	a3,a3,a1
    7208:	025f8fb3          	mul	t6,t6,t0
    720c:	00f6f463          	bgeu	a3,a5,7214 <__divdf3+0x3c4>
    7210:	67c1                	lui	a5,0x10
    7212:	9fbe                	add	t6,t6,a5
    7214:	65c1                	lui	a1,0x10
    7216:	15fd                	addi	a1,a1,-1
    7218:	0106d793          	srli	a5,a3,0x10
    721c:	8eed                	and	a3,a3,a1
    721e:	06c2                	slli	a3,a3,0x10
    7220:	00befeb3          	and	t4,t4,a1
    7224:	9fbe                	add	t6,t6,a5
    7226:	96f6                	add	a3,a3,t4
    7228:	09f67f63          	bgeu	a2,t6,72c6 <__divdf3+0x476>
    722c:	961a                	add	a2,a2,t1
    722e:	fff88793          	addi	a5,a7,-1
    7232:	1a666963          	bltu	a2,t1,73e4 <__divdf3+0x594>
    7236:	19f66863          	bltu	a2,t6,73c6 <__divdf3+0x576>
    723a:	1bf60f63          	beq	a2,t6,73f8 <__divdf3+0x5a8>
    723e:	88be                	mv	a7,a5
    7240:	0018e893          	ori	a7,a7,1
    7244:	b511                	j	7048 <__divdf3+0x1f8>
    7246:	854a                	mv	a0,s2
    7248:	d28fa0ef          	jal	ra,1770 <__clzsi2>
    724c:	01550713          	addi	a4,a0,21
    7250:	45f1                	li	a1,28
    7252:	02050493          	addi	s1,a0,32
    7256:	4622                	lw	a2,8(sp)
    7258:	46b2                	lw	a3,12(sp)
    725a:	d4e5dae3          	bge	a1,a4,6fae <__divdf3+0x15e>
    725e:	ff850413          	addi	s0,a0,-8
    7262:	00891a33          	sll	s4,s2,s0
    7266:	4b01                	li	s6,0
    7268:	b385                	j	6fc8 <__divdf3+0x178>
    726a:	8532                	mv	a0,a2
    726c:	c432                	sw	a2,8(sp)
    726e:	d02fa0ef          	jal	ra,1770 <__clzsi2>
    7272:	01550713          	addi	a4,a0,21
    7276:	46f1                	li	a3,28
    7278:	87aa                	mv	a5,a0
    727a:	4622                	lw	a2,8(sp)
    727c:	02050513          	addi	a0,a0,32
    7280:	cee6d6e3          	bge	a3,a4,6f6c <__divdf3+0x11c>
    7284:	17e1                	addi	a5,a5,-8
    7286:	00f61733          	sll	a4,a2,a5
    728a:	4881                	li	a7,0
    728c:	b9e5                	j	6f84 <__divdf3+0x134>
    728e:	eecb70e3          	bgeu	s6,a2,716e <__divdf3+0x31e>
    7292:	9b72                	add	s6,s6,t3
    7294:	01cb3533          	sltu	a0,s6,t3
    7298:	951a                	add	a0,a0,t1
    729a:	96aa                	add	a3,a3,a0
    729c:	fff70513          	addi	a0,a4,-1
    72a0:	02d37863          	bgeu	t1,a3,72d0 <__divdf3+0x480>
    72a4:	10b6e663          	bltu	a3,a1,73b0 <__divdf3+0x560>
    72a8:	10d58263          	beq	a1,a3,73ac <__divdf3+0x55c>
    72ac:	872a                	mv	a4,a0
    72ae:	b5c1                	j	716e <__divdf3+0x31e>
    72b0:	df1b65e3          	bltu	s6,a7,709a <__divdf3+0x24a>
    72b4:	001b5593          	srli	a1,s6,0x1
    72b8:	01fa1693          	slli	a3,s4,0x1f
    72bc:	001a5413          	srli	s0,s4,0x1
    72c0:	8ecd                	or	a3,a3,a1
    72c2:	0b7e                	slli	s6,s6,0x1f
    72c4:	bbf9                	j	70a2 <__divdf3+0x252>
    72c6:	f7f61de3          	bne	a2,t6,7240 <__divdf3+0x3f0>
    72ca:	d6068fe3          	beqz	a3,7048 <__divdf3+0x1f8>
    72ce:	bfb9                	j	722c <__divdf3+0x3dc>
    72d0:	fcd31ee3          	bne	t1,a3,72ac <__divdf3+0x45c>
    72d4:	fdcb78e3          	bgeu	s6,t3,72a4 <__divdf3+0x454>
    72d8:	872a                	mv	a4,a0
    72da:	bd51                	j	716e <__divdf3+0x31e>
    72dc:	00f8f793          	andi	a5,a7,15
    72e0:	4691                	li	a3,4
    72e2:	d6d789e3          	beq	a5,a3,7054 <__divdf3+0x204>
    72e6:	ffc8b793          	sltiu	a5,a7,-4
    72ea:	00488693          	addi	a3,a7,4
    72ee:	0017c793          	xori	a5,a5,1
    72f2:	828d                	srli	a3,a3,0x3
    72f4:	973e                	add	a4,a4,a5
    72f6:	b38d                	j	7058 <__divdf3+0x208>
    72f8:	4681                	li	a3,0
    72fa:	4785                	li	a5,1
    72fc:	fea04ce3          	bgtz	a0,72f4 <__divdf3+0x4a4>
    7300:	58fd                	li	a7,-1
    7302:	d0051ce3          	bnez	a0,701a <__divdf3+0x1ca>
    7306:	c0100493          	li	s1,-1023
    730a:	4785                	li	a5,1
    730c:	41e48513          	addi	a0,s1,1054
    7310:	00a716b3          	sll	a3,a4,a0
    7314:	00f8d633          	srl	a2,a7,a5
    7318:	00a89533          	sll	a0,a7,a0
    731c:	8ed1                	or	a3,a3,a2
    731e:	00a03533          	snez	a0,a0
    7322:	8ec9                	or	a3,a3,a0
    7324:	0076f613          	andi	a2,a3,7
    7328:	00f75733          	srl	a4,a4,a5
    732c:	ce01                	beqz	a2,7344 <__divdf3+0x4f4>
    732e:	00f6f793          	andi	a5,a3,15
    7332:	4611                	li	a2,4
    7334:	00c78863          	beq	a5,a2,7344 <__divdf3+0x4f4>
    7338:	00468793          	addi	a5,a3,4
    733c:	00d7b6b3          	sltu	a3,a5,a3
    7340:	9736                	add	a4,a4,a3
    7342:	86be                	mv	a3,a5
    7344:	00871793          	slli	a5,a4,0x8
    7348:	0407d863          	bgez	a5,7398 <__divdf3+0x548>
    734c:	4605                	li	a2,1
    734e:	4781                	li	a5,0
    7350:	4701                	li	a4,0
    7352:	b6f1                	j	6f1e <__divdf3+0xce>
    7354:	8736                	mv	a4,a3
    7356:	bb7d                	j	7114 <__divdf3+0x2c4>
    7358:	87b2                	mv	a5,a2
    735a:	b379                	j	70e8 <__divdf3+0x298>
    735c:	46fd                	li	a3,31
    735e:	faf6d7e3          	bge	a3,a5,730c <__divdf3+0x4bc>
    7362:	5605                	li	a2,-31
    7364:	8e09                	sub	a2,a2,a0
    7366:	02000693          	li	a3,32
    736a:	00c75633          	srl	a2,a4,a2
    736e:	00d78863          	beq	a5,a3,737e <__divdf3+0x52e>
    7372:	43e48793          	addi	a5,s1,1086
    7376:	00f717b3          	sll	a5,a4,a5
    737a:	00f8e8b3          	or	a7,a7,a5
    737e:	011036b3          	snez	a3,a7
    7382:	8ed1                	or	a3,a3,a2
    7384:	0076f613          	andi	a2,a3,7
    7388:	4781                	li	a5,0
    738a:	ce01                	beqz	a2,73a2 <__divdf3+0x552>
    738c:	00f6f793          	andi	a5,a3,15
    7390:	4611                	li	a2,4
    7392:	4701                	li	a4,0
    7394:	fac792e3          	bne	a5,a2,7338 <__divdf3+0x4e8>
    7398:	00971793          	slli	a5,a4,0x9
    739c:	01d71613          	slli	a2,a4,0x1d
    73a0:	83b1                	srli	a5,a5,0xc
    73a2:	0036d713          	srli	a4,a3,0x3
    73a6:	8f51                	or	a4,a4,a2
    73a8:	4601                	li	a2,0
    73aa:	be95                	j	6f1e <__divdf3+0xce>
    73ac:	f0cb70e3          	bgeu	s6,a2,72ac <__divdf3+0x45c>
    73b0:	9b72                	add	s6,s6,t3
    73b2:	01cb3533          	sltu	a0,s6,t3
    73b6:	951a                	add	a0,a0,t1
    73b8:	1779                	addi	a4,a4,-2
    73ba:	96aa                	add	a3,a3,a0
    73bc:	bb4d                	j	716e <__divdf3+0x31e>
    73be:	88ae                	mv	a7,a1
    73c0:	bbc5                	j	71b0 <__divdf3+0x360>
    73c2:	86ae                	mv	a3,a1
    73c4:	bd31                	j	71e0 <__divdf3+0x390>
    73c6:	001e1793          	slli	a5,t3,0x1
    73ca:	01c7be33          	sltu	t3,a5,t3
    73ce:	9372                	add	t1,t1,t3
    73d0:	961a                	add	a2,a2,t1
    73d2:	18f9                	addi	a7,a7,-2
    73d4:	8e3e                	mv	t3,a5
    73d6:	e7f615e3          	bne	a2,t6,7240 <__divdf3+0x3f0>
    73da:	c6de07e3          	beq	t3,a3,7048 <__divdf3+0x1f8>
    73de:	0018e893          	ori	a7,a7,1
    73e2:	b19d                	j	7048 <__divdf3+0x1f8>
    73e4:	88be                	mv	a7,a5
    73e6:	fff60ae3          	beq	a2,t6,73da <__divdf3+0x58a>
    73ea:	bd99                	j	7240 <__divdf3+0x3f0>
    73ec:	8836                	mv	a6,a3
    73ee:	7ff00613          	li	a2,2047
    73f2:	4781                	li	a5,0
    73f4:	4701                	li	a4,0
    73f6:	b625                	j	6f1e <__divdf3+0xce>
    73f8:	fcde67e3          	bltu	t3,a3,73c6 <__divdf3+0x576>
    73fc:	88be                	mv	a7,a5
    73fe:	fede10e3          	bne	t3,a3,73de <__divdf3+0x58e>
    7402:	b199                	j	7048 <__divdf3+0x1f8>

00007404 <__eqdf2>:
    7404:	0145d713          	srli	a4,a1,0x14
    7408:	001007b7          	lui	a5,0x100
    740c:	17fd                	addi	a5,a5,-1
    740e:	0146d813          	srli	a6,a3,0x14
    7412:	7ff77713          	andi	a4,a4,2047
    7416:	7ff00893          	li	a7,2047
    741a:	00b7fe33          	and	t3,a5,a1
    741e:	8eaa                	mv	t4,a0
    7420:	8ff5                	and	a5,a5,a3
    7422:	81fd                	srli	a1,a1,0x1f
    7424:	8f32                	mv	t5,a2
    7426:	7ff87813          	andi	a6,a6,2047
    742a:	82fd                	srli	a3,a3,0x1f
    742c:	01170b63          	beq	a4,a7,7442 <__eqdf2+0x3e>
    7430:	4305                	li	t1,1
    7432:	01180663          	beq	a6,a7,743e <__eqdf2+0x3a>
    7436:	01071463          	bne	a4,a6,743e <__eqdf2+0x3a>
    743a:	00fe0d63          	beq	t3,a5,7454 <__eqdf2+0x50>
    743e:	851a                	mv	a0,t1
    7440:	8082                	ret
    7442:	00ae68b3          	or	a7,t3,a0
    7446:	4305                	li	t1,1
    7448:	fe089be3          	bnez	a7,743e <__eqdf2+0x3a>
    744c:	fee819e3          	bne	a6,a4,743e <__eqdf2+0x3a>
    7450:	8fd1                	or	a5,a5,a2
    7452:	f7f5                	bnez	a5,743e <__eqdf2+0x3a>
    7454:	4305                	li	t1,1
    7456:	ffee94e3          	bne	t4,t5,743e <__eqdf2+0x3a>
    745a:	4301                	li	t1,0
    745c:	fed581e3          	beq	a1,a3,743e <__eqdf2+0x3a>
    7460:	4305                	li	t1,1
    7462:	ff71                	bnez	a4,743e <__eqdf2+0x3a>
    7464:	00ae6533          	or	a0,t3,a0
    7468:	00a03333          	snez	t1,a0
    746c:	bfc9                	j	743e <__eqdf2+0x3a>

0000746e <__gedf2>:
    746e:	0145d713          	srli	a4,a1,0x14
    7472:	001007b7          	lui	a5,0x100
    7476:	17fd                	addi	a5,a5,-1
    7478:	0146d813          	srli	a6,a3,0x14
    747c:	7ff77713          	andi	a4,a4,2047
    7480:	7ff00893          	li	a7,2047
    7484:	00b7f333          	and	t1,a5,a1
    7488:	8e2a                	mv	t3,a0
    748a:	8ff5                	and	a5,a5,a3
    748c:	81fd                	srli	a1,a1,0x1f
    748e:	8eb2                	mv	t4,a2
    7490:	7ff87813          	andi	a6,a6,2047
    7494:	82fd                	srli	a3,a3,0x1f
    7496:	03170863          	beq	a4,a7,74c6 <__gedf2+0x58>
    749a:	03180063          	beq	a6,a7,74ba <__gedf2+0x4c>
    749e:	eb0d                	bnez	a4,74d0 <__gedf2+0x62>
    74a0:	00a368b3          	or	a7,t1,a0
    74a4:	00081463          	bnez	a6,74ac <__gedf2+0x3e>
    74a8:	8e5d                	or	a2,a2,a5
    74aa:	ca29                	beqz	a2,74fc <__gedf2+0x8e>
    74ac:	04088563          	beqz	a7,74f6 <__gedf2+0x88>
    74b0:	02d58863          	beq	a1,a3,74e0 <__gedf2+0x72>
    74b4:	4505                	li	a0,1
    74b6:	ed95                	bnez	a1,74f2 <__gedf2+0x84>
    74b8:	8082                	ret
    74ba:	00c7e8b3          	or	a7,a5,a2
    74be:	fe0880e3          	beqz	a7,749e <__gedf2+0x30>
    74c2:	5579                	li	a0,-2
    74c4:	8082                	ret
    74c6:	00a36533          	or	a0,t1,a0
    74ca:	fd65                	bnez	a0,74c2 <__gedf2+0x54>
    74cc:	02e80c63          	beq	a6,a4,7504 <__gedf2+0x96>
    74d0:	00081463          	bnez	a6,74d8 <__gedf2+0x6a>
    74d4:	8e5d                	or	a2,a2,a5
    74d6:	de79                	beqz	a2,74b4 <__gedf2+0x46>
    74d8:	fcd59ee3          	bne	a1,a3,74b4 <__gedf2+0x46>
    74dc:	fce84ce3          	blt	a6,a4,74b4 <__gedf2+0x46>
    74e0:	01074863          	blt	a4,a6,74f0 <__gedf2+0x82>
    74e4:	fc67e8e3          	bltu	a5,t1,74b4 <__gedf2+0x46>
    74e8:	02f30363          	beq	t1,a5,750e <__gedf2+0xa0>
    74ec:	00f37f63          	bgeu	t1,a5,750a <__gedf2+0x9c>
    74f0:	e581                	bnez	a1,74f8 <__gedf2+0x8a>
    74f2:	557d                	li	a0,-1
    74f4:	8082                	ret
    74f6:	def5                	beqz	a3,74f2 <__gedf2+0x84>
    74f8:	4505                	li	a0,1
    74fa:	8082                	ret
    74fc:	4501                	li	a0,0
    74fe:	fa089be3          	bnez	a7,74b4 <__gedf2+0x46>
    7502:	8082                	ret
    7504:	8e5d                	or	a2,a2,a5
    7506:	da69                	beqz	a2,74d8 <__gedf2+0x6a>
    7508:	bf6d                	j	74c2 <__gedf2+0x54>
    750a:	4501                	li	a0,0
    750c:	8082                	ret
    750e:	fbcee3e3          	bltu	t4,t3,74b4 <__gedf2+0x46>
    7512:	4501                	li	a0,0
    7514:	fbde72e3          	bgeu	t3,t4,74b8 <__gedf2+0x4a>
    7518:	f1e5                	bnez	a1,74f8 <__gedf2+0x8a>
    751a:	bfe1                	j	74f2 <__gedf2+0x84>

0000751c <__ledf2>:
    751c:	0145d713          	srli	a4,a1,0x14
    7520:	001007b7          	lui	a5,0x100
    7524:	17fd                	addi	a5,a5,-1
    7526:	0146d813          	srli	a6,a3,0x14
    752a:	7ff77713          	andi	a4,a4,2047
    752e:	7ff00893          	li	a7,2047
    7532:	00b7fe33          	and	t3,a5,a1
    7536:	8eaa                	mv	t4,a0
    7538:	8ff5                	and	a5,a5,a3
    753a:	81fd                	srli	a1,a1,0x1f
    753c:	8f32                	mv	t5,a2
    753e:	7ff87813          	andi	a6,a6,2047
    7542:	82fd                	srli	a3,a3,0x1f
    7544:	03170e63          	beq	a4,a7,7580 <__ledf2+0x64>
    7548:	01180d63          	beq	a6,a7,7562 <__ledf2+0x46>
    754c:	e329                	bnez	a4,758e <__ledf2+0x72>
    754e:	00ae68b3          	or	a7,t3,a0
    7552:	00081f63          	bnez	a6,7570 <__ledf2+0x54>
    7556:	8e5d                	or	a2,a2,a5
    7558:	ee01                	bnez	a2,7570 <__ledf2+0x54>
    755a:	4301                	li	t1,0
    755c:	04088c63          	beqz	a7,75b4 <__ledf2+0x98>
    7560:	a821                	j	7578 <__ledf2+0x5c>
    7562:	00c7e8b3          	or	a7,a5,a2
    7566:	4309                	li	t1,2
    7568:	04089663          	bnez	a7,75b4 <__ledf2+0x98>
    756c:	d36d                	beqz	a4,754e <__ledf2+0x32>
    756e:	a005                	j	758e <__ledf2+0x72>
    7570:	04088463          	beqz	a7,75b8 <__ledf2+0x9c>
    7574:	02d58563          	beq	a1,a3,759e <__ledf2+0x82>
    7578:	4305                	li	t1,1
    757a:	cd8d                	beqz	a1,75b4 <__ledf2+0x98>
    757c:	537d                	li	t1,-1
    757e:	a81d                	j	75b4 <__ledf2+0x98>
    7580:	00ae68b3          	or	a7,t3,a0
    7584:	4309                	li	t1,2
    7586:	02089763          	bnez	a7,75b4 <__ledf2+0x98>
    758a:	02e80a63          	beq	a6,a4,75be <__ledf2+0xa2>
    758e:	00081463          	bnez	a6,7596 <__ledf2+0x7a>
    7592:	8e5d                	or	a2,a2,a5
    7594:	d275                	beqz	a2,7578 <__ledf2+0x5c>
    7596:	fed591e3          	bne	a1,a3,7578 <__ledf2+0x5c>
    759a:	fce84fe3          	blt	a6,a4,7578 <__ledf2+0x5c>
    759e:	01074963          	blt	a4,a6,75b0 <__ledf2+0x94>
    75a2:	fdc7ebe3          	bltu	a5,t3,7578 <__ledf2+0x5c>
    75a6:	00fe0f63          	beq	t3,a5,75c4 <__ledf2+0xa8>
    75aa:	4301                	li	t1,0
    75ac:	00fe7463          	bgeu	t3,a5,75b4 <__ledf2+0x98>
    75b0:	d5f1                	beqz	a1,757c <__ledf2+0x60>
    75b2:	4305                	li	t1,1
    75b4:	851a                	mv	a0,t1
    75b6:	8082                	ret
    75b8:	feed                	bnez	a3,75b2 <__ledf2+0x96>
    75ba:	537d                	li	t1,-1
    75bc:	bfe5                	j	75b4 <__ledf2+0x98>
    75be:	8e5d                	or	a2,a2,a5
    75c0:	da79                	beqz	a2,7596 <__ledf2+0x7a>
    75c2:	bfcd                	j	75b4 <__ledf2+0x98>
    75c4:	fbdf6ae3          	bltu	t5,t4,7578 <__ledf2+0x5c>
    75c8:	4301                	li	t1,0
    75ca:	ffeef5e3          	bgeu	t4,t5,75b4 <__ledf2+0x98>
    75ce:	f1f5                	bnez	a1,75b2 <__ledf2+0x96>
    75d0:	b775                	j	757c <__ledf2+0x60>

000075d2 <__subdf3>:
    75d2:	00100737          	lui	a4,0x100
    75d6:	177d                	addi	a4,a4,-1
    75d8:	1101                	addi	sp,sp,-32
    75da:	00b77333          	and	t1,a4,a1
    75de:	0146d893          	srli	a7,a3,0x14
    75e2:	8f75                	and	a4,a4,a3
    75e4:	01d65e93          	srli	t4,a2,0x1d
    75e8:	cc22                	sw	s0,24(sp)
    75ea:	ca26                	sw	s1,20(sp)
    75ec:	030e                	slli	t1,t1,0x3
    75ee:	0145d493          	srli	s1,a1,0x14
    75f2:	01d55793          	srli	a5,a0,0x1d
    75f6:	070e                	slli	a4,a4,0x3
    75f8:	ce06                	sw	ra,28(sp)
    75fa:	c84a                	sw	s2,16(sp)
    75fc:	c64e                	sw	s3,12(sp)
    75fe:	7ff8f893          	andi	a7,a7,2047
    7602:	7ff00e13          	li	t3,2047
    7606:	00eee733          	or	a4,t4,a4
    760a:	7ff4f493          	andi	s1,s1,2047
    760e:	01f5d413          	srli	s0,a1,0x1f
    7612:	0067e333          	or	t1,a5,t1
    7616:	00351f13          	slli	t5,a0,0x3
    761a:	82fd                	srli	a3,a3,0x1f
    761c:	00361e93          	slli	t4,a2,0x3
    7620:	19c88063          	beq	a7,t3,77a0 <__subdf3+0x1ce>
    7624:	0016c693          	xori	a3,a3,1
    7628:	411485b3          	sub	a1,s1,a7
    762c:	12d40563          	beq	s0,a3,7756 <__subdf3+0x184>
    7630:	18b05163          	blez	a1,77b2 <__subdf3+0x1e0>
    7634:	1a088b63          	beqz	a7,77ea <__subdf3+0x218>
    7638:	008007b7          	lui	a5,0x800
    763c:	8f5d                	or	a4,a4,a5
    763e:	59c48163          	beq	s1,t3,7bc0 <__subdf3+0x5ee>
    7642:	03800793          	li	a5,56
    7646:	34b7c463          	blt	a5,a1,798e <__subdf3+0x3bc>
    764a:	47fd                	li	a5,31
    764c:	48b7c563          	blt	a5,a1,7ad6 <__subdf3+0x504>
    7650:	02000793          	li	a5,32
    7654:	8f8d                	sub	a5,a5,a1
    7656:	00bed9b3          	srl	s3,t4,a1
    765a:	00f71833          	sll	a6,a4,a5
    765e:	00fe9eb3          	sll	t4,t4,a5
    7662:	01386833          	or	a6,a6,s3
    7666:	00b75733          	srl	a4,a4,a1
    766a:	01d039b3          	snez	s3,t4
    766e:	01386833          	or	a6,a6,s3
    7672:	40e30333          	sub	t1,t1,a4
    7676:	410f09b3          	sub	s3,t5,a6
    767a:	013f37b3          	sltu	a5,t5,s3
    767e:	40f30633          	sub	a2,t1,a5
    7682:	00861793          	slli	a5,a2,0x8
    7686:	2407d363          	bgez	a5,78cc <__subdf3+0x2fa>
    768a:	00800937          	lui	s2,0x800
    768e:	197d                	addi	s2,s2,-1
    7690:	01267933          	and	s2,a2,s2
    7694:	2c090f63          	beqz	s2,7972 <__subdf3+0x3a0>
    7698:	854a                	mv	a0,s2
    769a:	8d6fa0ef          	jal	ra,1770 <__clzsi2>
    769e:	ff850713          	addi	a4,a0,-8
    76a2:	02000793          	li	a5,32
    76a6:	8f99                	sub	a5,a5,a4
    76a8:	00f9d7b3          	srl	a5,s3,a5
    76ac:	00e91633          	sll	a2,s2,a4
    76b0:	8fd1                	or	a5,a5,a2
    76b2:	00e999b3          	sll	s3,s3,a4
    76b6:	2a974463          	blt	a4,s1,795e <__subdf3+0x38c>
    76ba:	8f05                	sub	a4,a4,s1
    76bc:	00170613          	addi	a2,a4,1 # 100001 <_data_lma+0xf760d>
    76c0:	46fd                	li	a3,31
    76c2:	3ac6c563          	blt	a3,a2,7a6c <__subdf3+0x49a>
    76c6:	02000713          	li	a4,32
    76ca:	8f11                	sub	a4,a4,a2
    76cc:	00c9d6b3          	srl	a3,s3,a2
    76d0:	00e99833          	sll	a6,s3,a4
    76d4:	00e79733          	sll	a4,a5,a4
    76d8:	8f55                	or	a4,a4,a3
    76da:	01003833          	snez	a6,a6
    76de:	010769b3          	or	s3,a4,a6
    76e2:	00c7d633          	srl	a2,a5,a2
    76e6:	4481                	li	s1,0
    76e8:	0079f793          	andi	a5,s3,7
    76ec:	cf81                	beqz	a5,7704 <__subdf3+0x132>
    76ee:	00f9f693          	andi	a3,s3,15
    76f2:	4791                	li	a5,4
    76f4:	00f68863          	beq	a3,a5,7704 <__subdf3+0x132>
    76f8:	00498693          	addi	a3,s3,4
    76fc:	0136b833          	sltu	a6,a3,s3
    7700:	9642                	add	a2,a2,a6
    7702:	89b6                	mv	s3,a3
    7704:	00861793          	slli	a5,a2,0x8
    7708:	1c07d663          	bgez	a5,78d4 <__subdf3+0x302>
    770c:	00148713          	addi	a4,s1,1
    7710:	7ff00793          	li	a5,2047
    7714:	8805                	andi	s0,s0,1
    7716:	20f70663          	beq	a4,a5,7922 <__subdf3+0x350>
    771a:	ff8007b7          	lui	a5,0xff800
    771e:	17fd                	addi	a5,a5,-1
    7720:	8ff1                	and	a5,a5,a2
    7722:	01d79813          	slli	a6,a5,0x1d
    7726:	0039d993          	srli	s3,s3,0x3
    772a:	07a6                	slli	a5,a5,0x9
    772c:	01386833          	or	a6,a6,s3
    7730:	83b1                	srli	a5,a5,0xc
    7732:	7ff77713          	andi	a4,a4,2047
    7736:	00c79693          	slli	a3,a5,0xc
    773a:	0752                	slli	a4,a4,0x14
    773c:	82b1                	srli	a3,a3,0xc
    773e:	047e                	slli	s0,s0,0x1f
    7740:	8ed9                	or	a3,a3,a4
    7742:	8ec1                	or	a3,a3,s0
    7744:	40f2                	lw	ra,28(sp)
    7746:	4462                	lw	s0,24(sp)
    7748:	44d2                	lw	s1,20(sp)
    774a:	4942                	lw	s2,16(sp)
    774c:	49b2                	lw	s3,12(sp)
    774e:	8542                	mv	a0,a6
    7750:	85b6                	mv	a1,a3
    7752:	6105                	addi	sp,sp,32
    7754:	8082                	ret
    7756:	0ab05663          	blez	a1,7802 <__subdf3+0x230>
    775a:	12088a63          	beqz	a7,788e <__subdf3+0x2bc>
    775e:	008007b7          	lui	a5,0x800
    7762:	8f5d                	or	a4,a4,a5
    7764:	2dc48763          	beq	s1,t3,7a32 <__subdf3+0x460>
    7768:	03800793          	li	a5,56
    776c:	18b7c763          	blt	a5,a1,78fa <__subdf3+0x328>
    7770:	47fd                	li	a5,31
    7772:	3cb7d263          	bge	a5,a1,7b36 <__subdf3+0x564>
    7776:	fe058813          	addi	a6,a1,-32 # ffe0 <_data_lma+0x75ec>
    777a:	02000793          	li	a5,32
    777e:	010759b3          	srl	s3,a4,a6
    7782:	00f58a63          	beq	a1,a5,7796 <__subdf3+0x1c4>
    7786:	04000793          	li	a5,64
    778a:	40b785b3          	sub	a1,a5,a1
    778e:	00b71733          	sll	a4,a4,a1
    7792:	00eeeeb3          	or	t4,t4,a4
    7796:	01d03833          	snez	a6,t4
    779a:	01386833          	or	a6,a6,s3
    779e:	a295                	j	7902 <__subdf3+0x330>
    77a0:	01d767b3          	or	a5,a4,t4
    77a4:	80148593          	addi	a1,s1,-2047
    77a8:	e399                	bnez	a5,77ae <__subdf3+0x1dc>
    77aa:	0016c693          	xori	a3,a3,1
    77ae:	04d40a63          	beq	s0,a3,7802 <__subdf3+0x230>
    77b2:	e1d1                	bnez	a1,7836 <__subdf3+0x264>
    77b4:	00148793          	addi	a5,s1,1
    77b8:	7fe7f793          	andi	a5,a5,2046
    77bc:	1e079963          	bnez	a5,79ae <__subdf3+0x3dc>
    77c0:	01e367b3          	or	a5,t1,t5
    77c4:	01d76833          	or	a6,a4,t4
    77c8:	16049263          	bnez	s1,792c <__subdf3+0x35a>
    77cc:	3c078263          	beqz	a5,7b90 <__subdf3+0x5be>
    77d0:	42081663          	bnez	a6,7bfc <__subdf3+0x62a>
    77d4:	00351813          	slli	a6,a0,0x3
    77d8:	01d31693          	slli	a3,t1,0x1d
    77dc:	00385813          	srli	a6,a6,0x3
    77e0:	0106e833          	or	a6,a3,a6
    77e4:	00335793          	srli	a5,t1,0x3
    77e8:	a219                	j	78ee <__subdf3+0x31c>
    77ea:	01d767b3          	or	a5,a4,t4
    77ee:	1a078563          	beqz	a5,7998 <__subdf3+0x3c6>
    77f2:	fff58793          	addi	a5,a1,-1
    77f6:	3a078b63          	beqz	a5,7bac <__subdf3+0x5da>
    77fa:	23c58c63          	beq	a1,t3,7a32 <__subdf3+0x460>
    77fe:	85be                	mv	a1,a5
    7800:	b589                	j	7642 <__subdf3+0x70>
    7802:	1c059963          	bnez	a1,79d4 <__subdf3+0x402>
    7806:	00148693          	addi	a3,s1,1
    780a:	7fe6f793          	andi	a5,a3,2046
    780e:	efc1                	bnez	a5,78a6 <__subdf3+0x2d4>
    7810:	01e367b3          	or	a5,t1,t5
    7814:	36049063          	bnez	s1,7b74 <__subdf3+0x5a2>
    7818:	44078d63          	beqz	a5,7c72 <__subdf3+0x6a0>
    781c:	01d767b3          	or	a5,a4,t4
    7820:	46079463          	bnez	a5,7c88 <__subdf3+0x6b6>
    7824:	050e                	slli	a0,a0,0x3
    7826:	01d31813          	slli	a6,t1,0x1d
    782a:	810d                	srli	a0,a0,0x3
    782c:	00a86833          	or	a6,a6,a0
    7830:	00335793          	srli	a5,t1,0x3
    7834:	a86d                	j	78ee <__subdf3+0x31c>
    7836:	409885b3          	sub	a1,a7,s1
    783a:	20049763          	bnez	s1,7a48 <__subdf3+0x476>
    783e:	01e367b3          	or	a5,t1,t5
    7842:	30078d63          	beqz	a5,7b5c <__subdf3+0x58a>
    7846:	fff58793          	addi	a5,a1,-1
    784a:	40078963          	beqz	a5,7c5c <__subdf3+0x68a>
    784e:	7ff00513          	li	a0,2047
    7852:	20a58363          	beq	a1,a0,7a58 <__subdf3+0x486>
    7856:	85be                	mv	a1,a5
    7858:	03800793          	li	a5,56
    785c:	2ab7c263          	blt	a5,a1,7b00 <__subdf3+0x52e>
    7860:	47fd                	li	a5,31
    7862:	3cb7c863          	blt	a5,a1,7c32 <__subdf3+0x660>
    7866:	02000793          	li	a5,32
    786a:	8f8d                	sub	a5,a5,a1
    786c:	00f31833          	sll	a6,t1,a5
    7870:	00bf5633          	srl	a2,t5,a1
    7874:	00ff17b3          	sll	a5,t5,a5
    7878:	00c86833          	or	a6,a6,a2
    787c:	00f039b3          	snez	s3,a5
    7880:	00b35333          	srl	t1,t1,a1
    7884:	01386833          	or	a6,a6,s3
    7888:	40670733          	sub	a4,a4,t1
    788c:	acb5                	j	7b08 <__subdf3+0x536>
    788e:	01d767b3          	or	a5,a4,t4
    7892:	10078363          	beqz	a5,7998 <__subdf3+0x3c6>
    7896:	fff58793          	addi	a5,a1,-1
    789a:	1e078f63          	beqz	a5,7a98 <__subdf3+0x4c6>
    789e:	2fc58063          	beq	a1,t3,7b7e <__subdf3+0x5ac>
    78a2:	85be                	mv	a1,a5
    78a4:	b5d1                	j	7768 <__subdf3+0x196>
    78a6:	7ff00793          	li	a5,2047
    78aa:	06f68b63          	beq	a3,a5,7920 <__subdf3+0x34e>
    78ae:	9efa                	add	t4,t4,t5
    78b0:	01eeb633          	sltu	a2,t4,t5
    78b4:	00e307b3          	add	a5,t1,a4
    78b8:	97b2                	add	a5,a5,a2
    78ba:	01f79813          	slli	a6,a5,0x1f
    78be:	001ede93          	srli	t4,t4,0x1
    78c2:	01d869b3          	or	s3,a6,t4
    78c6:	0017d613          	srli	a2,a5,0x1
    78ca:	84b6                	mv	s1,a3
    78cc:	0079f793          	andi	a5,s3,7
    78d0:	e0079fe3          	bnez	a5,76ee <__subdf3+0x11c>
    78d4:	01d61793          	slli	a5,a2,0x1d
    78d8:	0039d813          	srli	a6,s3,0x3
    78dc:	00f86833          	or	a6,a6,a5
    78e0:	85a6                	mv	a1,s1
    78e2:	00365793          	srli	a5,a2,0x3
    78e6:	7ff00713          	li	a4,2047
    78ea:	06e58063          	beq	a1,a4,794a <__subdf3+0x378>
    78ee:	07b2                	slli	a5,a5,0xc
    78f0:	83b1                	srli	a5,a5,0xc
    78f2:	7ff5f713          	andi	a4,a1,2047
    78f6:	8805                	andi	s0,s0,1
    78f8:	bd3d                	j	7736 <__subdf3+0x164>
    78fa:	01d76733          	or	a4,a4,t4
    78fe:	00e03833          	snez	a6,a4
    7902:	01e809b3          	add	s3,a6,t5
    7906:	01e9b7b3          	sltu	a5,s3,t5
    790a:	00678633          	add	a2,a5,t1
    790e:	00861793          	slli	a5,a2,0x8
    7912:	fa07dde3          	bgez	a5,78cc <__subdf3+0x2fa>
    7916:	0485                	addi	s1,s1,1
    7918:	7ff00793          	li	a5,2047
    791c:	18f49c63          	bne	s1,a5,7ab4 <__subdf3+0x4e2>
    7920:	8805                	andi	s0,s0,1
    7922:	7ff00713          	li	a4,2047
    7926:	4781                	li	a5,0
    7928:	4801                	li	a6,0
    792a:	b531                	j	7736 <__subdf3+0x164>
    792c:	10079163          	bnez	a5,7a2e <__subdf3+0x45c>
    7930:	3c080163          	beqz	a6,7cf2 <__subdf3+0x720>
    7934:	00361813          	slli	a6,a2,0x3
    7938:	01d71793          	slli	a5,a4,0x1d
    793c:	00385813          	srli	a6,a6,0x3
    7940:	00f86833          	or	a6,a6,a5
    7944:	8436                	mv	s0,a3
    7946:	00375793          	srli	a5,a4,0x3
    794a:	00f867b3          	or	a5,a6,a5
    794e:	dbe9                	beqz	a5,7920 <__subdf3+0x34e>
    7950:	4401                	li	s0,0
    7952:	7ff00713          	li	a4,2047
    7956:	000807b7          	lui	a5,0x80
    795a:	4801                	li	a6,0
    795c:	bbe9                	j	7736 <__subdf3+0x164>
    795e:	ff800637          	lui	a2,0xff800
    7962:	167d                	addi	a2,a2,-1
    7964:	8e7d                	and	a2,a2,a5
    7966:	0079f793          	andi	a5,s3,7
    796a:	8c99                	sub	s1,s1,a4
    796c:	d80791e3          	bnez	a5,76ee <__subdf3+0x11c>
    7970:	b795                	j	78d4 <__subdf3+0x302>
    7972:	854e                	mv	a0,s3
    7974:	dfdf90ef          	jal	ra,1770 <__clzsi2>
    7978:	01850713          	addi	a4,a0,24
    797c:	47fd                	li	a5,31
    797e:	d2e7d2e3          	bge	a5,a4,76a2 <__subdf3+0xd0>
    7982:	ff850613          	addi	a2,a0,-8
    7986:	00c997b3          	sll	a5,s3,a2
    798a:	4981                	li	s3,0
    798c:	b32d                	j	76b6 <__subdf3+0xe4>
    798e:	01d76833          	or	a6,a4,t4
    7992:	01003833          	snez	a6,a6
    7996:	b1c5                	j	7676 <__subdf3+0xa4>
    7998:	00351813          	slli	a6,a0,0x3
    799c:	01d31793          	slli	a5,t1,0x1d
    79a0:	00385813          	srli	a6,a6,0x3
    79a4:	00f86833          	or	a6,a6,a5
    79a8:	00335793          	srli	a5,t1,0x3
    79ac:	bf2d                	j	78e6 <__subdf3+0x314>
    79ae:	41df09b3          	sub	s3,t5,t4
    79b2:	40e30933          	sub	s2,t1,a4
    79b6:	013f3633          	sltu	a2,t5,s3
    79ba:	40c90933          	sub	s2,s2,a2
    79be:	00891793          	slli	a5,s2,0x8
    79c2:	2007ca63          	bltz	a5,7bd6 <__subdf3+0x604>
    79c6:	0129e833          	or	a6,s3,s2
    79ca:	cc0815e3          	bnez	a6,7694 <__subdf3+0xc2>
    79ce:	4781                	li	a5,0
    79d0:	4401                	li	s0,0
    79d2:	bf31                	j	78ee <__subdf3+0x31c>
    79d4:	409885b3          	sub	a1,a7,s1
    79d8:	14048163          	beqz	s1,7b1a <__subdf3+0x548>
    79dc:	008006b7          	lui	a3,0x800
    79e0:	7ff00793          	li	a5,2047
    79e4:	00d36333          	or	t1,t1,a3
    79e8:	20f88163          	beq	a7,a5,7bea <__subdf3+0x618>
    79ec:	03800793          	li	a5,56
    79f0:	22b7cc63          	blt	a5,a1,7c28 <__subdf3+0x656>
    79f4:	47fd                	li	a5,31
    79f6:	2cb7c963          	blt	a5,a1,7cc8 <__subdf3+0x6f6>
    79fa:	02000793          	li	a5,32
    79fe:	8f8d                	sub	a5,a5,a1
    7a00:	00f31833          	sll	a6,t1,a5
    7a04:	00bf56b3          	srl	a3,t5,a1
    7a08:	00ff17b3          	sll	a5,t5,a5
    7a0c:	00d86833          	or	a6,a6,a3
    7a10:	00f039b3          	snez	s3,a5
    7a14:	00b35333          	srl	t1,t1,a1
    7a18:	01386833          	or	a6,a6,s3
    7a1c:	971a                	add	a4,a4,t1
    7a1e:	01d809b3          	add	s3,a6,t4
    7a22:	01d9b7b3          	sltu	a5,s3,t4
    7a26:	00e78633          	add	a2,a5,a4
    7a2a:	84c6                	mv	s1,a7
    7a2c:	b5cd                	j	790e <__subdf3+0x33c>
    7a2e:	f20811e3          	bnez	a6,7950 <__subdf3+0x37e>
    7a32:	00351813          	slli	a6,a0,0x3
    7a36:	01d31793          	slli	a5,t1,0x1d
    7a3a:	00385813          	srli	a6,a6,0x3
    7a3e:	00f86833          	or	a6,a6,a5
    7a42:	00335793          	srli	a5,t1,0x3
    7a46:	b711                	j	794a <__subdf3+0x378>
    7a48:	00800537          	lui	a0,0x800
    7a4c:	7ff00793          	li	a5,2047
    7a50:	00a36333          	or	t1,t1,a0
    7a54:	e0f892e3          	bne	a7,a5,7858 <__subdf3+0x286>
    7a58:	060e                	slli	a2,a2,0x3
    7a5a:	01d71813          	slli	a6,a4,0x1d
    7a5e:	820d                	srli	a2,a2,0x3
    7a60:	00c86833          	or	a6,a6,a2
    7a64:	00375793          	srli	a5,a4,0x3
    7a68:	8436                	mv	s0,a3
    7a6a:	b5c5                	j	794a <__subdf3+0x378>
    7a6c:	1705                	addi	a4,a4,-31
    7a6e:	02000693          	li	a3,32
    7a72:	00e7d733          	srl	a4,a5,a4
    7a76:	00d60a63          	beq	a2,a3,7a8a <__subdf3+0x4b8>
    7a7a:	04000693          	li	a3,64
    7a7e:	40c68633          	sub	a2,a3,a2
    7a82:	00c79633          	sll	a2,a5,a2
    7a86:	00c9e9b3          	or	s3,s3,a2
    7a8a:	01303833          	snez	a6,s3
    7a8e:	00e869b3          	or	s3,a6,a4
    7a92:	4601                	li	a2,0
    7a94:	4481                	li	s1,0
    7a96:	bd1d                	j	78cc <__subdf3+0x2fa>
    7a98:	01df09b3          	add	s3,t5,t4
    7a9c:	00e307b3          	add	a5,t1,a4
    7aa0:	01e9bf33          	sltu	t5,s3,t5
    7aa4:	01e78633          	add	a2,a5,t5
    7aa8:	00861793          	slli	a5,a2,0x8
    7aac:	4485                	li	s1,1
    7aae:	e007dfe3          	bgez	a5,78cc <__subdf3+0x2fa>
    7ab2:	4489                	li	s1,2
    7ab4:	ff8007b7          	lui	a5,0xff800
    7ab8:	17fd                	addi	a5,a5,-1
    7aba:	8ff1                	and	a5,a5,a2
    7abc:	0019d713          	srli	a4,s3,0x1
    7ac0:	0019f813          	andi	a6,s3,1
    7ac4:	01076833          	or	a6,a4,a6
    7ac8:	01f79993          	slli	s3,a5,0x1f
    7acc:	0109e9b3          	or	s3,s3,a6
    7ad0:	0017d613          	srli	a2,a5,0x1
    7ad4:	b911                	j	76e8 <__subdf3+0x116>
    7ad6:	fe058813          	addi	a6,a1,-32
    7ada:	02000793          	li	a5,32
    7ade:	010759b3          	srl	s3,a4,a6
    7ae2:	00f58a63          	beq	a1,a5,7af6 <__subdf3+0x524>
    7ae6:	04000793          	li	a5,64
    7aea:	40b785b3          	sub	a1,a5,a1
    7aee:	00b71733          	sll	a4,a4,a1
    7af2:	00eeeeb3          	or	t4,t4,a4
    7af6:	01d03833          	snez	a6,t4
    7afa:	01386833          	or	a6,a6,s3
    7afe:	bea5                	j	7676 <__subdf3+0xa4>
    7b00:	01e36333          	or	t1,t1,t5
    7b04:	00603833          	snez	a6,t1
    7b08:	410e89b3          	sub	s3,t4,a6
    7b0c:	013eb7b3          	sltu	a5,t4,s3
    7b10:	40f70633          	sub	a2,a4,a5
    7b14:	84c6                	mv	s1,a7
    7b16:	8436                	mv	s0,a3
    7b18:	b6ad                	j	7682 <__subdf3+0xb0>
    7b1a:	01e367b3          	or	a5,t1,t5
    7b1e:	18078763          	beqz	a5,7cac <__subdf3+0x6da>
    7b22:	fff58793          	addi	a5,a1,-1
    7b26:	1c078c63          	beqz	a5,7cfe <__subdf3+0x72c>
    7b2a:	7ff00693          	li	a3,2047
    7b2e:	0ad58e63          	beq	a1,a3,7bea <__subdf3+0x618>
    7b32:	85be                	mv	a1,a5
    7b34:	bd65                	j	79ec <__subdf3+0x41a>
    7b36:	02000793          	li	a5,32
    7b3a:	8f8d                	sub	a5,a5,a1
    7b3c:	00bed9b3          	srl	s3,t4,a1
    7b40:	00f71833          	sll	a6,a4,a5
    7b44:	00fe9eb3          	sll	t4,t4,a5
    7b48:	01386833          	or	a6,a6,s3
    7b4c:	00b75733          	srl	a4,a4,a1
    7b50:	01d039b3          	snez	s3,t4
    7b54:	01386833          	or	a6,a6,s3
    7b58:	933a                	add	t1,t1,a4
    7b5a:	b365                	j	7902 <__subdf3+0x330>
    7b5c:	00361813          	slli	a6,a2,0x3
    7b60:	01d71793          	slli	a5,a4,0x1d
    7b64:	00385813          	srli	a6,a6,0x3
    7b68:	0107e833          	or	a6,a5,a6
    7b6c:	8436                	mv	s0,a3
    7b6e:	00375793          	srli	a5,a4,0x3
    7b72:	bb95                	j	78e6 <__subdf3+0x314>
    7b74:	cbbd                	beqz	a5,7bea <__subdf3+0x618>
    7b76:	01d76733          	or	a4,a4,t4
    7b7a:	dc071be3          	bnez	a4,7950 <__subdf3+0x37e>
    7b7e:	050e                	slli	a0,a0,0x3
    7b80:	01d31813          	slli	a6,t1,0x1d
    7b84:	810d                	srli	a0,a0,0x3
    7b86:	00a86833          	or	a6,a6,a0
    7b8a:	00335793          	srli	a5,t1,0x3
    7b8e:	bb75                	j	794a <__subdf3+0x378>
    7b90:	e2080fe3          	beqz	a6,79ce <__subdf3+0x3fc>
    7b94:	00361813          	slli	a6,a2,0x3
    7b98:	01d71793          	slli	a5,a4,0x1d
    7b9c:	00385813          	srli	a6,a6,0x3
    7ba0:	00f86833          	or	a6,a6,a5
    7ba4:	8436                	mv	s0,a3
    7ba6:	00375793          	srli	a5,a4,0x3
    7baa:	b391                	j	78ee <__subdf3+0x31c>
    7bac:	41df09b3          	sub	s3,t5,t4
    7bb0:	40e307b3          	sub	a5,t1,a4
    7bb4:	013f3f33          	sltu	t5,t5,s3
    7bb8:	41e78633          	sub	a2,a5,t5
    7bbc:	4485                	li	s1,1
    7bbe:	b4d1                	j	7682 <__subdf3+0xb0>
    7bc0:	00351813          	slli	a6,a0,0x3
    7bc4:	01d31693          	slli	a3,t1,0x1d
    7bc8:	00385813          	srli	a6,a6,0x3
    7bcc:	0106e833          	or	a6,a3,a6
    7bd0:	00335793          	srli	a5,t1,0x3
    7bd4:	bb9d                	j	794a <__subdf3+0x378>
    7bd6:	41ee89b3          	sub	s3,t4,t5
    7bda:	40670633          	sub	a2,a4,t1
    7bde:	013eb933          	sltu	s2,t4,s3
    7be2:	41260933          	sub	s2,a2,s2
    7be6:	8436                	mv	s0,a3
    7be8:	b475                	j	7694 <__subdf3+0xc2>
    7bea:	060e                	slli	a2,a2,0x3
    7bec:	01d71813          	slli	a6,a4,0x1d
    7bf0:	820d                	srli	a2,a2,0x3
    7bf2:	00c86833          	or	a6,a6,a2
    7bf6:	00375793          	srli	a5,a4,0x3
    7bfa:	bb81                	j	794a <__subdf3+0x378>
    7bfc:	41df09b3          	sub	s3,t5,t4
    7c00:	40e307b3          	sub	a5,t1,a4
    7c04:	013f3633          	sltu	a2,t5,s3
    7c08:	40c78633          	sub	a2,a5,a2
    7c0c:	00861793          	slli	a5,a2,0x8
    7c10:	0a07d763          	bgez	a5,7cbe <__subdf3+0x6ec>
    7c14:	41ee89b3          	sub	s3,t4,t5
    7c18:	406707b3          	sub	a5,a4,t1
    7c1c:	013ebeb3          	sltu	t4,t4,s3
    7c20:	41d78633          	sub	a2,a5,t4
    7c24:	8436                	mv	s0,a3
    7c26:	b4c9                	j	76e8 <__subdf3+0x116>
    7c28:	01e36333          	or	t1,t1,t5
    7c2c:	00603833          	snez	a6,t1
    7c30:	b3fd                	j	7a1e <__subdf3+0x44c>
    7c32:	fe058813          	addi	a6,a1,-32
    7c36:	02000793          	li	a5,32
    7c3a:	010359b3          	srl	s3,t1,a6
    7c3e:	00f58a63          	beq	a1,a5,7c52 <__subdf3+0x680>
    7c42:	04000793          	li	a5,64
    7c46:	40b785b3          	sub	a1,a5,a1
    7c4a:	00b31333          	sll	t1,t1,a1
    7c4e:	006f6f33          	or	t5,t5,t1
    7c52:	01e03833          	snez	a6,t5
    7c56:	01386833          	or	a6,a6,s3
    7c5a:	b57d                	j	7b08 <__subdf3+0x536>
    7c5c:	41ee89b3          	sub	s3,t4,t5
    7c60:	406707b3          	sub	a5,a4,t1
    7c64:	013ebeb3          	sltu	t4,t4,s3
    7c68:	41d78633          	sub	a2,a5,t4
    7c6c:	8436                	mv	s0,a3
    7c6e:	4485                	li	s1,1
    7c70:	bc09                	j	7682 <__subdf3+0xb0>
    7c72:	00361813          	slli	a6,a2,0x3
    7c76:	01d71793          	slli	a5,a4,0x1d
    7c7a:	00385813          	srli	a6,a6,0x3
    7c7e:	00f86833          	or	a6,a6,a5
    7c82:	00375793          	srli	a5,a4,0x3
    7c86:	b1a5                	j	78ee <__subdf3+0x31c>
    7c88:	01df09b3          	add	s3,t5,t4
    7c8c:	00e307b3          	add	a5,t1,a4
    7c90:	01e9bf33          	sltu	t5,s3,t5
    7c94:	01e78633          	add	a2,a5,t5
    7c98:	00861793          	slli	a5,a2,0x8
    7c9c:	c207d8e3          	bgez	a5,78cc <__subdf3+0x2fa>
    7ca0:	ff8007b7          	lui	a5,0xff800
    7ca4:	17fd                	addi	a5,a5,-1
    7ca6:	8e7d                	and	a2,a2,a5
    7ca8:	4485                	li	s1,1
    7caa:	b10d                	j	78cc <__subdf3+0x2fa>
    7cac:	060e                	slli	a2,a2,0x3
    7cae:	01d71813          	slli	a6,a4,0x1d
    7cb2:	820d                	srli	a2,a2,0x3
    7cb4:	00c86833          	or	a6,a6,a2
    7cb8:	00375793          	srli	a5,a4,0x3
    7cbc:	b12d                	j	78e6 <__subdf3+0x314>
    7cbe:	00c9e833          	or	a6,s3,a2
    7cc2:	d00806e3          	beqz	a6,79ce <__subdf3+0x3fc>
    7cc6:	b119                	j	78cc <__subdf3+0x2fa>
    7cc8:	fe058813          	addi	a6,a1,-32
    7ccc:	02000793          	li	a5,32
    7cd0:	010359b3          	srl	s3,t1,a6
    7cd4:	00f58a63          	beq	a1,a5,7ce8 <__subdf3+0x716>
    7cd8:	04000793          	li	a5,64
    7cdc:	40b785b3          	sub	a1,a5,a1
    7ce0:	00b31333          	sll	t1,t1,a1
    7ce4:	006f6f33          	or	t5,t5,t1
    7ce8:	01e03833          	snez	a6,t5
    7cec:	01386833          	or	a6,a6,s3
    7cf0:	b33d                	j	7a1e <__subdf3+0x44c>
    7cf2:	4401                	li	s0,0
    7cf4:	7ff00713          	li	a4,2047
    7cf8:	000807b7          	lui	a5,0x80
    7cfc:	bc2d                	j	7736 <__subdf3+0x164>
    7cfe:	01df09b3          	add	s3,t5,t4
    7d02:	00e307b3          	add	a5,t1,a4
    7d06:	01d9beb3          	sltu	t4,s3,t4
    7d0a:	01d78633          	add	a2,a5,t4
    7d0e:	bb69                	j	7aa8 <__subdf3+0x4d6>

00007d10 <__unorddf2>:
    7d10:	0145d713          	srli	a4,a1,0x14
    7d14:	001007b7          	lui	a5,0x100
    7d18:	17fd                	addi	a5,a5,-1
    7d1a:	fff74713          	not	a4,a4
    7d1e:	0146d813          	srli	a6,a3,0x14
    7d22:	8dfd                	and	a1,a1,a5
    7d24:	8ff5                	and	a5,a5,a3
    7d26:	01571693          	slli	a3,a4,0x15
    7d2a:	7ff87813          	andi	a6,a6,2047
    7d2e:	ca99                	beqz	a3,7d44 <__unorddf2+0x34>
    7d30:	7ff00713          	li	a4,2047
    7d34:	4501                	li	a0,0
    7d36:	00e80363          	beq	a6,a4,7d3c <__unorddf2+0x2c>
    7d3a:	8082                	ret
    7d3c:	8fd1                	or	a5,a5,a2
    7d3e:	00f03533          	snez	a0,a5
    7d42:	8082                	ret
    7d44:	8dc9                	or	a1,a1,a0
    7d46:	4505                	li	a0,1
    7d48:	d5e5                	beqz	a1,7d30 <__unorddf2+0x20>
    7d4a:	8082                	ret

00007d4c <__fixdfsi>:
    7d4c:	0145d793          	srli	a5,a1,0x14
    7d50:	001006b7          	lui	a3,0x100
    7d54:	fff68713          	addi	a4,a3,-1 # fffff <_data_lma+0xf760b>
    7d58:	7ff7f793          	andi	a5,a5,2047
    7d5c:	3fe00613          	li	a2,1022
    7d60:	8f6d                	and	a4,a4,a1
    7d62:	81fd                	srli	a1,a1,0x1f
    7d64:	00f65c63          	bge	a2,a5,7d7c <__fixdfsi+0x30>
    7d68:	41d00613          	li	a2,1053
    7d6c:	00f65a63          	bge	a2,a5,7d80 <__fixdfsi+0x34>
    7d70:	80000537          	lui	a0,0x80000
    7d74:	fff54513          	not	a0,a0
    7d78:	952e                	add	a0,a0,a1
    7d7a:	8082                	ret
    7d7c:	4501                	li	a0,0
    7d7e:	8082                	ret
    7d80:	43300613          	li	a2,1075
    7d84:	8e1d                	sub	a2,a2,a5
    7d86:	487d                	li	a6,31
    7d88:	8f55                	or	a4,a4,a3
    7d8a:	00c85d63          	bge	a6,a2,7da4 <__fixdfsi+0x58>
    7d8e:	41300693          	li	a3,1043
    7d92:	40f687b3          	sub	a5,a3,a5
    7d96:	00f757b3          	srl	a5,a4,a5
    7d9a:	40f00533          	neg	a0,a5
    7d9e:	f1e5                	bnez	a1,7d7e <__fixdfsi+0x32>
    7da0:	853e                	mv	a0,a5
    7da2:	8082                	ret
    7da4:	bed78793          	addi	a5,a5,-1043 # ffbed <_data_lma+0xf71f9>
    7da8:	00f717b3          	sll	a5,a4,a5
    7dac:	00c55533          	srl	a0,a0,a2
    7db0:	8fc9                	or	a5,a5,a0
    7db2:	b7e5                	j	7d9a <__fixdfsi+0x4e>

00007db4 <__fixunsdfsi>:
    7db4:	0145d793          	srli	a5,a1,0x14
    7db8:	001006b7          	lui	a3,0x100
    7dbc:	fff68713          	addi	a4,a3,-1 # fffff <_data_lma+0xf760b>
    7dc0:	7ff7f793          	andi	a5,a5,2047
    7dc4:	3fe00613          	li	a2,1022
    7dc8:	882a                	mv	a6,a0
    7dca:	8f6d                	and	a4,a4,a1
    7dcc:	4501                	li	a0,0
    7dce:	81fd                	srli	a1,a1,0x1f
    7dd0:	00f65463          	bge	a2,a5,7dd8 <__fixunsdfsi+0x24>
    7dd4:	c199                	beqz	a1,7dda <__fixunsdfsi+0x26>
    7dd6:	8082                	ret
    7dd8:	8082                	ret
    7dda:	41e00613          	li	a2,1054
    7dde:	557d                	li	a0,-1
    7de0:	fef64be3          	blt	a2,a5,7dd6 <__fixunsdfsi+0x22>
    7de4:	43300513          	li	a0,1075
    7de8:	8d1d                	sub	a0,a0,a5
    7dea:	467d                	li	a2,31
    7dec:	8f55                	or	a4,a4,a3
    7dee:	00a64a63          	blt	a2,a0,7e02 <__fixunsdfsi+0x4e>
    7df2:	bed78793          	addi	a5,a5,-1043
    7df6:	00f71733          	sll	a4,a4,a5
    7dfa:	00a85533          	srl	a0,a6,a0
    7dfe:	8d59                	or	a0,a0,a4
    7e00:	8082                	ret
    7e02:	41300513          	li	a0,1043
    7e06:	40f507b3          	sub	a5,a0,a5
    7e0a:	00f75533          	srl	a0,a4,a5
    7e0e:	8082                	ret

00007e10 <__floatunsidf>:
    7e10:	cd1d                	beqz	a0,7e4e <__floatunsidf+0x3e>
    7e12:	1141                	addi	sp,sp,-16
    7e14:	c422                	sw	s0,8(sp)
    7e16:	c606                	sw	ra,12(sp)
    7e18:	842a                	mv	s0,a0
    7e1a:	957f90ef          	jal	ra,1770 <__clzsi2>
    7e1e:	41e00693          	li	a3,1054
    7e22:	8e89                	sub	a3,a3,a0
    7e24:	47a9                	li	a5,10
    7e26:	7ff6f693          	andi	a3,a3,2047
    7e2a:	02a7dc63          	bge	a5,a0,7e62 <__floatunsidf+0x52>
    7e2e:	1555                	addi	a0,a0,-11
    7e30:	00a417b3          	sll	a5,s0,a0
    7e34:	07b2                	slli	a5,a5,0xc
    7e36:	83b1                	srli	a5,a5,0xc
    7e38:	4701                	li	a4,0
    7e3a:	40b2                	lw	ra,12(sp)
    7e3c:	4422                	lw	s0,8(sp)
    7e3e:	07b2                	slli	a5,a5,0xc
    7e40:	06d2                	slli	a3,a3,0x14
    7e42:	83b1                	srli	a5,a5,0xc
    7e44:	8fd5                	or	a5,a5,a3
    7e46:	853a                	mv	a0,a4
    7e48:	85be                	mv	a1,a5
    7e4a:	0141                	addi	sp,sp,16
    7e4c:	8082                	ret
    7e4e:	4781                	li	a5,0
    7e50:	4681                	li	a3,0
    7e52:	07b2                	slli	a5,a5,0xc
    7e54:	06d2                	slli	a3,a3,0x14
    7e56:	83b1                	srli	a5,a5,0xc
    7e58:	4701                	li	a4,0
    7e5a:	8fd5                	or	a5,a5,a3
    7e5c:	853a                	mv	a0,a4
    7e5e:	85be                	mv	a1,a5
    7e60:	8082                	ret
    7e62:	472d                	li	a4,11
    7e64:	8f09                	sub	a4,a4,a0
    7e66:	00e457b3          	srl	a5,s0,a4
    7e6a:	07b2                	slli	a5,a5,0xc
    7e6c:	01550713          	addi	a4,a0,21 # 80000015 <_eusrstack+0x5fffb015>
    7e70:	00e41733          	sll	a4,s0,a4
    7e74:	83b1                	srli	a5,a5,0xc
    7e76:	b7d1                	j	7e3a <__floatunsidf+0x2a>

00007e78 <__extenddftf2>:
    7e78:	01465793          	srli	a5,a2,0x14
    7e7c:	00c61713          	slli	a4,a2,0xc
    7e80:	7ff7f793          	andi	a5,a5,2047
    7e84:	7179                	addi	sp,sp,-48
    7e86:	8331                	srli	a4,a4,0xc
    7e88:	00178693          	addi	a3,a5,1
    7e8c:	d422                	sw	s0,40(sp)
    7e8e:	d226                	sw	s1,36(sp)
    7e90:	d606                	sw	ra,44(sp)
    7e92:	d04a                	sw	s2,32(sp)
    7e94:	c82e                	sw	a1,16(sp)
    7e96:	ca3a                	sw	a4,20(sp)
    7e98:	ce02                	sw	zero,28(sp)
    7e9a:	cc02                	sw	zero,24(sp)
    7e9c:	7fe6f693          	andi	a3,a3,2046
    7ea0:	842a                	mv	s0,a0
    7ea2:	01f65493          	srli	s1,a2,0x1f
    7ea6:	cea1                	beqz	a3,7efe <__extenddftf2+0x86>
    7ea8:	6691                	lui	a3,0x4
    7eaa:	c0068693          	addi	a3,a3,-1024 # 3c00 <_dtoa_r+0x2d6>
    7eae:	97b6                	add	a5,a5,a3
    7eb0:	0045d613          	srli	a2,a1,0x4
    7eb4:	01c71693          	slli	a3,a4,0x1c
    7eb8:	07c6                	slli	a5,a5,0x11
    7eba:	8ed1                	or	a3,a3,a2
    7ebc:	01c59513          	slli	a0,a1,0x1c
    7ec0:	8311                	srli	a4,a4,0x4
    7ec2:	83c5                	srli	a5,a5,0x11
    7ec4:	4801                	li	a6,0
    7ec6:	00e11623          	sh	a4,12(sp)
    7eca:	4732                	lw	a4,12(sp)
    7ecc:	07c6                	slli	a5,a5,0x11
    7ece:	800105b7          	lui	a1,0x80010
    7ed2:	83c5                	srli	a5,a5,0x11
    7ed4:	15fd                	addi	a1,a1,-1
    7ed6:	07c2                	slli	a5,a5,0x10
    7ed8:	8f6d                	and	a4,a4,a1
    7eda:	8fd9                	or	a5,a5,a4
    7edc:	0786                	slli	a5,a5,0x1
    7ede:	01f49613          	slli	a2,s1,0x1f
    7ee2:	8385                	srli	a5,a5,0x1
    7ee4:	8fd1                	or	a5,a5,a2
    7ee6:	c048                	sw	a0,4(s0)
    7ee8:	01042023          	sw	a6,0(s0)
    7eec:	c414                	sw	a3,8(s0)
    7eee:	c45c                	sw	a5,12(s0)
    7ef0:	8522                	mv	a0,s0
    7ef2:	50b2                	lw	ra,44(sp)
    7ef4:	5422                	lw	s0,40(sp)
    7ef6:	5492                	lw	s1,36(sp)
    7ef8:	5902                	lw	s2,32(sp)
    7efa:	6145                	addi	sp,sp,48
    7efc:	8082                	ret
    7efe:	00b76533          	or	a0,a4,a1
    7f02:	eba5                	bnez	a5,7f72 <__extenddftf2+0xfa>
    7f04:	cd59                	beqz	a0,7fa2 <__extenddftf2+0x12a>
    7f06:	c35d                	beqz	a4,7fac <__extenddftf2+0x134>
    7f08:	853a                	mv	a0,a4
    7f0a:	867f90ef          	jal	ra,1770 <__clzsi2>
    7f0e:	03150713          	addi	a4,a0,49
    7f12:	01f77813          	andi	a6,a4,31
    7f16:	8715                	srai	a4,a4,0x5
    7f18:	0a081e63          	bnez	a6,7fd4 <__extenddftf2+0x15c>
    7f1c:	0810                	addi	a2,sp,16
    7f1e:	00271693          	slli	a3,a4,0x2
    7f22:	40d606b3          	sub	a3,a2,a3
    7f26:	888a                	mv	a7,sp
    7f28:	00271813          	slli	a6,a4,0x2
    7f2c:	46cc                	lw	a1,12(a3)
    7f2e:	010687b3          	add	a5,a3,a6
    7f32:	16f1                	addi	a3,a3,-4
    7f34:	c7cc                	sw	a1,12(a5)
    7f36:	fed89be3          	bne	a7,a3,7f2c <__extenddftf2+0xb4>
    7f3a:	177d                	addi	a4,a4,-1
    7f3c:	070a                	slli	a4,a4,0x2
    7f3e:	9732                	add	a4,a4,a2
    7f40:	00072023          	sw	zero,0(a4)
    7f44:	ffc70693          	addi	a3,a4,-4
    7f48:	00e60963          	beq	a2,a4,7f5a <__extenddftf2+0xe2>
    7f4c:	8736                	mv	a4,a3
    7f4e:	00072023          	sw	zero,0(a4)
    7f52:	ffc70693          	addi	a3,a4,-4
    7f56:	fee61be3          	bne	a2,a4,7f4c <__extenddftf2+0xd4>
    7f5a:	6791                	lui	a5,0x4
    7f5c:	c0c78793          	addi	a5,a5,-1012 # 3c0c <_dtoa_r+0x2e2>
    7f60:	8f89                	sub	a5,a5,a0
    7f62:	07c6                	slli	a5,a5,0x11
    7f64:	4842                	lw	a6,16(sp)
    7f66:	4552                	lw	a0,20(sp)
    7f68:	46e2                	lw	a3,24(sp)
    7f6a:	01c15703          	lhu	a4,28(sp)
    7f6e:	83c5                	srli	a5,a5,0x11
    7f70:	bf99                	j	7ec6 <__extenddftf2+0x4e>
    7f72:	c115                	beqz	a0,7f96 <__extenddftf2+0x11e>
    7f74:	67a1                	lui	a5,0x8
    7f76:	00475513          	srli	a0,a4,0x4
    7f7a:	01c71693          	slli	a3,a4,0x1c
    7f7e:	00f56733          	or	a4,a0,a5
    7f82:	0045d613          	srli	a2,a1,0x4
    7f86:	0742                	slli	a4,a4,0x10
    7f88:	8ed1                	or	a3,a3,a2
    7f8a:	01c59513          	slli	a0,a1,0x1c
    7f8e:	8341                	srli	a4,a4,0x10
    7f90:	17fd                	addi	a5,a5,-1
    7f92:	4801                	li	a6,0
    7f94:	bf0d                	j	7ec6 <__extenddftf2+0x4e>
    7f96:	67a1                	lui	a5,0x8
    7f98:	4681                	li	a3,0
    7f9a:	17fd                	addi	a5,a5,-1
    7f9c:	4701                	li	a4,0
    7f9e:	4801                	li	a6,0
    7fa0:	b71d                	j	7ec6 <__extenddftf2+0x4e>
    7fa2:	4681                	li	a3,0
    7fa4:	4781                	li	a5,0
    7fa6:	4701                	li	a4,0
    7fa8:	4801                	li	a6,0
    7faa:	bf31                	j	7ec6 <__extenddftf2+0x4e>
    7fac:	852e                	mv	a0,a1
    7fae:	892e                	mv	s2,a1
    7fb0:	fc0f90ef          	jal	ra,1770 <__clzsi2>
    7fb4:	05150713          	addi	a4,a0,81
    7fb8:	01f77813          	andi	a6,a4,31
    7fbc:	02050513          	addi	a0,a0,32
    7fc0:	8715                	srai	a4,a4,0x5
    7fc2:	f4080de3          	beqz	a6,7f1c <__extenddftf2+0xa4>
    7fc6:	4789                	li	a5,2
    7fc8:	00f70663          	beq	a4,a5,7fd4 <__extenddftf2+0x15c>
    7fcc:	4709                	li	a4,2
    7fce:	0810                	addi	a2,sp,16
    7fd0:	48b1                	li	a7,12
    7fd2:	a835                	j	800e <__extenddftf2+0x196>
    7fd4:	40e006b3          	neg	a3,a4
    7fd8:	068a                	slli	a3,a3,0x2
    7fda:	0810                	addi	a2,sp,16
    7fdc:	06b1                	addi	a3,a3,12
    7fde:	02000e13          	li	t3,32
    7fe2:	96b2                	add	a3,a3,a2
    7fe4:	00271893          	slli	a7,a4,0x2
    7fe8:	410e0e33          	sub	t3,t3,a6
    7fec:	ffc6a583          	lw	a1,-4(a3)
    7ff0:	429c                	lw	a5,0(a3)
    7ff2:	01168333          	add	t1,a3,a7
    7ff6:	01c5d5b3          	srl	a1,a1,t3
    7ffa:	010797b3          	sll	a5,a5,a6
    7ffe:	8ddd                	or	a1,a1,a5
    8000:	00b32023          	sw	a1,0(t1)
    8004:	16f1                	addi	a3,a3,-4
    8006:	fed613e3          	bne	a2,a3,7fec <__extenddftf2+0x174>
    800a:	4942                	lw	s2,16(sp)
    800c:	177d                	addi	a4,a4,-1
    800e:	101c                	addi	a5,sp,32
    8010:	98be                	add	a7,a7,a5
    8012:	01091933          	sll	s2,s2,a6
    8016:	ff28a823          	sw	s2,-16(a7)
    801a:	b70d                	j	7f3c <__extenddftf2+0xc4>

0000801c <__truncdfsf2>:
    801c:	0145d693          	srli	a3,a1,0x14
    8020:	00c59793          	slli	a5,a1,0xc
    8024:	7ff6f693          	andi	a3,a3,2047
    8028:	83b1                	srli	a5,a5,0xc
    802a:	00168613          	addi	a2,a3,1
    802e:	078e                	slli	a5,a5,0x3
    8030:	01d55713          	srli	a4,a0,0x1d
    8034:	7fe67613          	andi	a2,a2,2046
    8038:	81fd                	srli	a1,a1,0x1f
    803a:	8f5d                	or	a4,a4,a5
    803c:	00351893          	slli	a7,a0,0x3
    8040:	ce35                	beqz	a2,80bc <__truncdfsf2+0xa0>
    8042:	c8068813          	addi	a6,a3,-896
    8046:	0fe00793          	li	a5,254
    804a:	0107dd63          	bge	a5,a6,8064 <__truncdfsf2+0x48>
    804e:	4781                	li	a5,0
    8050:	00979513          	slli	a0,a5,0x9
    8054:	0ff00693          	li	a3,255
    8058:	06de                	slli	a3,a3,0x17
    805a:	8125                	srli	a0,a0,0x9
    805c:	05fe                	slli	a1,a1,0x1f
    805e:	8d55                	or	a0,a0,a3
    8060:	8d4d                	or	a0,a0,a1
    8062:	8082                	ret
    8064:	0b005563          	blez	a6,810e <__truncdfsf2+0xf2>
    8068:	00651793          	slli	a5,a0,0x6
    806c:	070e                	slli	a4,a4,0x3
    806e:	00f037b3          	snez	a5,a5
    8072:	8fd9                	or	a5,a5,a4
    8074:	01d8d893          	srli	a7,a7,0x1d
    8078:	0117e7b3          	or	a5,a5,a7
    807c:	0077f713          	andi	a4,a5,7
    8080:	10070163          	beqz	a4,8182 <__truncdfsf2+0x166>
    8084:	00f7f713          	andi	a4,a5,15
    8088:	4691                	li	a3,4
    808a:	00d70363          	beq	a4,a3,8090 <__truncdfsf2+0x74>
    808e:	0791                	addi	a5,a5,4
    8090:	04000737          	lui	a4,0x4000
    8094:	8f7d                	and	a4,a4,a5
    8096:	c775                	beqz	a4,8182 <__truncdfsf2+0x166>
    8098:	00180713          	addi	a4,a6,1
    809c:	0ff00613          	li	a2,255
    80a0:	0ff77693          	andi	a3,a4,255
    80a4:	fac705e3          	beq	a4,a2,804e <__truncdfsf2+0x32>
    80a8:	079a                	slli	a5,a5,0x6
    80aa:	83a5                	srli	a5,a5,0x9
    80ac:	00979513          	slli	a0,a5,0x9
    80b0:	06de                	slli	a3,a3,0x17
    80b2:	8125                	srli	a0,a0,0x9
    80b4:	05fe                	slli	a1,a1,0x1f
    80b6:	8d55                	or	a0,a0,a3
    80b8:	8d4d                	or	a0,a0,a1
    80ba:	8082                	ret
    80bc:	011767b3          	or	a5,a4,a7
    80c0:	ee99                	bnez	a3,80de <__truncdfsf2+0xc2>
    80c2:	cf85                	beqz	a5,80fa <__truncdfsf2+0xde>
    80c4:	4795                	li	a5,5
    80c6:	079a                	slli	a5,a5,0x6
    80c8:	83a5                	srli	a5,a5,0x9
    80ca:	00979513          	slli	a0,a5,0x9
    80ce:	0ff6f693          	andi	a3,a3,255
    80d2:	06de                	slli	a3,a3,0x17
    80d4:	8125                	srli	a0,a0,0x9
    80d6:	05fe                	slli	a1,a1,0x1f
    80d8:	8d55                	or	a0,a0,a3
    80da:	8d4d                	or	a0,a0,a1
    80dc:	8082                	ret
    80de:	dba5                	beqz	a5,804e <__truncdfsf2+0x32>
    80e0:	004007b7          	lui	a5,0x400
    80e4:	00979513          	slli	a0,a5,0x9
    80e8:	0ff00693          	li	a3,255
    80ec:	06de                	slli	a3,a3,0x17
    80ee:	4581                	li	a1,0
    80f0:	8125                	srli	a0,a0,0x9
    80f2:	05fe                	slli	a1,a1,0x1f
    80f4:	8d55                	or	a0,a0,a3
    80f6:	8d4d                	or	a0,a0,a1
    80f8:	8082                	ret
    80fa:	4781                	li	a5,0
    80fc:	00979513          	slli	a0,a5,0x9
    8100:	4681                	li	a3,0
    8102:	06de                	slli	a3,a3,0x17
    8104:	8125                	srli	a0,a0,0x9
    8106:	05fe                	slli	a1,a1,0x1f
    8108:	8d55                	or	a0,a0,a3
    810a:	8d4d                	or	a0,a0,a1
    810c:	8082                	ret
    810e:	57a5                	li	a5,-23
    8110:	04f84863          	blt	a6,a5,8160 <__truncdfsf2+0x144>
    8114:	47f9                	li	a5,30
    8116:	00800637          	lui	a2,0x800
    811a:	410787b3          	sub	a5,a5,a6
    811e:	457d                	li	a0,31
    8120:	8e59                	or	a2,a2,a4
    8122:	04f55163          	bge	a0,a5,8164 <__truncdfsf2+0x148>
    8126:	5779                	li	a4,-2
    8128:	41070733          	sub	a4,a4,a6
    812c:	02000513          	li	a0,32
    8130:	00e65733          	srl	a4,a2,a4
    8134:	00a78863          	beq	a5,a0,8144 <__truncdfsf2+0x128>
    8138:	ca268693          	addi	a3,a3,-862
    813c:	00d616b3          	sll	a3,a2,a3
    8140:	00d8e8b3          	or	a7,a7,a3
    8144:	011037b3          	snez	a5,a7
    8148:	8fd9                	or	a5,a5,a4
    814a:	0077f713          	andi	a4,a5,7
    814e:	4801                	li	a6,0
    8150:	fb15                	bnez	a4,8084 <__truncdfsf2+0x68>
    8152:	00579713          	slli	a4,a5,0x5
    8156:	4685                	li	a3,1
    8158:	f40748e3          	bltz	a4,80a8 <__truncdfsf2+0x8c>
    815c:	4681                	li	a3,0
    815e:	b7a5                	j	80c6 <__truncdfsf2+0xaa>
    8160:	4681                	li	a3,0
    8162:	b78d                	j	80c4 <__truncdfsf2+0xa8>
    8164:	c8268693          	addi	a3,a3,-894
    8168:	00d89733          	sll	a4,a7,a3
    816c:	00e03733          	snez	a4,a4
    8170:	00d616b3          	sll	a3,a2,a3
    8174:	00f8d8b3          	srl	a7,a7,a5
    8178:	00d767b3          	or	a5,a4,a3
    817c:	00f8e7b3          	or	a5,a7,a5
    8180:	b7e9                	j	814a <__truncdfsf2+0x12e>
    8182:	86c2                	mv	a3,a6
    8184:	b789                	j	80c6 <__truncdfsf2+0xaa>

00008186 <__trunctfdf2>:
    8186:	00c52803          	lw	a6,12(a0)
    818a:	4118                	lw	a4,0(a0)
    818c:	4154                	lw	a3,4(a0)
    818e:	450c                	lw	a1,8(a0)
    8190:	6521                	lui	a0,0x8
    8192:	fff50793          	addi	a5,a0,-1 # 7fff <__extenddftf2+0x187>
    8196:	01085613          	srli	a2,a6,0x10
    819a:	00359e13          	slli	t3,a1,0x3
    819e:	8e7d                	and	a2,a2,a5
    81a0:	01d75893          	srli	a7,a4,0x1d
    81a4:	01d6d793          	srli	a5,a3,0x1d
    81a8:	01081313          	slli	t1,a6,0x10
    81ac:	068e                	slli	a3,a3,0x3
    81ae:	1141                	addi	sp,sp,-16
    81b0:	01c7e7b3          	or	a5,a5,t3
    81b4:	0116e6b3          	or	a3,a3,a7
    81b8:	01035313          	srli	t1,t1,0x10
    81bc:	00371e13          	slli	t3,a4,0x3
    81c0:	00160893          	addi	a7,a2,1 # 800001 <_data_lma+0x7f760d>
    81c4:	1579                	addi	a0,a0,-2
    81c6:	81f5                	srli	a1,a1,0x1d
    81c8:	030e                	slli	t1,t1,0x3
    81ca:	c43e                	sw	a5,8(sp)
    81cc:	c236                	sw	a3,4(sp)
    81ce:	c072                	sw	t3,0(sp)
    81d0:	00a8f533          	and	a0,a7,a0
    81d4:	01f85813          	srli	a6,a6,0x1f
    81d8:	0065e5b3          	or	a1,a1,t1
    81dc:	c905                	beqz	a0,820c <__trunctfdf2+0x86>
    81de:	7771                	lui	a4,0xffffc
    81e0:	40070713          	addi	a4,a4,1024 # ffffc400 <_eusrstack+0xdfff7400>
    81e4:	963a                	add	a2,a2,a4
    81e6:	7fe00713          	li	a4,2046
    81ea:	04c75d63          	bge	a4,a2,8244 <__trunctfdf2+0xbe>
    81ee:	7ff00613          	li	a2,2047
    81f2:	4701                	li	a4,0
    81f4:	4781                	li	a5,0
    81f6:	0732                	slli	a4,a4,0xc
    81f8:	0652                	slli	a2,a2,0x14
    81fa:	8331                	srli	a4,a4,0xc
    81fc:	087e                	slli	a6,a6,0x1f
    81fe:	8f51                	or	a4,a4,a2
    8200:	01076733          	or	a4,a4,a6
    8204:	853e                	mv	a0,a5
    8206:	85ba                	mv	a1,a4
    8208:	0141                	addi	sp,sp,16
    820a:	8082                	ret
    820c:	8fd5                	or	a5,a5,a3
    820e:	8fcd                	or	a5,a5,a1
    8210:	01c7e7b3          	or	a5,a5,t3
    8214:	e205                	bnez	a2,8234 <__trunctfdf2+0xae>
    8216:	cbf1                	beqz	a5,82ea <__trunctfdf2+0x164>
    8218:	4781                	li	a5,0
    821a:	4695                	li	a3,5
    821c:	0036d593          	srli	a1,a3,0x3
    8220:	00979713          	slli	a4,a5,0x9
    8224:	01d79693          	slli	a3,a5,0x1d
    8228:	00b6e7b3          	or	a5,a3,a1
    822c:	8331                	srli	a4,a4,0xc
    822e:	7ff67613          	andi	a2,a2,2047
    8232:	b7d1                	j	81f6 <__trunctfdf2+0x70>
    8234:	dfcd                	beqz	a5,81ee <__trunctfdf2+0x68>
    8236:	4801                	li	a6,0
    8238:	7ff00613          	li	a2,2047
    823c:	00080737          	lui	a4,0x80
    8240:	4781                	li	a5,0
    8242:	bf55                	j	81f6 <__trunctfdf2+0x70>
    8244:	0ac04663          	bgtz	a2,82f0 <__trunctfdf2+0x16a>
    8248:	fcc00793          	li	a5,-52
    824c:	0ef64f63          	blt	a2,a5,834a <__trunctfdf2+0x1c4>
    8250:	03d00793          	li	a5,61
    8254:	40c78633          	sub	a2,a5,a2
    8258:	40565793          	srai	a5,a2,0x5
    825c:	00080737          	lui	a4,0x80
    8260:	8dd9                	or	a1,a1,a4
    8262:	00279513          	slli	a0,a5,0x2
    8266:	870a                	mv	a4,sp
    8268:	4681                	li	a3,0
    826a:	c62e                	sw	a1,12(sp)
    826c:	00a108b3          	add	a7,sp,a0
    8270:	0711                	addi	a4,a4,4
    8272:	8a7d                	andi	a2,a2,31
    8274:	01c6e6b3          	or	a3,a3,t3
    8278:	01170963          	beq	a4,a7,828a <__trunctfdf2+0x104>
    827c:	00072e03          	lw	t3,0(a4) # 80000 <_data_lma+0x7760c>
    8280:	0711                	addi	a4,a4,4
    8282:	01c6e6b3          	or	a3,a3,t3
    8286:	ff171be3          	bne	a4,a7,827c <__trunctfdf2+0xf6>
    828a:	470d                	li	a4,3
    828c:	8f1d                	sub	a4,a4,a5
    828e:	ca79                	beqz	a2,8364 <__trunctfdf2+0x1de>
    8290:	01010893          	addi	a7,sp,16
    8294:	98aa                	add	a7,a7,a0
    8296:	ff08a883          	lw	a7,-16(a7)
    829a:	02000e13          	li	t3,32
    829e:	40ce0e33          	sub	t3,t3,a2
    82a2:	01c898b3          	sll	a7,a7,t3
    82a6:	0116e6b3          	or	a3,a3,a7
    82aa:	cb75                	beqz	a4,839e <__trunctfdf2+0x218>
    82ac:	070a                	slli	a4,a4,0x2
    82ae:	950a                	add	a0,a0,sp
    82b0:	00e10eb3          	add	t4,sp,a4
    82b4:	888a                	mv	a7,sp
    82b6:	410c                	lw	a1,0(a0)
    82b8:	00452303          	lw	t1,4(a0)
    82bc:	0891                	addi	a7,a7,4
    82be:	00c5d5b3          	srl	a1,a1,a2
    82c2:	01c31333          	sll	t1,t1,t3
    82c6:	0065e5b3          	or	a1,a1,t1
    82ca:	feb8ae23          	sw	a1,-4(a7)
    82ce:	0511                	addi	a0,a0,4
    82d0:	ff1e93e3          	bne	t4,a7,82b6 <__trunctfdf2+0x130>
    82d4:	4591                	li	a1,4
    82d6:	40f587b3          	sub	a5,a1,a5
    82da:	45b2                	lw	a1,12(sp)
    82dc:	0808                	addi	a0,sp,16
    82de:	972a                	add	a4,a4,a0
    82e0:	00c5d5b3          	srl	a1,a1,a2
    82e4:	feb72823          	sw	a1,-16(a4)
    82e8:	a861                	j	8380 <__trunctfdf2+0x1fa>
    82ea:	4601                	li	a2,0
    82ec:	4701                	li	a4,0
    82ee:	b721                	j	81f6 <__trunctfdf2+0x70>
    82f0:	00469713          	slli	a4,a3,0x4
    82f4:	00479513          	slli	a0,a5,0x4
    82f8:	01c76733          	or	a4,a4,t3
    82fc:	82f1                	srli	a3,a3,0x1c
    82fe:	83f1                	srli	a5,a5,0x1c
    8300:	0592                	slli	a1,a1,0x4
    8302:	00e03733          	snez	a4,a4
    8306:	8ec9                	or	a3,a3,a0
    8308:	8fcd                	or	a5,a5,a1
    830a:	8ed9                	or	a3,a3,a4
    830c:	0076f713          	andi	a4,a3,7
    8310:	c711                	beqz	a4,831c <__trunctfdf2+0x196>
    8312:	00f6f713          	andi	a4,a3,15
    8316:	4591                	li	a1,4
    8318:	02b71c63          	bne	a4,a1,8350 <__trunctfdf2+0x1ca>
    831c:	00800737          	lui	a4,0x800
    8320:	8f7d                	and	a4,a4,a5
    8322:	ee070de3          	beqz	a4,821c <__trunctfdf2+0x96>
    8326:	0605                	addi	a2,a2,1
    8328:	7ff00713          	li	a4,2047
    832c:	ece601e3          	beq	a2,a4,81ee <__trunctfdf2+0x68>
    8330:	ff800737          	lui	a4,0xff800
    8334:	177d                	addi	a4,a4,-1
    8336:	8f7d                	and	a4,a4,a5
    8338:	01d71793          	slli	a5,a4,0x1d
    833c:	828d                	srli	a3,a3,0x3
    833e:	0726                	slli	a4,a4,0x9
    8340:	7ff67613          	andi	a2,a2,2047
    8344:	8fd5                	or	a5,a5,a3
    8346:	8331                	srli	a4,a4,0xc
    8348:	b57d                	j	81f6 <__trunctfdf2+0x70>
    834a:	4685                	li	a3,1
    834c:	4781                	li	a5,0
    834e:	4601                	li	a2,0
    8350:	ffc6b713          	sltiu	a4,a3,-4
    8354:	00174713          	xori	a4,a4,1
    8358:	97ba                	add	a5,a5,a4
    835a:	00800737          	lui	a4,0x800
    835e:	0691                	addi	a3,a3,4
    8360:	8f7d                	and	a4,a4,a5
    8362:	b7c1                	j	8322 <__trunctfdf2+0x19c>
    8364:	858a                	mv	a1,sp
    8366:	00a588b3          	add	a7,a1,a0
    836a:	0008a883          	lw	a7,0(a7)
    836e:	0591                	addi	a1,a1,4
    8370:	0605                	addi	a2,a2,1
    8372:	ff15ae23          	sw	a7,-4(a1) # 8000fffc <_eusrstack+0x6000affc>
    8376:	fec758e3          	bge	a4,a2,8366 <__trunctfdf2+0x1e0>
    837a:	4711                	li	a4,4
    837c:	40f707b3          	sub	a5,a4,a5
    8380:	078a                	slli	a5,a5,0x2
    8382:	978a                	add	a5,a5,sp
    8384:	0818                	addi	a4,sp,16
    8386:	0007a023          	sw	zero,0(a5) # 400000 <_data_lma+0x3f760c>
    838a:	0791                	addi	a5,a5,4
    838c:	fee79de3          	bne	a5,a4,8386 <__trunctfdf2+0x200>
    8390:	4702                	lw	a4,0(sp)
    8392:	00d036b3          	snez	a3,a3
    8396:	4792                	lw	a5,4(sp)
    8398:	8ed9                	or	a3,a3,a4
    839a:	4601                	li	a2,0
    839c:	bf85                	j	830c <__trunctfdf2+0x186>
    839e:	4785                	li	a5,1
    83a0:	4701                	li	a4,0
    83a2:	bf2d                	j	82dc <__trunctfdf2+0x156>

000083a4 <_close>:
    83a4:	05800793          	li	a5,88
    83a8:	82f1aa23          	sw	a5,-1996(gp) # 20000224 <errno>
    83ac:	557d                	li	a0,-1
    83ae:	8082                	ret

000083b0 <_fstat>:
    83b0:	05800793          	li	a5,88
    83b4:	82f1aa23          	sw	a5,-1996(gp) # 20000224 <errno>
    83b8:	557d                	li	a0,-1
    83ba:	8082                	ret

000083bc <_isatty>:
    83bc:	05800793          	li	a5,88
    83c0:	82f1aa23          	sw	a5,-1996(gp) # 20000224 <errno>
    83c4:	4501                	li	a0,0
    83c6:	8082                	ret

000083c8 <_lseek>:
    83c8:	05800793          	li	a5,88
    83cc:	82f1aa23          	sw	a5,-1996(gp) # 20000224 <errno>
    83d0:	557d                	li	a0,-1
    83d2:	8082                	ret

000083d4 <_read>:
    83d4:	05800793          	li	a5,88
    83d8:	82f1aa23          	sw	a5,-1996(gp) # 20000224 <errno>
    83dc:	557d                	li	a0,-1
    83de:	8082                	ret
    83e0:	4e49                	li	t3,18
    83e2:	3241                	jal	7d62 <__fixdfsi+0x16>
    83e4:	3632                	fld	fa2,296(sp)
    83e6:	4920                	lw	s0,80(a0)
    83e8:	494e                	lw	s2,208(sp)
    83ea:	2054                	fld	fa3,128(s0)
    83ec:	6562                	flw	fa0,24(sp)
    83ee:	0d6e6967          	0xd6e6967
    83f2:	0000                	unimp
    83f4:	4e49                	li	t3,18
    83f6:	3241                	jal	7d76 <__fixdfsi+0x2a>
    83f8:	3632                	fld	fa2,296(sp)
    83fa:	4920                	lw	s0,80(a0)
    83fc:	494e                	lw	s2,208(sp)
    83fe:	2054                	fld	fa3,128(s0)
    8400:	6e65                	lui	t3,0x19
    8402:	0d64                	addi	s1,sp,668
	...
    840c:	0000                	unimp
    840e:	3ff4                	fld	fa3,248(a5)
    8410:	47ae147b          	0x47ae147b
    8414:	7ae1                	lui	s5,0xffff8
    8416:	3f64                	fld	fs1,248(a4)
    8418:	432d                	li	t1,11
    841a:	eb1c                	fsw	fa5,16(a4)
    841c:	36e2                	fld	fa3,56(sp)
    841e:	3f1a                	fld	ft10,416(sp)
    8420:	999a                	add	s3,s3,t1
    8422:	9999                	andi	a1,a1,-26
    8424:	9999                	andi	a1,a1,-26
    8426:	3f99                	jal	837c <__trunctfdf2+0x1f6>
    8428:	74737953          	0x74737953
    842c:	6d65                	lui	s10,0x19
    842e:	3a6b6c43          	fmadd.d	fs8,fs6,ft6,ft7,unknown
    8432:	6c25                	lui	s8,0x9
    8434:	0d75                	addi	s10,s10,29
    8436:	000a                	c.slli	zero,0x2
    8438:	70696843          	fmadd.s	fa6,fs2,ft6,fa4,unknown
    843c:	4449                	li	s0,18
    843e:	253a                	fld	fa0,392(sp)
    8440:	3830                	fld	fa2,112(s0)
    8442:	786c                	flw	fa1,116(s0)
    8444:	0a0d                	addi	s4,s4,3
    8446:	0000                	unimp
    8448:	7542                	flw	fa0,48(sp)
    844a:	20565f73          	csrrwi	t5,htvec,12
    844e:	3d20                	fld	fs0,120(a0)
    8450:	2520                	fld	fs0,72(a0)
    8452:	2066                	fld	ft0,88(sp)
    8454:	566d                	li	a2,-5
    8456:	0a0d                	addi	s4,s4,3
    8458:	0000                	unimp
    845a:	0000                	unimp
    845c:	6e756853          	0x6e756853
    8460:	5f74                	lw	a3,124(a4)
    8462:	3d56                	fld	fs10,368(sp)
    8464:	2520                	fld	fs0,72(a0)
    8466:	2066                	fld	ft0,88(sp)
    8468:	566d                	li	a2,-5
    846a:	0a0d                	addi	s4,s4,3
    846c:	0000                	unimp
    846e:	0000                	unimp
    8470:	72727543          	fmadd.d	fa0,ft4,ft7,fa4
    8474:	6e65                	lui	t3,0x19
    8476:	3d74                	fld	fa3,248(a0)
    8478:	2520                	fld	fs0,72(a0)
    847a:	2066                	fld	ft0,88(sp)
    847c:	4120                	lw	s0,64(a0)
    847e:	0a0d                	addi	s4,s4,3
    8480:	0000                	unimp
    8482:	0000                	unimp
    8484:	6f50                	flw	fa2,28(a4)
    8486:	20726577          	0x20726577
    848a:	3d20                	fld	fs0,120(a0)
    848c:	2520                	fld	fs0,72(a0)
    848e:	2066                	fld	ft0,88(sp)
    8490:	5720                	lw	s0,104(a4)
    8492:	0a0d                	addi	s4,s4,3
    8494:	0000                	unimp
    8496:	0000                	unimp
    8498:	6c41                	lui	s8,0x10
    849a:	7265                	lui	tp,0xffff9
    849c:	5f74                	lw	a3,124(a4)
    849e:	6c66                	flw	fs8,88(sp)
    84a0:	6761                	lui	a4,0x18
    84a2:	253d                	jal	8ad0 <_data_lma+0xdc>
    84a4:	0d78                	addi	a4,sp,668
    84a6:	000a                	c.slli	zero,0x2
    84a8:	8fb4                	0x8fb4
    84aa:	ffff                	0xffff
    84ac:	8eaa                	mv	t4,a0
    84ae:	ffff                	0xffff
    84b0:	8eaa                	mv	t4,a0
    84b2:	ffff                	0xffff
    84b4:	8ea8                	0x8ea8
    84b6:	ffff                	0xffff
    84b8:	8eb0                	0x8eb0
    84ba:	ffff                	0xffff
    84bc:	8eb0                	0x8eb0
    84be:	ffff                	0xffff
    84c0:	8e76                	mv	t3,t4
    84c2:	ffff                	0xffff
    84c4:	8ea8                	0x8ea8
    84c6:	ffff                	0xffff
    84c8:	8eb0                	0x8eb0
    84ca:	ffff                	0xffff
    84cc:	8e76                	mv	t3,t4
    84ce:	ffff                	0xffff
    84d0:	8eb0                	0x8eb0
    84d2:	ffff                	0xffff
    84d4:	8ea8                	0x8ea8
    84d6:	ffff                	0xffff
    84d8:	8fa0                	0x8fa0
    84da:	ffff                	0xffff
    84dc:	8fa0                	0x8fa0
    84de:	ffff                	0xffff
    84e0:	8fa0                	0x8fa0
    84e2:	ffff                	0xffff
    84e4:	8e76                	mv	t3,t4
    84e6:	ffff                	0xffff

000084e8 <__clz_tab>:
    84e8:	0100 0202 0303 0303 0404 0404 0404 0404     ................
    84f8:	0505 0505 0505 0505 0505 0505 0505 0505     ................
    8508:	0606 0606 0606 0606 0606 0606 0606 0606     ................
    8518:	0606 0606 0606 0606 0606 0606 0606 0606     ................
    8528:	0707 0707 0707 0707 0707 0707 0707 0707     ................
    8538:	0707 0707 0707 0707 0707 0707 0707 0707     ................
    8548:	0707 0707 0707 0707 0707 0707 0707 0707     ................
    8558:	0707 0707 0707 0707 0707 0707 0707 0707     ................
    8568:	0808 0808 0808 0808 0808 0808 0808 0808     ................
    8578:	0808 0808 0808 0808 0808 0808 0808 0808     ................
    8588:	0808 0808 0808 0808 0808 0808 0808 0808     ................
    8598:	0808 0808 0808 0808 0808 0808 0808 0808     ................
    85a8:	0808 0808 0808 0808 0808 0808 0808 0808     ................
    85b8:	0808 0808 0808 0808 0808 0808 0808 0808     ................
    85c8:	0808 0808 0808 0808 0808 0808 0808 0808     ................
    85d8:	0808 0808 0808 0808 0808 0808 0808 0808     ................
    85e8:	ffff ffff ffff 7fef 4e49 0046 6e69 0066     ........INF.inf.
    85f8:	414e 004e 616e 006e 0030 0000 3130 3332     NAN.nan.0...0123
    8608:	3534 3736 3938 4241 4443 4645 0000 0000     456789ABCDEF....
    8618:	3130 3332 3534 3736 3938 6261 6463 6665     0123456789abcdef
    8628:	0000 0000 2565 646c 0000 0000 0000 7fc0     ....e%ld........
    8638:	a356 ffff a342 ffff a374 ffff a37a ffff     V...B...t...z...
    8648:	a356 ffff 0000 0000 0000 0000 0000 3fe0     V..............?
    8658:	0000 0000 0000 3ff0 0000 0000 0000 4000     .......?.......@
    8668:	0000 ffc0 ffff 41df 3595 94a0 ffff 3fdf     .......A.5.....?
    8678:	e535 35af 0000 3fe0 3595 94a0 ffff 3fcf     5..5...?.5.....?
    8688:	666e 0000 6e69 7469 0079 0000 6e61 0000     nf..inity...an..

00008698 <fpi.3395>:
    8698:	0035 0000 fbce ffff 03cb 0000 0001 0000     5...............
    86a8:	0000 0000                                   ....

000086ac <fpinan.3431>:
    86ac:	0034 0000 fbce ffff 03cb 0000 0001 0000     4...............
    86bc:	0000 0000                                   ....

000086c0 <tinytens>:
    86c0:	89bc 97d8 d2b2 3c9c a733 d5a8 f623 3949     .......<3...#.I9
    86d0:	a73d 44f4 0ffd 32a5 979d cf8c ba08 255b     =..D...2......[%
    86e0:	6f43 64ac 0628 1168 0000 0000 0000 3ff8     Co.d(.h........?
    86f0:	4361 636f 87a7 3fd2 c8b3 8b60 8a28 3fc6     aCoc...?..`.(..?
    8700:	79fb 509f 4413 3fd3 0000 0000 0000 4024     .y.P.D.?......$@
    8710:	0000 0000 0000 401c 0000 0000 0000 4014     .......@.......@
    8720:	6e49 6966 696e 7974 0000 0000 614e 004e     Infinity....NaN.

00008730 <__sf_fake_stderr>:
	...

00008750 <__sf_fake_stdin>:
	...

00008770 <__sf_fake_stdout>:
	...
    8790:	0043 0000 4f50 4953 0058 0000 002e 0000     C...POSIX.......

000087a0 <__mprec_bigtens>:
    87a0:	8000 37e0 c379 4341 6e17 b505 b8b5 4693     ...7y.AC.n.....F
    87b0:	f9f5 e93f 4f03 4d38 1d32 f930 7748 5a82     ..?..O8M2.0.Hw.Z
    87c0:	bf3c 7f73 4fdd 7515                         <.s..O.u

000087c8 <__mprec_tens>:
    87c8:	0000 0000 0000 3ff0 0000 0000 0000 4024     .......?......$@
    87d8:	0000 0000 0000 4059 0000 0000 4000 408f     ......Y@.....@.@
    87e8:	0000 0000 8800 40c3 0000 0000 6a00 40f8     .......@.....j.@
    87f8:	0000 0000 8480 412e 0000 0000 12d0 4163     .......A......cA
    8808:	0000 0000 d784 4197 0000 0000 cd65 41cd     .......A....e..A
    8818:	0000 2000 a05f 4202 0000 e800 4876 4237     ... _..B....vH7B
    8828:	0000 a200 1a94 426d 0000 e540 309c 42a2     ......mB..@..0.B
    8838:	0000 1e90 bcc4 42d6 0000 2634 6bf5 430c     .......B..4&.k.C
    8848:	8000 37e0 c379 4341 a000 85d8 3457 4376     ...7y.AC....W4vC
    8858:	c800 674e c16d 43ab 3d00 6091 58e4 43e1     ..Ngm..C.=.`.X.C
    8868:	8c40 78b5 af1d 4415 ef50 d6e2 1ae4 444b     @..x...DP.....KD
    8878:	d592 064d f0cf 4480 4af6 c7e1 2d02 44b5     ..M....D.J...-.D
    8888:	9db4 79d9 7843 44ea                         ...yCx.D

00008890 <p05.3319>:
    8890:	0005 0000 0019 0000 007d 0000 2d23 2b30     ........}...#-0+
    88a0:	0020 0000 6c68 004c 6665 4567 4746 0000      ...hlL.efgEFG..

000088b0 <_ctype_>:
    88b0:	2000 2020 2020 2020 2020 2828 2828 2028     .         ((((( 
    88c0:	2020 2020 2020 2020 2020 2020 2020 2020                     
    88d0:	8820 1010 1010 1010 1010 1010 1010 1010      ...............
    88e0:	0410 0404 0404 0404 0404 1004 1010 1010     ................
    88f0:	1010 4141 4141 4141 0101 0101 0101 0101     ..AAAAAA........
    8900:	0101 0101 0101 0101 0101 0101 1010 1010     ................
    8910:	1010 4242 4242 4242 0202 0202 0202 0202     ..BBBBBB........
    8920:	0202 0202 0202 0202 0202 0202 1010 1010     ................
    8930:	0020 0000 0000 0000 0000 0000 0000 0000      ...............
	...
    89b4:	e6de ffff e562 ffff e672 ffff e67a ffff     ....b...r...z...
    89c4:	e672 ffff e592 ffff e672 ffff e67a ffff     r.......r...z...
    89d4:	e562 ffff e562 ffff e592 ffff e67a ffff     b...b.......z...
    89e4:	e6d4 ffff e6d4 ffff e6d4 ffff e592 ffff     ................
